
Tx_M4_CM4.elf:     file format elf32-littlearm

Sections:
Idx Name          Size      VMA       LMA       File off  Algn
  0 .isr_vector   00000298  08100000  08100000  00001000  2**0
                  CONTENTS, ALLOC, LOAD, READONLY, DATA
  1 .text         000047a0  08100298  08100298  00001298  2**2
                  CONTENTS, ALLOC, LOAD, READONLY, CODE
  2 .rodata       0000002c  08104a38  08104a38  00005a38  2**2
                  CONTENTS, ALLOC, LOAD, READONLY, DATA
  3 .ARM          00000008  08104a64  08104a64  00005a64  2**2
                  CONTENTS, ALLOC, LOAD, READONLY, DATA
  4 .init_array   00000004  08104a6c  08104a6c  00005a6c  2**2
                  CONTENTS, ALLOC, LOAD, READONLY, DATA
  5 .fini_array   00000004  08104a70  08104a70  00005a70  2**2
                  CONTENTS, ALLOC, LOAD, READONLY, DATA
  6 .data         00000030  10000000  08104a74  00006000  2**2
                  CONTENTS, ALLOC, LOAD, DATA
  7 .bss          000000f4  10000030  08104aa4  00006030  2**2
                  ALLOC
  8 ._user_heap_stack 00000604  10000124  08104aa4  00006124  2**0
                  ALLOC
  9 .ARM.attributes 00000030  00000000  00000000  00006030  2**0
                  CONTENTS, READONLY
 10 .debug_info   0000bbac  00000000  00000000  00006060  2**0
                  CONTENTS, READONLY, DEBUGGING, OCTETS
 11 .debug_abbrev 00001e50  00000000  00000000  00011c0c  2**0
                  CONTENTS, READONLY, DEBUGGING, OCTETS
 12 .debug_aranges 00000ac8  00000000  00000000  00013a60  2**3
                  CONTENTS, READONLY, DEBUGGING, OCTETS
 13 .debug_rnglists 00000809  00000000  00000000  00014528  2**0
                  CONTENTS, READONLY, DEBUGGING, OCTETS
 14 .debug_macro  000399b1  00000000  00000000  00014d31  2**0
                  CONTENTS, READONLY, DEBUGGING, OCTETS
 15 .debug_line   0000d6e6  00000000  00000000  0004e6e2  2**0
                  CONTENTS, READONLY, DEBUGGING, OCTETS
 16 .debug_str    0017d1e6  00000000  00000000  0005bdc8  2**0
                  CONTENTS, READONLY, DEBUGGING, OCTETS
 17 .comment      00000043  00000000  00000000  001d8fae  2**0
                  CONTENTS, READONLY
 18 .debug_frame  00002b94  00000000  00000000  001d8ff4  2**2
                  CONTENTS, READONLY, DEBUGGING, OCTETS
 19 .debug_line_str 0000004e  00000000  00000000  001dbb88  2**0
                  CONTENTS, READONLY, DEBUGGING, OCTETS

Disassembly of section .text:

08100298 <__do_global_dtors_aux>:
 8100298:	b510      	push	{r4, lr}
 810029a:	4c05      	ldr	r4, [pc, #20]	@ (81002b0 <__do_global_dtors_aux+0x18>)
 810029c:	7823      	ldrb	r3, [r4, #0]
 810029e:	b933      	cbnz	r3, 81002ae <__do_global_dtors_aux+0x16>
 81002a0:	4b04      	ldr	r3, [pc, #16]	@ (81002b4 <__do_global_dtors_aux+0x1c>)
 81002a2:	b113      	cbz	r3, 81002aa <__do_global_dtors_aux+0x12>
 81002a4:	4804      	ldr	r0, [pc, #16]	@ (81002b8 <__do_global_dtors_aux+0x20>)
 81002a6:	f3af 8000 	nop.w
 81002aa:	2301      	movs	r3, #1
 81002ac:	7023      	strb	r3, [r4, #0]
 81002ae:	bd10      	pop	{r4, pc}
 81002b0:	10000030 	.word	0x10000030
 81002b4:	00000000 	.word	0x00000000
 81002b8:	08104a20 	.word	0x08104a20

081002bc <frame_dummy>:
 81002bc:	b508      	push	{r3, lr}
 81002be:	4b03      	ldr	r3, [pc, #12]	@ (81002cc <frame_dummy+0x10>)
 81002c0:	b11b      	cbz	r3, 81002ca <frame_dummy+0xe>
 81002c2:	4903      	ldr	r1, [pc, #12]	@ (81002d0 <frame_dummy+0x14>)
 81002c4:	4803      	ldr	r0, [pc, #12]	@ (81002d4 <frame_dummy+0x18>)
 81002c6:	f3af 8000 	nop.w
 81002ca:	bd08      	pop	{r3, pc}
 81002cc:	00000000 	.word	0x00000000
 81002d0:	10000034 	.word	0x10000034
 81002d4:	08104a20 	.word	0x08104a20

081002d8 <__aeabi_uldivmod>:
 81002d8:	b953      	cbnz	r3, 81002f0 <__aeabi_uldivmod+0x18>
 81002da:	b94a      	cbnz	r2, 81002f0 <__aeabi_uldivmod+0x18>
 81002dc:	2900      	cmp	r1, #0
 81002de:	bf08      	it	eq
 81002e0:	2800      	cmpeq	r0, #0
 81002e2:	bf1c      	itt	ne
 81002e4:	f04f 31ff 	movne.w	r1, #4294967295
 81002e8:	f04f 30ff 	movne.w	r0, #4294967295
 81002ec:	f000 b96a 	b.w	81005c4 <__aeabi_idiv0>
 81002f0:	f1ad 0c08 	sub.w	ip, sp, #8
 81002f4:	e96d ce04 	strd	ip, lr, [sp, #-16]!
 81002f8:	f000 f806 	bl	8100308 <__udivmoddi4>
 81002fc:	f8dd e004 	ldr.w	lr, [sp, #4]
 8100300:	e9dd 2302 	ldrd	r2, r3, [sp, #8]
 8100304:	b004      	add	sp, #16
 8100306:	4770      	bx	lr

08100308 <__udivmoddi4>:
 8100308:	e92d 47f0 	stmdb	sp!, {r4, r5, r6, r7, r8, r9, sl, lr}
 810030c:	9d08      	ldr	r5, [sp, #32]
 810030e:	460c      	mov	r4, r1
 8100310:	2b00      	cmp	r3, #0
 8100312:	d14e      	bne.n	81003b2 <__udivmoddi4+0xaa>
 8100314:	4694      	mov	ip, r2
 8100316:	458c      	cmp	ip, r1
 8100318:	4686      	mov	lr, r0
 810031a:	fab2 f282 	clz	r2, r2
 810031e:	d962      	bls.n	81003e6 <__udivmoddi4+0xde>
 8100320:	b14a      	cbz	r2, 8100336 <__udivmoddi4+0x2e>
 8100322:	f1c2 0320 	rsb	r3, r2, #32
 8100326:	4091      	lsls	r1, r2
 8100328:	fa20 f303 	lsr.w	r3, r0, r3
 810032c:	fa0c fc02 	lsl.w	ip, ip, r2
 8100330:	4319      	orrs	r1, r3
 8100332:	fa00 fe02 	lsl.w	lr, r0, r2
 8100336:	ea4f 471c 	mov.w	r7, ip, lsr #16
 810033a:	fa1f f68c 	uxth.w	r6, ip
 810033e:	fbb1 f4f7 	udiv	r4, r1, r7
 8100342:	ea4f 431e 	mov.w	r3, lr, lsr #16
 8100346:	fb07 1114 	mls	r1, r7, r4, r1
 810034a:	ea43 4301 	orr.w	r3, r3, r1, lsl #16
 810034e:	fb04 f106 	mul.w	r1, r4, r6
 8100352:	4299      	cmp	r1, r3
 8100354:	d90a      	bls.n	810036c <__udivmoddi4+0x64>
 8100356:	eb1c 0303 	adds.w	r3, ip, r3
 810035a:	f104 30ff 	add.w	r0, r4, #4294967295
 810035e:	f080 8112 	bcs.w	8100586 <__udivmoddi4+0x27e>
 8100362:	4299      	cmp	r1, r3
 8100364:	f240 810f 	bls.w	8100586 <__udivmoddi4+0x27e>
 8100368:	3c02      	subs	r4, #2
 810036a:	4463      	add	r3, ip
 810036c:	1a59      	subs	r1, r3, r1
 810036e:	fa1f f38e 	uxth.w	r3, lr
 8100372:	fbb1 f0f7 	udiv	r0, r1, r7
 8100376:	fb07 1110 	mls	r1, r7, r0, r1
 810037a:	ea43 4301 	orr.w	r3, r3, r1, lsl #16
 810037e:	fb00 f606 	mul.w	r6, r0, r6
 8100382:	429e      	cmp	r6, r3
 8100384:	d90a      	bls.n	810039c <__udivmoddi4+0x94>
 8100386:	eb1c 0303 	adds.w	r3, ip, r3
 810038a:	f100 31ff 	add.w	r1, r0, #4294967295
 810038e:	f080 80fc 	bcs.w	810058a <__udivmoddi4+0x282>
 8100392:	429e      	cmp	r6, r3
 8100394:	f240 80f9 	bls.w	810058a <__udivmoddi4+0x282>
 8100398:	4463      	add	r3, ip
 810039a:	3802      	subs	r0, #2
 810039c:	1b9b      	subs	r3, r3, r6
 810039e:	ea40 4004 	orr.w	r0, r0, r4, lsl #16
 81003a2:	2100      	movs	r1, #0
 81003a4:	b11d      	cbz	r5, 81003ae <__udivmoddi4+0xa6>
 81003a6:	40d3      	lsrs	r3, r2
 81003a8:	2200      	movs	r2, #0
 81003aa:	e9c5 3200 	strd	r3, r2, [r5]
 81003ae:	e8bd 87f0 	ldmia.w	sp!, {r4, r5, r6, r7, r8, r9, sl, pc}
 81003b2:	428b      	cmp	r3, r1
 81003b4:	d905      	bls.n	81003c2 <__udivmoddi4+0xba>
 81003b6:	b10d      	cbz	r5, 81003bc <__udivmoddi4+0xb4>
 81003b8:	e9c5 0100 	strd	r0, r1, [r5]
 81003bc:	2100      	movs	r1, #0
 81003be:	4608      	mov	r0, r1
 81003c0:	e7f5      	b.n	81003ae <__udivmoddi4+0xa6>
 81003c2:	fab3 f183 	clz	r1, r3
 81003c6:	2900      	cmp	r1, #0
 81003c8:	d146      	bne.n	8100458 <__udivmoddi4+0x150>
 81003ca:	42a3      	cmp	r3, r4
 81003cc:	d302      	bcc.n	81003d4 <__udivmoddi4+0xcc>
 81003ce:	4290      	cmp	r0, r2
 81003d0:	f0c0 80f0 	bcc.w	81005b4 <__udivmoddi4+0x2ac>
 81003d4:	1a86      	subs	r6, r0, r2
 81003d6:	eb64 0303 	sbc.w	r3, r4, r3
 81003da:	2001      	movs	r0, #1
 81003dc:	2d00      	cmp	r5, #0
 81003de:	d0e6      	beq.n	81003ae <__udivmoddi4+0xa6>
 81003e0:	e9c5 6300 	strd	r6, r3, [r5]
 81003e4:	e7e3      	b.n	81003ae <__udivmoddi4+0xa6>
 81003e6:	2a00      	cmp	r2, #0
 81003e8:	f040 8090 	bne.w	810050c <__udivmoddi4+0x204>
 81003ec:	eba1 040c 	sub.w	r4, r1, ip
 81003f0:	ea4f 481c 	mov.w	r8, ip, lsr #16
 81003f4:	fa1f f78c 	uxth.w	r7, ip
 81003f8:	2101      	movs	r1, #1
 81003fa:	fbb4 f6f8 	udiv	r6, r4, r8
 81003fe:	ea4f 431e 	mov.w	r3, lr, lsr #16
 8100402:	fb08 4416 	mls	r4, r8, r6, r4
 8100406:	ea43 4304 	orr.w	r3, r3, r4, lsl #16
 810040a:	fb07 f006 	mul.w	r0, r7, r6
 810040e:	4298      	cmp	r0, r3
 8100410:	d908      	bls.n	8100424 <__udivmoddi4+0x11c>
 8100412:	eb1c 0303 	adds.w	r3, ip, r3
 8100416:	f106 34ff 	add.w	r4, r6, #4294967295
 810041a:	d202      	bcs.n	8100422 <__udivmoddi4+0x11a>
 810041c:	4298      	cmp	r0, r3
 810041e:	f200 80cd 	bhi.w	81005bc <__udivmoddi4+0x2b4>
 8100422:	4626      	mov	r6, r4
 8100424:	1a1c      	subs	r4, r3, r0
 8100426:	fa1f f38e 	uxth.w	r3, lr
 810042a:	fbb4 f0f8 	udiv	r0, r4, r8
 810042e:	fb08 4410 	mls	r4, r8, r0, r4
 8100432:	ea43 4304 	orr.w	r3, r3, r4, lsl #16
 8100436:	fb00 f707 	mul.w	r7, r0, r7
 810043a:	429f      	cmp	r7, r3
 810043c:	d908      	bls.n	8100450 <__udivmoddi4+0x148>
 810043e:	eb1c 0303 	adds.w	r3, ip, r3
 8100442:	f100 34ff 	add.w	r4, r0, #4294967295
 8100446:	d202      	bcs.n	810044e <__udivmoddi4+0x146>
 8100448:	429f      	cmp	r7, r3
 810044a:	f200 80b0 	bhi.w	81005ae <__udivmoddi4+0x2a6>
 810044e:	4620      	mov	r0, r4
 8100450:	1bdb      	subs	r3, r3, r7
 8100452:	ea40 4006 	orr.w	r0, r0, r6, lsl #16
 8100456:	e7a5      	b.n	81003a4 <__udivmoddi4+0x9c>
 8100458:	f1c1 0620 	rsb	r6, r1, #32
 810045c:	408b      	lsls	r3, r1
 810045e:	fa22 f706 	lsr.w	r7, r2, r6
 8100462:	431f      	orrs	r7, r3
 8100464:	fa20 fc06 	lsr.w	ip, r0, r6
 8100468:	fa04 f301 	lsl.w	r3, r4, r1
 810046c:	ea43 030c 	orr.w	r3, r3, ip
 8100470:	40f4      	lsrs	r4, r6
 8100472:	fa00 f801 	lsl.w	r8, r0, r1
 8100476:	0c38      	lsrs	r0, r7, #16
 8100478:	ea4f 4913 	mov.w	r9, r3, lsr #16
 810047c:	fbb4 fef0 	udiv	lr, r4, r0
 8100480:	fa1f fc87 	uxth.w	ip, r7
 8100484:	fb00 441e 	mls	r4, r0, lr, r4
 8100488:	ea49 4404 	orr.w	r4, r9, r4, lsl #16
 810048c:	fb0e f90c 	mul.w	r9, lr, ip
 8100490:	45a1      	cmp	r9, r4
 8100492:	fa02 f201 	lsl.w	r2, r2, r1
 8100496:	d90a      	bls.n	81004ae <__udivmoddi4+0x1a6>
 8100498:	193c      	adds	r4, r7, r4
 810049a:	f10e 3aff 	add.w	sl, lr, #4294967295
 810049e:	f080 8084 	bcs.w	81005aa <__udivmoddi4+0x2a2>
 81004a2:	45a1      	cmp	r9, r4
 81004a4:	f240 8081 	bls.w	81005aa <__udivmoddi4+0x2a2>
 81004a8:	f1ae 0e02 	sub.w	lr, lr, #2
 81004ac:	443c      	add	r4, r7
 81004ae:	eba4 0409 	sub.w	r4, r4, r9
 81004b2:	fa1f f983 	uxth.w	r9, r3
 81004b6:	fbb4 f3f0 	udiv	r3, r4, r0
 81004ba:	fb00 4413 	mls	r4, r0, r3, r4
 81004be:	ea49 4404 	orr.w	r4, r9, r4, lsl #16
 81004c2:	fb03 fc0c 	mul.w	ip, r3, ip
 81004c6:	45a4      	cmp	ip, r4
 81004c8:	d907      	bls.n	81004da <__udivmoddi4+0x1d2>
 81004ca:	193c      	adds	r4, r7, r4
 81004cc:	f103 30ff 	add.w	r0, r3, #4294967295
 81004d0:	d267      	bcs.n	81005a2 <__udivmoddi4+0x29a>
 81004d2:	45a4      	cmp	ip, r4
 81004d4:	d965      	bls.n	81005a2 <__udivmoddi4+0x29a>
 81004d6:	3b02      	subs	r3, #2
 81004d8:	443c      	add	r4, r7
 81004da:	ea43 400e 	orr.w	r0, r3, lr, lsl #16
 81004de:	fba0 9302 	umull	r9, r3, r0, r2
 81004e2:	eba4 040c 	sub.w	r4, r4, ip
 81004e6:	429c      	cmp	r4, r3
 81004e8:	46ce      	mov	lr, r9
 81004ea:	469c      	mov	ip, r3
 81004ec:	d351      	bcc.n	8100592 <__udivmoddi4+0x28a>
 81004ee:	d04e      	beq.n	810058e <__udivmoddi4+0x286>
 81004f0:	b155      	cbz	r5, 8100508 <__udivmoddi4+0x200>
 81004f2:	ebb8 030e 	subs.w	r3, r8, lr
 81004f6:	eb64 040c 	sbc.w	r4, r4, ip
 81004fa:	fa04 f606 	lsl.w	r6, r4, r6
 81004fe:	40cb      	lsrs	r3, r1
 8100500:	431e      	orrs	r6, r3
 8100502:	40cc      	lsrs	r4, r1
 8100504:	e9c5 6400 	strd	r6, r4, [r5]
 8100508:	2100      	movs	r1, #0
 810050a:	e750      	b.n	81003ae <__udivmoddi4+0xa6>
 810050c:	f1c2 0320 	rsb	r3, r2, #32
 8100510:	fa20 f103 	lsr.w	r1, r0, r3
 8100514:	fa0c fc02 	lsl.w	ip, ip, r2
 8100518:	fa24 f303 	lsr.w	r3, r4, r3
 810051c:	4094      	lsls	r4, r2
 810051e:	430c      	orrs	r4, r1
 8100520:	ea4f 481c 	mov.w	r8, ip, lsr #16
 8100524:	fa00 fe02 	lsl.w	lr, r0, r2
 8100528:	fa1f f78c 	uxth.w	r7, ip
 810052c:	fbb3 f0f8 	udiv	r0, r3, r8
 8100530:	fb08 3110 	mls	r1, r8, r0, r3
 8100534:	0c23      	lsrs	r3, r4, #16
 8100536:	ea43 4301 	orr.w	r3, r3, r1, lsl #16
 810053a:	fb00 f107 	mul.w	r1, r0, r7
 810053e:	4299      	cmp	r1, r3
 8100540:	d908      	bls.n	8100554 <__udivmoddi4+0x24c>
 8100542:	eb1c 0303 	adds.w	r3, ip, r3
 8100546:	f100 36ff 	add.w	r6, r0, #4294967295
 810054a:	d22c      	bcs.n	81005a6 <__udivmoddi4+0x29e>
 810054c:	4299      	cmp	r1, r3
 810054e:	d92a      	bls.n	81005a6 <__udivmoddi4+0x29e>
 8100550:	3802      	subs	r0, #2
 8100552:	4463      	add	r3, ip
 8100554:	1a5b      	subs	r3, r3, r1
 8100556:	b2a4      	uxth	r4, r4
 8100558:	fbb3 f1f8 	udiv	r1, r3, r8
 810055c:	fb08 3311 	mls	r3, r8, r1, r3
 8100560:	ea44 4403 	orr.w	r4, r4, r3, lsl #16
 8100564:	fb01 f307 	mul.w	r3, r1, r7
 8100568:	42a3      	cmp	r3, r4
 810056a:	d908      	bls.n	810057e <__udivmoddi4+0x276>
 810056c:	eb1c 0404 	adds.w	r4, ip, r4
 8100570:	f101 36ff 	add.w	r6, r1, #4294967295
 8100574:	d213      	bcs.n	810059e <__udivmoddi4+0x296>
 8100576:	42a3      	cmp	r3, r4
 8100578:	d911      	bls.n	810059e <__udivmoddi4+0x296>
 810057a:	3902      	subs	r1, #2
 810057c:	4464      	add	r4, ip
 810057e:	1ae4      	subs	r4, r4, r3
 8100580:	ea41 4100 	orr.w	r1, r1, r0, lsl #16
 8100584:	e739      	b.n	81003fa <__udivmoddi4+0xf2>
 8100586:	4604      	mov	r4, r0
 8100588:	e6f0      	b.n	810036c <__udivmoddi4+0x64>
 810058a:	4608      	mov	r0, r1
 810058c:	e706      	b.n	810039c <__udivmoddi4+0x94>
 810058e:	45c8      	cmp	r8, r9
 8100590:	d2ae      	bcs.n	81004f0 <__udivmoddi4+0x1e8>
 8100592:	ebb9 0e02 	subs.w	lr, r9, r2
 8100596:	eb63 0c07 	sbc.w	ip, r3, r7
 810059a:	3801      	subs	r0, #1
 810059c:	e7a8      	b.n	81004f0 <__udivmoddi4+0x1e8>
 810059e:	4631      	mov	r1, r6
 81005a0:	e7ed      	b.n	810057e <__udivmoddi4+0x276>
 81005a2:	4603      	mov	r3, r0
 81005a4:	e799      	b.n	81004da <__udivmoddi4+0x1d2>
 81005a6:	4630      	mov	r0, r6
 81005a8:	e7d4      	b.n	8100554 <__udivmoddi4+0x24c>
 81005aa:	46d6      	mov	lr, sl
 81005ac:	e77f      	b.n	81004ae <__udivmoddi4+0x1a6>
 81005ae:	4463      	add	r3, ip
 81005b0:	3802      	subs	r0, #2
 81005b2:	e74d      	b.n	8100450 <__udivmoddi4+0x148>
 81005b4:	4606      	mov	r6, r0
 81005b6:	4623      	mov	r3, r4
 81005b8:	4608      	mov	r0, r1
 81005ba:	e70f      	b.n	81003dc <__udivmoddi4+0xd4>
 81005bc:	3e02      	subs	r6, #2
 81005be:	4463      	add	r3, ip
 81005c0:	e730      	b.n	8100424 <__udivmoddi4+0x11c>
 81005c2:	bf00      	nop

081005c4 <__aeabi_idiv0>:
 81005c4:	4770      	bx	lr
 81005c6:	bf00      	nop

081005c8 <SystemInit>:
  *         configuration.
  * @param  None
  * @retval None
  */
void SystemInit (void)
{
 81005c8:	b480      	push	{r7}
 81005ca:	af00      	add	r7, sp, #0
  /* FPU settings ------------------------------------------------------------*/
  #if (__FPU_PRESENT == 1) && (__FPU_USED == 1)
    SCB->CPACR |= ((3UL << (10*2))|(3UL << (11*2)));  /* set CP10 and CP11 Full Access */
 81005cc:	4b09      	ldr	r3, [pc, #36]	@ (81005f4 <SystemInit+0x2c>)
 81005ce:	f8d3 3088 	ldr.w	r3, [r3, #136]	@ 0x88
 81005d2:	4a08      	ldr	r2, [pc, #32]	@ (81005f4 <SystemInit+0x2c>)
 81005d4:	f443 0370 	orr.w	r3, r3, #15728640	@ 0xf00000
 81005d8:	f8c2 3088 	str.w	r3, [r2, #136]	@ 0x88
  #endif

    /*SEVONPEND enabled so that an interrupt coming from the CPU(n) interrupt signal is
     detectable by the CPU after a WFI/WFE instruction.*/
 SCB->SCR |= SCB_SCR_SEVONPEND_Msk;
 81005dc:	4b05      	ldr	r3, [pc, #20]	@ (81005f4 <SystemInit+0x2c>)
 81005de:	691b      	ldr	r3, [r3, #16]
 81005e0:	4a04      	ldr	r2, [pc, #16]	@ (81005f4 <SystemInit+0x2c>)
 81005e2:	f043 0310 	orr.w	r3, r3, #16
 81005e6:	6113      	str	r3, [r2, #16]
#endif /* USER_VECT_TAB_ADDRESS */

#else
#error Please #define CORE_CM4 or CORE_CM7
#endif /* CORE_CM4 */
}
 81005e8:	bf00      	nop
 81005ea:	46bd      	mov	sp, r7
 81005ec:	f85d 7b04 	ldr.w	r7, [sp], #4
 81005f0:	4770      	bx	lr
 81005f2:	bf00      	nop
 81005f4:	e000ed00 	.word	0xe000ed00

081005f8 <get_M7>:

// pointer to shared_data struct (inter-core buffers and status)
volatile struct shared_data * const xfr_ptr = (struct shared_data *)0x38001000;

int * get_M7() // get data from M4 to M7 buffer
{
 81005f8:	b480      	push	{r7}
 81005fa:	b083      	sub	sp, #12
 81005fc:	af00      	add	r7, sp, #0
	static int buffer[12]; // buffer to receive data
	if (xfr_ptr->sts_7to4 == 1) // if M4 to M7 buffer has data
 81005fe:	4b15      	ldr	r3, [pc, #84]	@ (8100654 <get_M7+0x5c>)
 8100600:	785b      	ldrb	r3, [r3, #1]
 8100602:	b2db      	uxtb	r3, r3
 8100604:	2b01      	cmp	r3, #1
 8100606:	d11d      	bne.n	8100644 <get_M7+0x4c>
	{
		xfr_ptr->sts_7to4 = 2; // lock the M4 to M7 buffer
 8100608:	4b12      	ldr	r3, [pc, #72]	@ (8100654 <get_M7+0x5c>)
 810060a:	2202      	movs	r2, #2
 810060c:	705a      	strb	r2, [r3, #1]
		for(int n = 0; n < 12; n++)
 810060e:	2300      	movs	r3, #0
 8100610:	607b      	str	r3, [r7, #4]
 8100612:	e011      	b.n	8100638 <get_M7+0x40>
		{
			buffer[n] = xfr_ptr->M7toM4[n]; // transfer data
 8100614:	4a0f      	ldr	r2, [pc, #60]	@ (8100654 <get_M7+0x5c>)
 8100616:	687b      	ldr	r3, [r7, #4]
 8100618:	330a      	adds	r3, #10
 810061a:	f852 2023 	ldr.w	r2, [r2, r3, lsl #2]
 810061e:	490e      	ldr	r1, [pc, #56]	@ (8100658 <get_M7+0x60>)
 8100620:	687b      	ldr	r3, [r7, #4]
 8100622:	f841 2023 	str.w	r2, [r1, r3, lsl #2]
			xfr_ptr->M7toM4[n] = 0; // clear M4 to M7 buffer
 8100626:	4a0b      	ldr	r2, [pc, #44]	@ (8100654 <get_M7+0x5c>)
 8100628:	687b      	ldr	r3, [r7, #4]
 810062a:	330a      	adds	r3, #10
 810062c:	2100      	movs	r1, #0
 810062e:	f842 1023 	str.w	r1, [r2, r3, lsl #2]
		for(int n = 0; n < 12; n++)
 8100632:	687b      	ldr	r3, [r7, #4]
 8100634:	3301      	adds	r3, #1
 8100636:	607b      	str	r3, [r7, #4]
 8100638:	687b      	ldr	r3, [r7, #4]
 810063a:	2b0b      	cmp	r3, #11
 810063c:	ddea      	ble.n	8100614 <get_M7+0x1c>
		}
		xfr_ptr->sts_7to4 = 0; // M4 to M7 buffer is empty
 810063e:	4b05      	ldr	r3, [pc, #20]	@ (8100654 <get_M7+0x5c>)
 8100640:	2200      	movs	r2, #0
 8100642:	705a      	strb	r2, [r3, #1]
	}
	return buffer; // return the buffer (pointer)
 8100644:	4b04      	ldr	r3, [pc, #16]	@ (8100658 <get_M7+0x60>)
}
 8100646:	4618      	mov	r0, r3
 8100648:	370c      	adds	r7, #12
 810064a:	46bd      	mov	sp, r7
 810064c:	f85d 7b04 	ldr.w	r7, [sp], #4
 8100650:	4770      	bx	lr
 8100652:	bf00      	nop
 8100654:	38001000 	.word	0x38001000
 8100658:	100000d4 	.word	0x100000d4

0810065c <Tx_mode>:

/* USER CODE END PFP */

/* Private user code ---------------------------------------------------------*/
/* USER CODE BEGIN 0 */
void Tx_mode(uint8_t Adress[5]){
 810065c:	b580      	push	{r7, lr}
 810065e:	b084      	sub	sp, #16
 8100660:	af02      	add	r7, sp, #8
 8100662:	6078      	str	r0, [r7, #4]

	if(NRF_Init(&hspi1, GPIOG, GPIO_PIN_12, GPIOG, GPIO_PIN_14) != NRF_OK){
 8100664:	f44f 4380 	mov.w	r3, #16384	@ 0x4000
 8100668:	9300      	str	r3, [sp, #0]
 810066a:	4b0e      	ldr	r3, [pc, #56]	@ (81006a4 <Tx_mode+0x48>)
 810066c:	f44f 5280 	mov.w	r2, #4096	@ 0x1000
 8100670:	490c      	ldr	r1, [pc, #48]	@ (81006a4 <Tx_mode+0x48>)
 8100672:	480d      	ldr	r0, [pc, #52]	@ (81006a8 <Tx_mode+0x4c>)
 8100674:	f000 fc8c 	bl	8100f90 <NRF_Init>
 8100678:	4603      	mov	r3, r0
 810067a:	2b00      	cmp	r3, #0
 810067c:	d001      	beq.n	8100682 <Tx_mode+0x26>
		Error_Handler();
 810067e:	f000 fa2b 	bl	8100ad8 <Error_Handler>
	}

	NRF_Reset();
 8100682:	f000 fcc1 	bl	8101008 <NRF_Reset>
	NRF_WriteRegister(NRF_REG_TX_ADDR,Adress,5);
 8100686:	2205      	movs	r2, #5
 8100688:	6879      	ldr	r1, [r7, #4]
 810068a:	2010      	movs	r0, #16
 810068c:	f000 fb2e 	bl	8100cec <NRF_WriteRegister>
	//Para enviar a mensagem usar função transmitandwait
	NRF_WriteRegister(NRF_REG_RX_ADDR_P0, Adress, 5);
 8100690:	2205      	movs	r2, #5
 8100692:	6879      	ldr	r1, [r7, #4]
 8100694:	200a      	movs	r0, #10
 8100696:	f000 fb29 	bl	8100cec <NRF_WriteRegister>
}
 810069a:	bf00      	nop
 810069c:	3708      	adds	r7, #8
 810069e:	46bd      	mov	sp, r7
 81006a0:	bd80      	pop	{r7, pc}
 81006a2:	bf00      	nop
 81006a4:	58021800 	.word	0x58021800
 81006a8:	1000004c 	.word	0x1000004c

081006ac <changeChannel>:

void changeChannel(uint8_t n){
 81006ac:	b580      	push	{r7, lr}
 81006ae:	b082      	sub	sp, #8
 81006b0:	af00      	add	r7, sp, #0
 81006b2:	4603      	mov	r3, r0
 81006b4:	71fb      	strb	r3, [r7, #7]
	NRF_EnterMode(NRF_MODE_STANDBY1);
 81006b6:	2001      	movs	r0, #1
 81006b8:	f000 fbf4 	bl	8100ea4 <NRF_EnterMode>
	if(n==0){
 81006bc:	79fb      	ldrb	r3, [r7, #7]
 81006be:	2b00      	cmp	r3, #0
 81006c0:	d103      	bne.n	81006ca <changeChannel+0x1e>
		NRF_WriteRegisterByte(NRF_REG_RF_CH,0x02); //Canal 3
 81006c2:	2102      	movs	r1, #2
 81006c4:	2005      	movs	r0, #5
 81006c6:	f000 fb27 	bl	8100d18 <NRF_WriteRegisterByte>
	}
	if(n==1){
 81006ca:	79fb      	ldrb	r3, [r7, #7]
 81006cc:	2b01      	cmp	r3, #1
 81006ce:	d103      	bne.n	81006d8 <changeChannel+0x2c>
		NRF_WriteRegisterByte(NRF_REG_RF_CH,0x03); //Canal 4
 81006d0:	2103      	movs	r1, #3
 81006d2:	2005      	movs	r0, #5
 81006d4:	f000 fb20 	bl	8100d18 <NRF_WriteRegisterByte>
	}
	if(n==2){
 81006d8:	79fb      	ldrb	r3, [r7, #7]
 81006da:	2b02      	cmp	r3, #2
 81006dc:	d103      	bne.n	81006e6 <changeChannel+0x3a>
		NRF_WriteRegisterByte(NRF_REG_RF_CH,0x04); //Canal 5
 81006de:	2104      	movs	r1, #4
 81006e0:	2005      	movs	r0, #5
 81006e2:	f000 fb19 	bl	8100d18 <NRF_WriteRegisterByte>
	}
	NRF_EnterMode(NRF_MODE_TX);
 81006e6:	2003      	movs	r0, #3
 81006e8:	f000 fbdc 	bl	8100ea4 <NRF_EnterMode>
}
 81006ec:	bf00      	nop
 81006ee:	3708      	adds	r7, #8
 81006f0:	46bd      	mov	sp, r7
 81006f2:	bd80      	pop	{r7, pc}

081006f4 <main>:
/**
  * @brief  The application entry point.
  * @retval int
  */
int main(void)
{
 81006f4:	b580      	push	{r7, lr}
 81006f6:	b0a0      	sub	sp, #128	@ 0x80
 81006f8:	af00      	add	r7, sp, #0

  /* USER CODE END 1 */

/* USER CODE BEGIN Boot_Mode_Sequence_1 */
  /*HW semaphore Clock enable*/
  __HAL_RCC_HSEM_CLK_ENABLE();
 81006fa:	4b98      	ldr	r3, [pc, #608]	@ (810095c <main+0x268>)
 81006fc:	f8d3 30e0 	ldr.w	r3, [r3, #224]	@ 0xe0
 8100700:	4a96      	ldr	r2, [pc, #600]	@ (810095c <main+0x268>)
 8100702:	f043 7300 	orr.w	r3, r3, #33554432	@ 0x2000000
 8100706:	f8c2 30e0 	str.w	r3, [r2, #224]	@ 0xe0
 810070a:	4b94      	ldr	r3, [pc, #592]	@ (810095c <main+0x268>)
 810070c:	f8d3 30e0 	ldr.w	r3, [r3, #224]	@ 0xe0
 8100710:	f003 7300 	and.w	r3, r3, #33554432	@ 0x2000000
 8100714:	607b      	str	r3, [r7, #4]
 8100716:	687b      	ldr	r3, [r7, #4]
  /* Activate HSEM notification for Cortex-M4*/
  HAL_HSEM_ActivateNotification(__HAL_HSEM_SEMID_TO_MASK(HSEM_ID_0));
 8100718:	2001      	movs	r0, #1
 810071a:	f001 fa31 	bl	8101b80 <HAL_HSEM_ActivateNotification>
  /*
  Domain D2 goes to STOP mode (Cortex-M4 in deep-sleep) waiting for Cortex-M7 to
  perform system initialization (system clock config, external memory configuration.. )
  */
  HAL_PWREx_ClearPendingEvent();
 810071e:	f001 fabb 	bl	8101c98 <HAL_PWREx_ClearPendingEvent>
  HAL_PWREx_EnterSTOPMode(PWR_MAINREGULATOR_ON, PWR_STOPENTRY_WFE, PWR_D2_DOMAIN);
 8100722:	2201      	movs	r2, #1
 8100724:	2102      	movs	r1, #2
 8100726:	2000      	movs	r0, #0
 8100728:	f001 fa3c 	bl	8101ba4 <HAL_PWREx_EnterSTOPMode>
  /* Clear HSEM flag */
  __HAL_HSEM_CLEAR_FLAG(__HAL_HSEM_SEMID_TO_MASK(HSEM_ID_0));
 810072c:	4b8c      	ldr	r3, [pc, #560]	@ (8100960 <main+0x26c>)
 810072e:	681b      	ldr	r3, [r3, #0]
 8100730:	091b      	lsrs	r3, r3, #4
 8100732:	f003 030f 	and.w	r3, r3, #15
 8100736:	2b07      	cmp	r3, #7
 8100738:	d108      	bne.n	810074c <main+0x58>
 810073a:	4b8a      	ldr	r3, [pc, #552]	@ (8100964 <main+0x270>)
 810073c:	f8d3 3104 	ldr.w	r3, [r3, #260]	@ 0x104
 8100740:	4a88      	ldr	r2, [pc, #544]	@ (8100964 <main+0x270>)
 8100742:	f043 0301 	orr.w	r3, r3, #1
 8100746:	f8c2 3104 	str.w	r3, [r2, #260]	@ 0x104
 810074a:	e007      	b.n	810075c <main+0x68>
 810074c:	4b85      	ldr	r3, [pc, #532]	@ (8100964 <main+0x270>)
 810074e:	f8d3 3114 	ldr.w	r3, [r3, #276]	@ 0x114
 8100752:	4a84      	ldr	r2, [pc, #528]	@ (8100964 <main+0x270>)
 8100754:	f043 0301 	orr.w	r3, r3, #1
 8100758:	f8c2 3114 	str.w	r3, [r2, #276]	@ 0x114

/* USER CODE END Boot_Mode_Sequence_1 */
  /* MCU Configuration--------------------------------------------------------*/

  /* Reset of all peripherals, Initializes the Flash interface and the Systick. */
  HAL_Init();
 810075c:	f000 fe5c 	bl	8101418 <HAL_Init>
  /* USER CODE BEGIN SysInit */

  /* USER CODE END SysInit */

  /* Initialize all configured peripherals */
  MX_GPIO_Init();
 8100760:	f000 f964 	bl	8100a2c <MX_GPIO_Init>
  MX_SPI1_Init();
 8100764:	f000 f90c 	bl	8100980 <MX_SPI1_Init>
  /* USER CODE BEGIN 2 */
  Tx_mode(TxAdress0);
 8100768:	487f      	ldr	r0, [pc, #508]	@ (8100968 <main+0x274>)
 810076a:	f7ff ff77 	bl	810065c <Tx_mode>

  NRF_Status ret = NRF_OK;
 810076e:	2300      	movs	r3, #0
 8100770:	f887 3077 	strb.w	r3, [r7, #119]	@ 0x77
  /* USER CODE END 2 */

  /* Infinite loop */
  /* USER CODE BEGIN WHILE */
  xfr_ptr->sts_4to7 = 0;
 8100774:	4b7d      	ldr	r3, [pc, #500]	@ (810096c <main+0x278>)
 8100776:	2200      	movs	r2, #0
 8100778:	701a      	strb	r2, [r3, #0]
  xfr_ptr->sts_7to4 = 0;
 810077a:	4b7c      	ldr	r3, [pc, #496]	@ (810096c <main+0x278>)
 810077c:	2200      	movs	r2, #0
 810077e:	705a      	strb	r2, [r3, #1]
  int *xfr_dataM4;
  int Valores[12];
  int Returns[9]={0,0,0,0,0,0,0,0,0};
 8100780:	f107 0314 	add.w	r3, r7, #20
 8100784:	2224      	movs	r2, #36	@ 0x24
 8100786:	2100      	movs	r1, #0
 8100788:	4618      	mov	r0, r3
 810078a:	f004 f91c 	bl	81049c6 <memset>
  uint32_t acumulador[3] = {1,1,1};
 810078e:	4a78      	ldr	r2, [pc, #480]	@ (8100970 <main+0x27c>)
 8100790:	f107 0308 	add.w	r3, r7, #8
 8100794:	ca07      	ldmia	r2, {r0, r1, r2}
 8100796:	e883 0007 	stmia.w	r3, {r0, r1, r2}

  while (1)
  {
	 if(xfr_ptr->sts_7to4 == 1){
 810079a:	4b74      	ldr	r3, [pc, #464]	@ (810096c <main+0x278>)
 810079c:	785b      	ldrb	r3, [r3, #1]
 810079e:	b2db      	uxtb	r3, r3
 81007a0:	2b01      	cmp	r3, #1
 81007a2:	d102      	bne.n	81007aa <main+0xb6>
		xfr_dataM4 = get_M7();
 81007a4:	f7ff ff28 	bl	81005f8 <get_M7>
 81007a8:	67f8      	str	r0, [r7, #124]	@ 0x7c
	  }
	  for(uint8_t i=0; i<12;i++){
 81007aa:	2300      	movs	r3, #0
 81007ac:	f887 307b 	strb.w	r3, [r7, #123]	@ 0x7b
 81007b0:	e011      	b.n	81007d6 <main+0xe2>
		Valores[i] = xfr_dataM4[i];
 81007b2:	f897 307b 	ldrb.w	r3, [r7, #123]	@ 0x7b
 81007b6:	009b      	lsls	r3, r3, #2
 81007b8:	6ffa      	ldr	r2, [r7, #124]	@ 0x7c
 81007ba:	441a      	add	r2, r3
 81007bc:	f897 307b 	ldrb.w	r3, [r7, #123]	@ 0x7b
 81007c0:	6812      	ldr	r2, [r2, #0]
 81007c2:	009b      	lsls	r3, r3, #2
 81007c4:	3380      	adds	r3, #128	@ 0x80
 81007c6:	443b      	add	r3, r7
 81007c8:	f843 2c48 	str.w	r2, [r3, #-72]
	  for(uint8_t i=0; i<12;i++){
 81007cc:	f897 307b 	ldrb.w	r3, [r7, #123]	@ 0x7b
 81007d0:	3301      	adds	r3, #1
 81007d2:	f887 307b 	strb.w	r3, [r7, #123]	@ 0x7b
 81007d6:	f897 307b 	ldrb.w	r3, [r7, #123]	@ 0x7b
 81007da:	2b0b      	cmp	r3, #11
 81007dc:	d9e9      	bls.n	81007b2 <main+0xbe>
	  }
	 for(uint8_t i=0; i<3;i++){
 81007de:	2300      	movs	r3, #0
 81007e0:	f887 307a 	strb.w	r3, [r7, #122]	@ 0x7a
 81007e4:	e090      	b.n	8100908 <main+0x214>
		 changeChannel(i);
 81007e6:	f897 307a 	ldrb.w	r3, [r7, #122]	@ 0x7a
 81007ea:	4618      	mov	r0, r3
 81007ec:	f7ff ff5e 	bl	81006ac <changeChannel>
		 for(uint8_t n=0; n<4;n++){
 81007f0:	2300      	movs	r3, #0
 81007f2:	f887 3079 	strb.w	r3, [r7, #121]	@ 0x79
 81007f6:	e015      	b.n	8100824 <main+0x130>
			 TxData[n+1] = Valores[n+i*4];
 81007f8:	f897 2079 	ldrb.w	r2, [r7, #121]	@ 0x79
 81007fc:	f897 307a 	ldrb.w	r3, [r7, #122]	@ 0x7a
 8100800:	009b      	lsls	r3, r3, #2
 8100802:	4413      	add	r3, r2
 8100804:	f897 2079 	ldrb.w	r2, [r7, #121]	@ 0x79
 8100808:	3201      	adds	r2, #1
 810080a:	009b      	lsls	r3, r3, #2
 810080c:	3380      	adds	r3, #128	@ 0x80
 810080e:	443b      	add	r3, r7
 8100810:	f853 3c48 	ldr.w	r3, [r3, #-72]
 8100814:	4957      	ldr	r1, [pc, #348]	@ (8100974 <main+0x280>)
 8100816:	f841 3022 	str.w	r3, [r1, r2, lsl #2]
		 for(uint8_t n=0; n<4;n++){
 810081a:	f897 3079 	ldrb.w	r3, [r7, #121]	@ 0x79
 810081e:	3301      	adds	r3, #1
 8100820:	f887 3079 	strb.w	r3, [r7, #121]	@ 0x79
 8100824:	f897 3079 	ldrb.w	r3, [r7, #121]	@ 0x79
 8100828:	2b03      	cmp	r3, #3
 810082a:	d9e5      	bls.n	81007f8 <main+0x104>
		 }
		 uint32_t Start = HAL_GetTick();
 810082c:	f000 fe9c 	bl	8101568 <HAL_GetTick>
 8100830:	6738      	str	r0, [r7, #112]	@ 0x70
		 ret = NRF_TransmitAndWait(TxData, sizeof(TxData));
 8100832:	2118      	movs	r1, #24
 8100834:	484f      	ldr	r0, [pc, #316]	@ (8100974 <main+0x280>)
 8100836:	f000 fca3 	bl	8101180 <NRF_TransmitAndWait>
 810083a:	4603      	mov	r3, r0
 810083c:	f887 3077 	strb.w	r3, [r7, #119]	@ 0x77
		 uint32_t End = HAL_GetTick();
 8100840:	f000 fe92 	bl	8101568 <HAL_GetTick>
 8100844:	66f8      	str	r0, [r7, #108]	@ 0x6c
		 acumulador[i]+= End - Start;
 8100846:	f897 307a 	ldrb.w	r3, [r7, #122]	@ 0x7a
 810084a:	009b      	lsls	r3, r3, #2
 810084c:	3380      	adds	r3, #128	@ 0x80
 810084e:	443b      	add	r3, r7
 8100850:	f853 1c78 	ldr.w	r1, [r3, #-120]
 8100854:	6efa      	ldr	r2, [r7, #108]	@ 0x6c
 8100856:	6f3b      	ldr	r3, [r7, #112]	@ 0x70
 8100858:	1ad2      	subs	r2, r2, r3
 810085a:	f897 307a 	ldrb.w	r3, [r7, #122]	@ 0x7a
 810085e:	440a      	add	r2, r1
 8100860:	009b      	lsls	r3, r3, #2
 8100862:	3380      	adds	r3, #128	@ 0x80
 8100864:	443b      	add	r3, r7
 8100866:	f843 2c78 	str.w	r2, [r3, #-120]
		 uint8_t ploss = NRF_ReadPacketLoss();
 810086a:	f000 fa7e 	bl	8100d6a <NRF_ReadPacketLoss>
 810086e:	4603      	mov	r3, r0
 8100870:	f887 306b 	strb.w	r3, [r7, #107]	@ 0x6b
		 Returns[i+3] = acumulador[i];
 8100874:	f897 307a 	ldrb.w	r3, [r7, #122]	@ 0x7a
 8100878:	009b      	lsls	r3, r3, #2
 810087a:	3380      	adds	r3, #128	@ 0x80
 810087c:	443b      	add	r3, r7
 810087e:	f853 2c78 	ldr.w	r2, [r3, #-120]
 8100882:	f897 307a 	ldrb.w	r3, [r7, #122]	@ 0x7a
 8100886:	3303      	adds	r3, #3
 8100888:	009b      	lsls	r3, r3, #2
 810088a:	3380      	adds	r3, #128	@ 0x80
 810088c:	443b      	add	r3, r7
 810088e:	f843 2c6c 	str.w	r2, [r3, #-108]
		 if(ret == NRF_OK){
 8100892:	f897 3077 	ldrb.w	r3, [r7, #119]	@ 0x77
 8100896:	2b00      	cmp	r3, #0
 8100898:	d121      	bne.n	81008de <main+0x1ea>

			 //Pino de confirmação
			 HAL_GPIO_TogglePin(GPIOB, GPIO_PIN_14);
 810089a:	f44f 4180 	mov.w	r1, #16384	@ 0x4000
 810089e:	4836      	ldr	r0, [pc, #216]	@ (8100978 <main+0x284>)
 81008a0:	f001 f953 	bl	8101b4a <HAL_GPIO_TogglePin>
			 //Lê o ACK payload e printa no serial
			 NRF_ReadPayload(&Returns[i],4); //Verificar este linhas !!!!!!!!!!!!!!!!!!!!
 81008a4:	f897 307a 	ldrb.w	r3, [r7, #122]	@ 0x7a
 81008a8:	f107 0214 	add.w	r2, r7, #20
 81008ac:	009b      	lsls	r3, r3, #2
 81008ae:	4413      	add	r3, r2
 81008b0:	2104      	movs	r1, #4
 81008b2:	4618      	mov	r0, r3
 81008b4:	f000 fc53 	bl	810115e <NRF_ReadPayload>

			 Returns[i+6] = ploss;
 81008b8:	f897 307a 	ldrb.w	r3, [r7, #122]	@ 0x7a
 81008bc:	3306      	adds	r3, #6
 81008be:	f897 206b 	ldrb.w	r2, [r7, #107]	@ 0x6b
 81008c2:	009b      	lsls	r3, r3, #2
 81008c4:	3380      	adds	r3, #128	@ 0x80
 81008c6:	443b      	add	r3, r7
 81008c8:	f843 2c6c 	str.w	r2, [r3, #-108]
			 acumulador[i] = 0;
 81008cc:	f897 307a 	ldrb.w	r3, [r7, #122]	@ 0x7a
 81008d0:	009b      	lsls	r3, r3, #2
 81008d2:	3380      	adds	r3, #128	@ 0x80
 81008d4:	443b      	add	r3, r7
 81008d6:	2200      	movs	r2, #0
 81008d8:	f843 2c78 	str.w	r2, [r3, #-120]
 81008dc:	e00c      	b.n	81008f8 <main+0x204>
		 } else if(ret == NRF_MAX_RT) {
 81008de:	f897 3077 	ldrb.w	r3, [r7, #119]	@ 0x77
 81008e2:	2b05      	cmp	r3, #5
 81008e4:	d104      	bne.n	81008f0 <main+0x1fc>
			 HAL_GPIO_TogglePin(GPIOE, GPIO_PIN_1);
 81008e6:	2102      	movs	r1, #2
 81008e8:	4824      	ldr	r0, [pc, #144]	@ (810097c <main+0x288>)
 81008ea:	f001 f92e 	bl	8101b4a <HAL_GPIO_TogglePin>
 81008ee:	e003      	b.n	81008f8 <main+0x204>

	 } else {
		 HAL_GPIO_TogglePin(GPIOB, GPIO_PIN_0);
 81008f0:	2101      	movs	r1, #1
 81008f2:	4821      	ldr	r0, [pc, #132]	@ (8100978 <main+0x284>)
 81008f4:	f001 f929 	bl	8101b4a <HAL_GPIO_TogglePin>
	 }
	HAL_Delay(1);
 81008f8:	2001      	movs	r0, #1
 81008fa:	f000 fe41 	bl	8101580 <HAL_Delay>
	 for(uint8_t i=0; i<3;i++){
 81008fe:	f897 307a 	ldrb.w	r3, [r7, #122]	@ 0x7a
 8100902:	3301      	adds	r3, #1
 8100904:	f887 307a 	strb.w	r3, [r7, #122]	@ 0x7a
 8100908:	f897 307a 	ldrb.w	r3, [r7, #122]	@ 0x7a
 810090c:	2b02      	cmp	r3, #2
 810090e:	f67f af6a 	bls.w	81007e6 <main+0xf2>
	 }
	 if(xfr_ptr->sts_4to7 == 0){
 8100912:	4b16      	ldr	r3, [pc, #88]	@ (810096c <main+0x278>)
 8100914:	781b      	ldrb	r3, [r3, #0]
 8100916:	b2db      	uxtb	r3, r3
 8100918:	2b00      	cmp	r3, #0
 810091a:	f47f af3e 	bne.w	810079a <main+0xa6>
	 		 for(uint8_t n = 0 ;n<9;n++){
 810091e:	2300      	movs	r3, #0
 8100920:	f887 3078 	strb.w	r3, [r7, #120]	@ 0x78
 8100924:	e011      	b.n	810094a <main+0x256>
	 			 xfr_ptr->M4toM7[n] = Returns[n];
 8100926:	f897 3078 	ldrb.w	r3, [r7, #120]	@ 0x78
 810092a:	4810      	ldr	r0, [pc, #64]	@ (810096c <main+0x278>)
 810092c:	f897 1078 	ldrb.w	r1, [r7, #120]	@ 0x78
 8100930:	009b      	lsls	r3, r3, #2
 8100932:	3380      	adds	r3, #128	@ 0x80
 8100934:	443b      	add	r3, r7
 8100936:	f853 2c6c 	ldr.w	r2, [r3, #-108]
 810093a:	008b      	lsls	r3, r1, #2
 810093c:	4403      	add	r3, r0
 810093e:	605a      	str	r2, [r3, #4]
	 		 for(uint8_t n = 0 ;n<9;n++){
 8100940:	f897 3078 	ldrb.w	r3, [r7, #120]	@ 0x78
 8100944:	3301      	adds	r3, #1
 8100946:	f887 3078 	strb.w	r3, [r7, #120]	@ 0x78
 810094a:	f897 3078 	ldrb.w	r3, [r7, #120]	@ 0x78
 810094e:	2b08      	cmp	r3, #8
 8100950:	d9e9      	bls.n	8100926 <main+0x232>
	 		 }
	 	 	 xfr_ptr->sts_4to7 = 1;
 8100952:	4b06      	ldr	r3, [pc, #24]	@ (810096c <main+0x278>)
 8100954:	2201      	movs	r2, #1
 8100956:	701a      	strb	r2, [r3, #0]
	 if(xfr_ptr->sts_7to4 == 1){
 8100958:	e71f      	b.n	810079a <main+0xa6>
 810095a:	bf00      	nop
 810095c:	58024400 	.word	0x58024400
 8100960:	e000ed00 	.word	0xe000ed00
 8100964:	58026400 	.word	0x58026400
 8100968:	10000008 	.word	0x10000008
 810096c:	38001000 	.word	0x38001000
 8100970:	08104a38 	.word	0x08104a38
 8100974:	10000010 	.word	0x10000010
 8100978:	58020400 	.word	0x58020400
 810097c:	58021000 	.word	0x58021000

08100980 <MX_SPI1_Init>:
  * @brief SPI1 Initialization Function
  * @param None
  * @retval None
  */
static void MX_SPI1_Init(void)
{
 8100980:	b580      	push	{r7, lr}
 8100982:	af00      	add	r7, sp, #0

  /* USER CODE BEGIN SPI1_Init 1 */

  /* USER CODE END SPI1_Init 1 */
  /* SPI1 parameter configuration*/
  hspi1.Instance = SPI1;
 8100984:	4b27      	ldr	r3, [pc, #156]	@ (8100a24 <MX_SPI1_Init+0xa4>)
 8100986:	4a28      	ldr	r2, [pc, #160]	@ (8100a28 <MX_SPI1_Init+0xa8>)
 8100988:	601a      	str	r2, [r3, #0]
  hspi1.Init.Mode = SPI_MODE_MASTER;
 810098a:	4b26      	ldr	r3, [pc, #152]	@ (8100a24 <MX_SPI1_Init+0xa4>)
 810098c:	f44f 0280 	mov.w	r2, #4194304	@ 0x400000
 8100990:	605a      	str	r2, [r3, #4]
  hspi1.Init.Direction = SPI_DIRECTION_2LINES;
 8100992:	4b24      	ldr	r3, [pc, #144]	@ (8100a24 <MX_SPI1_Init+0xa4>)
 8100994:	2200      	movs	r2, #0
 8100996:	609a      	str	r2, [r3, #8]
  hspi1.Init.DataSize = SPI_DATASIZE_8BIT;
 8100998:	4b22      	ldr	r3, [pc, #136]	@ (8100a24 <MX_SPI1_Init+0xa4>)
 810099a:	2207      	movs	r2, #7
 810099c:	60da      	str	r2, [r3, #12]
  hspi1.Init.CLKPolarity = SPI_POLARITY_LOW;
 810099e:	4b21      	ldr	r3, [pc, #132]	@ (8100a24 <MX_SPI1_Init+0xa4>)
 81009a0:	2200      	movs	r2, #0
 81009a2:	611a      	str	r2, [r3, #16]
  hspi1.Init.CLKPhase = SPI_PHASE_1EDGE;
 81009a4:	4b1f      	ldr	r3, [pc, #124]	@ (8100a24 <MX_SPI1_Init+0xa4>)
 81009a6:	2200      	movs	r2, #0
 81009a8:	615a      	str	r2, [r3, #20]
  hspi1.Init.NSS = SPI_NSS_SOFT;
 81009aa:	4b1e      	ldr	r3, [pc, #120]	@ (8100a24 <MX_SPI1_Init+0xa4>)
 81009ac:	f04f 6280 	mov.w	r2, #67108864	@ 0x4000000
 81009b0:	619a      	str	r2, [r3, #24]
  hspi1.Init.BaudRatePrescaler = SPI_BAUDRATEPRESCALER_16;
 81009b2:	4b1c      	ldr	r3, [pc, #112]	@ (8100a24 <MX_SPI1_Init+0xa4>)
 81009b4:	f04f 5240 	mov.w	r2, #805306368	@ 0x30000000
 81009b8:	61da      	str	r2, [r3, #28]
  hspi1.Init.FirstBit = SPI_FIRSTBIT_MSB;
 81009ba:	4b1a      	ldr	r3, [pc, #104]	@ (8100a24 <MX_SPI1_Init+0xa4>)
 81009bc:	2200      	movs	r2, #0
 81009be:	621a      	str	r2, [r3, #32]
  hspi1.Init.TIMode = SPI_TIMODE_DISABLE;
 81009c0:	4b18      	ldr	r3, [pc, #96]	@ (8100a24 <MX_SPI1_Init+0xa4>)
 81009c2:	2200      	movs	r2, #0
 81009c4:	625a      	str	r2, [r3, #36]	@ 0x24
  hspi1.Init.CRCCalculation = SPI_CRCCALCULATION_DISABLE;
 81009c6:	4b17      	ldr	r3, [pc, #92]	@ (8100a24 <MX_SPI1_Init+0xa4>)
 81009c8:	2200      	movs	r2, #0
 81009ca:	629a      	str	r2, [r3, #40]	@ 0x28
  hspi1.Init.CRCPolynomial = 0x0;
 81009cc:	4b15      	ldr	r3, [pc, #84]	@ (8100a24 <MX_SPI1_Init+0xa4>)
 81009ce:	2200      	movs	r2, #0
 81009d0:	62da      	str	r2, [r3, #44]	@ 0x2c
  hspi1.Init.NSSPMode = SPI_NSS_PULSE_DISABLE;
 81009d2:	4b14      	ldr	r3, [pc, #80]	@ (8100a24 <MX_SPI1_Init+0xa4>)
 81009d4:	2200      	movs	r2, #0
 81009d6:	635a      	str	r2, [r3, #52]	@ 0x34
  hspi1.Init.NSSPolarity = SPI_NSS_POLARITY_LOW;
 81009d8:	4b12      	ldr	r3, [pc, #72]	@ (8100a24 <MX_SPI1_Init+0xa4>)
 81009da:	2200      	movs	r2, #0
 81009dc:	639a      	str	r2, [r3, #56]	@ 0x38
  hspi1.Init.FifoThreshold = SPI_FIFO_THRESHOLD_01DATA;
 81009de:	4b11      	ldr	r3, [pc, #68]	@ (8100a24 <MX_SPI1_Init+0xa4>)
 81009e0:	2200      	movs	r2, #0
 81009e2:	63da      	str	r2, [r3, #60]	@ 0x3c
  hspi1.Init.TxCRCInitializationPattern = SPI_CRC_INITIALIZATION_ALL_ZERO_PATTERN;
 81009e4:	4b0f      	ldr	r3, [pc, #60]	@ (8100a24 <MX_SPI1_Init+0xa4>)
 81009e6:	2200      	movs	r2, #0
 81009e8:	641a      	str	r2, [r3, #64]	@ 0x40
  hspi1.Init.RxCRCInitializationPattern = SPI_CRC_INITIALIZATION_ALL_ZERO_PATTERN;
 81009ea:	4b0e      	ldr	r3, [pc, #56]	@ (8100a24 <MX_SPI1_Init+0xa4>)
 81009ec:	2200      	movs	r2, #0
 81009ee:	645a      	str	r2, [r3, #68]	@ 0x44
  hspi1.Init.MasterSSIdleness = SPI_MASTER_SS_IDLENESS_00CYCLE;
 81009f0:	4b0c      	ldr	r3, [pc, #48]	@ (8100a24 <MX_SPI1_Init+0xa4>)
 81009f2:	2200      	movs	r2, #0
 81009f4:	649a      	str	r2, [r3, #72]	@ 0x48
  hspi1.Init.MasterInterDataIdleness = SPI_MASTER_INTERDATA_IDLENESS_00CYCLE;
 81009f6:	4b0b      	ldr	r3, [pc, #44]	@ (8100a24 <MX_SPI1_Init+0xa4>)
 81009f8:	2200      	movs	r2, #0
 81009fa:	64da      	str	r2, [r3, #76]	@ 0x4c
  hspi1.Init.MasterReceiverAutoSusp = SPI_MASTER_RX_AUTOSUSP_DISABLE;
 81009fc:	4b09      	ldr	r3, [pc, #36]	@ (8100a24 <MX_SPI1_Init+0xa4>)
 81009fe:	2200      	movs	r2, #0
 8100a00:	651a      	str	r2, [r3, #80]	@ 0x50
  hspi1.Init.MasterKeepIOState = SPI_MASTER_KEEP_IO_STATE_ENABLE;
 8100a02:	4b08      	ldr	r3, [pc, #32]	@ (8100a24 <MX_SPI1_Init+0xa4>)
 8100a04:	f04f 4200 	mov.w	r2, #2147483648	@ 0x80000000
 8100a08:	655a      	str	r2, [r3, #84]	@ 0x54
  hspi1.Init.IOSwap = SPI_IO_SWAP_DISABLE;
 8100a0a:	4b06      	ldr	r3, [pc, #24]	@ (8100a24 <MX_SPI1_Init+0xa4>)
 8100a0c:	2200      	movs	r2, #0
 8100a0e:	659a      	str	r2, [r3, #88]	@ 0x58
  if (HAL_SPI_Init(&hspi1) != HAL_OK)
 8100a10:	4804      	ldr	r0, [pc, #16]	@ (8100a24 <MX_SPI1_Init+0xa4>)
 8100a12:	f002 fe37 	bl	8103684 <HAL_SPI_Init>
 8100a16:	4603      	mov	r3, r0
 8100a18:	2b00      	cmp	r3, #0
 8100a1a:	d001      	beq.n	8100a20 <MX_SPI1_Init+0xa0>
  {
    Error_Handler();
 8100a1c:	f000 f85c 	bl	8100ad8 <Error_Handler>
  }
  /* USER CODE BEGIN SPI1_Init 2 */

  /* USER CODE END SPI1_Init 2 */

}
 8100a20:	bf00      	nop
 8100a22:	bd80      	pop	{r7, pc}
 8100a24:	1000004c 	.word	0x1000004c
 8100a28:	40013000 	.word	0x40013000

08100a2c <MX_GPIO_Init>:
  * @brief GPIO Initialization Function
  * @param None
  * @retval None
  */
static void MX_GPIO_Init(void)
{
 8100a2c:	b580      	push	{r7, lr}
 8100a2e:	b088      	sub	sp, #32
 8100a30:	af00      	add	r7, sp, #0
  GPIO_InitTypeDef GPIO_InitStruct = {0};
 8100a32:	f107 030c 	add.w	r3, r7, #12
 8100a36:	2200      	movs	r2, #0
 8100a38:	601a      	str	r2, [r3, #0]
 8100a3a:	605a      	str	r2, [r3, #4]
 8100a3c:	609a      	str	r2, [r3, #8]
 8100a3e:	60da      	str	r2, [r3, #12]
 8100a40:	611a      	str	r2, [r3, #16]
/* USER CODE BEGIN MX_GPIO_Init_1 */
/* USER CODE END MX_GPIO_Init_1 */

  /* GPIO Ports Clock Enable */
  __HAL_RCC_GPIOA_CLK_ENABLE();
 8100a42:	4b23      	ldr	r3, [pc, #140]	@ (8100ad0 <MX_GPIO_Init+0xa4>)
 8100a44:	f8d3 30e0 	ldr.w	r3, [r3, #224]	@ 0xe0
 8100a48:	4a21      	ldr	r2, [pc, #132]	@ (8100ad0 <MX_GPIO_Init+0xa4>)
 8100a4a:	f043 0301 	orr.w	r3, r3, #1
 8100a4e:	f8c2 30e0 	str.w	r3, [r2, #224]	@ 0xe0
 8100a52:	4b1f      	ldr	r3, [pc, #124]	@ (8100ad0 <MX_GPIO_Init+0xa4>)
 8100a54:	f8d3 30e0 	ldr.w	r3, [r3, #224]	@ 0xe0
 8100a58:	f003 0301 	and.w	r3, r3, #1
 8100a5c:	60bb      	str	r3, [r7, #8]
 8100a5e:	68bb      	ldr	r3, [r7, #8]
  __HAL_RCC_GPIOD_CLK_ENABLE();
 8100a60:	4b1b      	ldr	r3, [pc, #108]	@ (8100ad0 <MX_GPIO_Init+0xa4>)
 8100a62:	f8d3 30e0 	ldr.w	r3, [r3, #224]	@ 0xe0
 8100a66:	4a1a      	ldr	r2, [pc, #104]	@ (8100ad0 <MX_GPIO_Init+0xa4>)
 8100a68:	f043 0308 	orr.w	r3, r3, #8
 8100a6c:	f8c2 30e0 	str.w	r3, [r2, #224]	@ 0xe0
 8100a70:	4b17      	ldr	r3, [pc, #92]	@ (8100ad0 <MX_GPIO_Init+0xa4>)
 8100a72:	f8d3 30e0 	ldr.w	r3, [r3, #224]	@ 0xe0
 8100a76:	f003 0308 	and.w	r3, r3, #8
 8100a7a:	607b      	str	r3, [r7, #4]
 8100a7c:	687b      	ldr	r3, [r7, #4]
  __HAL_RCC_GPIOG_CLK_ENABLE();
 8100a7e:	4b14      	ldr	r3, [pc, #80]	@ (8100ad0 <MX_GPIO_Init+0xa4>)
 8100a80:	f8d3 30e0 	ldr.w	r3, [r3, #224]	@ 0xe0
 8100a84:	4a12      	ldr	r2, [pc, #72]	@ (8100ad0 <MX_GPIO_Init+0xa4>)
 8100a86:	f043 0340 	orr.w	r3, r3, #64	@ 0x40
 8100a8a:	f8c2 30e0 	str.w	r3, [r2, #224]	@ 0xe0
 8100a8e:	4b10      	ldr	r3, [pc, #64]	@ (8100ad0 <MX_GPIO_Init+0xa4>)
 8100a90:	f8d3 30e0 	ldr.w	r3, [r3, #224]	@ 0xe0
 8100a94:	f003 0340 	and.w	r3, r3, #64	@ 0x40
 8100a98:	603b      	str	r3, [r7, #0]
 8100a9a:	683b      	ldr	r3, [r7, #0]

  /*Configure GPIO pin Output Level */
  HAL_GPIO_WritePin(GPIOG, CS_Pin|CE_Pin, GPIO_PIN_RESET);
 8100a9c:	2200      	movs	r2, #0
 8100a9e:	f44f 41a0 	mov.w	r1, #20480	@ 0x5000
 8100aa2:	480c      	ldr	r0, [pc, #48]	@ (8100ad4 <MX_GPIO_Init+0xa8>)
 8100aa4:	f001 f838 	bl	8101b18 <HAL_GPIO_WritePin>

  /*Configure GPIO pins : CS_Pin CE_Pin */
  GPIO_InitStruct.Pin = CS_Pin|CE_Pin;
 8100aa8:	f44f 43a0 	mov.w	r3, #20480	@ 0x5000
 8100aac:	60fb      	str	r3, [r7, #12]
  GPIO_InitStruct.Mode = GPIO_MODE_OUTPUT_PP;
 8100aae:	2301      	movs	r3, #1
 8100ab0:	613b      	str	r3, [r7, #16]
  GPIO_InitStruct.Pull = GPIO_NOPULL;
 8100ab2:	2300      	movs	r3, #0
 8100ab4:	617b      	str	r3, [r7, #20]
  GPIO_InitStruct.Speed = GPIO_SPEED_FREQ_LOW;
 8100ab6:	2300      	movs	r3, #0
 8100ab8:	61bb      	str	r3, [r7, #24]
  HAL_GPIO_Init(GPIOG, &GPIO_InitStruct);
 8100aba:	f107 030c 	add.w	r3, r7, #12
 8100abe:	4619      	mov	r1, r3
 8100ac0:	4804      	ldr	r0, [pc, #16]	@ (8100ad4 <MX_GPIO_Init+0xa8>)
 8100ac2:	f000 fe79 	bl	81017b8 <HAL_GPIO_Init>

/* USER CODE BEGIN MX_GPIO_Init_2 */
/* USER CODE END MX_GPIO_Init_2 */
}
 8100ac6:	bf00      	nop
 8100ac8:	3720      	adds	r7, #32
 8100aca:	46bd      	mov	sp, r7
 8100acc:	bd80      	pop	{r7, pc}
 8100ace:	bf00      	nop
 8100ad0:	58024400 	.word	0x58024400
 8100ad4:	58021800 	.word	0x58021800

08100ad8 <Error_Handler>:
/**
  * @brief  This function is executed in case of error occurrence.
  * @retval None
  */
void Error_Handler(void)
{
 8100ad8:	b480      	push	{r7}
 8100ada:	af00      	add	r7, sp, #0
  \details Disables IRQ interrupts by setting the I-bit in the CPSR.
           Can only be executed in Privileged modes.
 */
__STATIC_FORCEINLINE void __disable_irq(void)
{
  __ASM volatile ("cpsid i" : : : "memory");
 8100adc:	b672      	cpsid	i
}
 8100ade:	bf00      	nop
  /* USER CODE BEGIN Error_Handler_Debug */
  /* User can add his own implementation to report the HAL error return state */
  __disable_irq();
  while (1)
 8100ae0:	bf00      	nop
 8100ae2:	e7fd      	b.n	8100ae0 <Error_Handler+0x8>

08100ae4 <csn_set>:
int current_mode = NRF_MODE_POWERDOWN; // Modo atual do NRF

/* Funções de Pinagem do NRF*/

//Pino CS em Alto (Dispositivo não está conversando com o uC)
void csn_set() {
 8100ae4:	b580      	push	{r7, lr}
 8100ae6:	af00      	add	r7, sp, #0
  HAL_GPIO_WritePin(NRF_CSN_Port, NRF_CSN_Pin, GPIO_PIN_SET);
 8100ae8:	4b04      	ldr	r3, [pc, #16]	@ (8100afc <csn_set+0x18>)
 8100aea:	681b      	ldr	r3, [r3, #0]
 8100aec:	4a04      	ldr	r2, [pc, #16]	@ (8100b00 <csn_set+0x1c>)
 8100aee:	8811      	ldrh	r1, [r2, #0]
 8100af0:	2201      	movs	r2, #1
 8100af2:	4618      	mov	r0, r3
 8100af4:	f001 f810 	bl	8101b18 <HAL_GPIO_WritePin>
}
 8100af8:	bf00      	nop
 8100afa:	bd80      	pop	{r7, pc}
 8100afc:	10000108 	.word	0x10000108
 8100b00:	1000010c 	.word	0x1000010c

08100b04 <csn_reset>:

//Pino CS em Baixo (Dispositivo  está conversando com o uC)
void csn_reset() {
 8100b04:	b580      	push	{r7, lr}
 8100b06:	af00      	add	r7, sp, #0
  HAL_GPIO_WritePin(NRF_CSN_Port, NRF_CSN_Pin, GPIO_PIN_RESET);
 8100b08:	4b04      	ldr	r3, [pc, #16]	@ (8100b1c <csn_reset+0x18>)
 8100b0a:	681b      	ldr	r3, [r3, #0]
 8100b0c:	4a04      	ldr	r2, [pc, #16]	@ (8100b20 <csn_reset+0x1c>)
 8100b0e:	8811      	ldrh	r1, [r2, #0]
 8100b10:	2200      	movs	r2, #0
 8100b12:	4618      	mov	r0, r3
 8100b14:	f001 f800 	bl	8101b18 <HAL_GPIO_WritePin>
}
 8100b18:	bf00      	nop
 8100b1a:	bd80      	pop	{r7, pc}
 8100b1c:	10000108 	.word	0x10000108
 8100b20:	1000010c 	.word	0x1000010c

08100b24 <ce_set>:

//Pino CE em Alto (Dispositivo está em funcionamento,Tx ou Rx)
void ce_set() {
 8100b24:	b580      	push	{r7, lr}
 8100b26:	af00      	add	r7, sp, #0
  HAL_GPIO_WritePin(NRF_CE_Port, NRF_CE_Pin, GPIO_PIN_SET);
 8100b28:	4b04      	ldr	r3, [pc, #16]	@ (8100b3c <ce_set+0x18>)
 8100b2a:	681b      	ldr	r3, [r3, #0]
 8100b2c:	4a04      	ldr	r2, [pc, #16]	@ (8100b40 <ce_set+0x1c>)
 8100b2e:	8811      	ldrh	r1, [r2, #0]
 8100b30:	2201      	movs	r2, #1
 8100b32:	4618      	mov	r0, r3
 8100b34:	f000 fff0 	bl	8101b18 <HAL_GPIO_WritePin>
}
 8100b38:	bf00      	nop
 8100b3a:	bd80      	pop	{r7, pc}
 8100b3c:	10000110 	.word	0x10000110
 8100b40:	10000114 	.word	0x10000114

08100b44 <ce_reset>:

//Pino CE em Baixo (Dispositivo está em standby)
void ce_reset() {
 8100b44:	b580      	push	{r7, lr}
 8100b46:	af00      	add	r7, sp, #0
  HAL_GPIO_WritePin(NRF_CE_Port, NRF_CE_Pin, GPIO_PIN_RESET);
 8100b48:	4b04      	ldr	r3, [pc, #16]	@ (8100b5c <ce_reset+0x18>)
 8100b4a:	681b      	ldr	r3, [r3, #0]
 8100b4c:	4a04      	ldr	r2, [pc, #16]	@ (8100b60 <ce_reset+0x1c>)
 8100b4e:	8811      	ldrh	r1, [r2, #0]
 8100b50:	2200      	movs	r2, #0
 8100b52:	4618      	mov	r0, r3
 8100b54:	f000 ffe0 	bl	8101b18 <HAL_GPIO_WritePin>
}
 8100b58:	bf00      	nop
 8100b5a:	bd80      	pop	{r7, pc}
 8100b5c:	10000110 	.word	0x10000110
 8100b60:	10000114 	.word	0x10000114

08100b64 <wait>:
uint8_t read_ce() {
  return HAL_GPIO_ReadPin(NRF_CE_Port, NRF_CE_Pin);
}

//Função de "Esperar" em us
void wait(uint64_t us) {
 8100b64:	b5b0      	push	{r4, r5, r7, lr}
 8100b66:	b084      	sub	sp, #16
 8100b68:	af00      	add	r7, sp, #0
 8100b6a:	e9c7 0100 	strd	r0, r1, [r7]
  uint32_t volatile cycles = CPU_Freq * us / 1000000; //Quantos ciclos de CPU deverão ser esperados para alcancar tal tempo
 8100b6e:	4915      	ldr	r1, [pc, #84]	@ (8100bc4 <wait+0x60>)
 8100b70:	6809      	ldr	r1, [r1, #0]
 8100b72:	2000      	movs	r0, #0
 8100b74:	460a      	mov	r2, r1
 8100b76:	4603      	mov	r3, r0
 8100b78:	6839      	ldr	r1, [r7, #0]
 8100b7a:	fb03 f001 	mul.w	r0, r3, r1
 8100b7e:	6879      	ldr	r1, [r7, #4]
 8100b80:	fb02 f101 	mul.w	r1, r2, r1
 8100b84:	4401      	add	r1, r0
 8100b86:	6838      	ldr	r0, [r7, #0]
 8100b88:	fba0 4502 	umull	r4, r5, r0, r2
 8100b8c:	194b      	adds	r3, r1, r5
 8100b8e:	461d      	mov	r5, r3
 8100b90:	4a0d      	ldr	r2, [pc, #52]	@ (8100bc8 <wait+0x64>)
 8100b92:	f04f 0300 	mov.w	r3, #0
 8100b96:	4620      	mov	r0, r4
 8100b98:	4629      	mov	r1, r5
 8100b9a:	f7ff fb9d 	bl	81002d8 <__aeabi_uldivmod>
 8100b9e:	4602      	mov	r2, r0
 8100ba0:	460b      	mov	r3, r1
 8100ba2:	4613      	mov	r3, r2
 8100ba4:	60fb      	str	r3, [r7, #12]
  uint32_t volatile current = 0; //Quantos se passaram
 8100ba6:	2300      	movs	r3, #0
 8100ba8:	60bb      	str	r3, [r7, #8]
  while (current <= cycles) {
 8100baa:	e002      	b.n	8100bb2 <wait+0x4e>
    current++;
 8100bac:	68bb      	ldr	r3, [r7, #8]
 8100bae:	3301      	adds	r3, #1
 8100bb0:	60bb      	str	r3, [r7, #8]
  while (current <= cycles) {
 8100bb2:	68ba      	ldr	r2, [r7, #8]
 8100bb4:	68fb      	ldr	r3, [r7, #12]
 8100bb6:	429a      	cmp	r2, r3
 8100bb8:	d9f8      	bls.n	8100bac <wait+0x48>
  }
}
 8100bba:	bf00      	nop
 8100bbc:	bf00      	nop
 8100bbe:	3710      	adds	r7, #16
 8100bc0:	46bd      	mov	sp, r7
 8100bc2:	bdb0      	pop	{r4, r5, r7, pc}
 8100bc4:	10000118 	.word	0x10000118
 8100bc8:	000f4240 	.word	0x000f4240

08100bcc <NRF_SendCommand>:

/* Funções Para enviar e receber do NRFL01 em "Baixo" Nível */

//Função para enviar um comando para o NRF
NRF_Status NRF_SendCommand(uint8_t cmd) {
 8100bcc:	b580      	push	{r7, lr}
 8100bce:	b086      	sub	sp, #24
 8100bd0:	af02      	add	r7, sp, #8
 8100bd2:	4603      	mov	r3, r0
 8100bd4:	71fb      	strb	r3, [r7, #7]
  NRF_Status ret = NRF_OK;
 8100bd6:	2300      	movs	r3, #0
 8100bd8:	73fb      	strb	r3, [r7, #15]
  uint8_t status;

  csn_reset(); //Seleciona o dispositivo
 8100bda:	f7ff ff93 	bl	8100b04 <csn_reset>
  ret = (NRF_Status)HAL_SPI_TransmitReceive(HSPI, &cmd, &status, 1, NRF_SPI_TIMEOUT_DUR); //Envia o comando e retorna o status
 8100bde:	4b0c      	ldr	r3, [pc, #48]	@ (8100c10 <NRF_SendCommand+0x44>)
 8100be0:	6818      	ldr	r0, [r3, #0]
 8100be2:	f107 020e 	add.w	r2, r7, #14
 8100be6:	1df9      	adds	r1, r7, #7
 8100be8:	230a      	movs	r3, #10
 8100bea:	9300      	str	r3, [sp, #0]
 8100bec:	2301      	movs	r3, #1
 8100bee:	f003 fac9 	bl	8104184 <HAL_SPI_TransmitReceive>
 8100bf2:	4603      	mov	r3, r0
 8100bf4:	73fb      	strb	r3, [r7, #15]
  if (ret != NRF_OK) { //Verifica se o comando foi enviado corretamente
 8100bf6:	7bfb      	ldrb	r3, [r7, #15]
 8100bf8:	2b00      	cmp	r3, #0
 8100bfa:	d001      	beq.n	8100c00 <NRF_SendCommand+0x34>
    return ret;
 8100bfc:	7bfb      	ldrb	r3, [r7, #15]
 8100bfe:	e002      	b.n	8100c06 <NRF_SendCommand+0x3a>
  }
  csn_set(); //Desseleciona o dispositivo
 8100c00:	f7ff ff70 	bl	8100ae4 <csn_set>

  return ret;
 8100c04:	7bfb      	ldrb	r3, [r7, #15]
}
 8100c06:	4618      	mov	r0, r3
 8100c08:	3710      	adds	r7, #16
 8100c0a:	46bd      	mov	sp, r7
 8100c0c:	bd80      	pop	{r7, pc}
 8100c0e:	bf00      	nop
 8100c10:	10000104 	.word	0x10000104

08100c14 <NRF_SendWriteCommand>:

/* Função para enviar um comando de escrita*/
NRF_Status NRF_SendWriteCommand(uint8_t cmd, uint8_t *write, uint8_t length) {
 8100c14:	b580      	push	{r7, lr}
 8100c16:	b086      	sub	sp, #24
 8100c18:	af02      	add	r7, sp, #8
 8100c1a:	4603      	mov	r3, r0
 8100c1c:	6039      	str	r1, [r7, #0]
 8100c1e:	71fb      	strb	r3, [r7, #7]
 8100c20:	4613      	mov	r3, r2
 8100c22:	71bb      	strb	r3, [r7, #6]
  NRF_Status ret = NRF_OK;
 8100c24:	2300      	movs	r3, #0
 8100c26:	73fb      	strb	r3, [r7, #15]
  uint8_t status;

  csn_reset(); //Seleciona o dispositivo
 8100c28:	f7ff ff6c 	bl	8100b04 <csn_reset>
  ret = (NRF_Status)HAL_SPI_TransmitReceive(HSPI, &cmd, &status, 1, NRF_SPI_TIMEOUT_DUR); //Manda pro NRF o comando de escrita
 8100c2c:	4b13      	ldr	r3, [pc, #76]	@ (8100c7c <NRF_SendWriteCommand+0x68>)
 8100c2e:	6818      	ldr	r0, [r3, #0]
 8100c30:	f107 020e 	add.w	r2, r7, #14
 8100c34:	1df9      	adds	r1, r7, #7
 8100c36:	230a      	movs	r3, #10
 8100c38:	9300      	str	r3, [sp, #0]
 8100c3a:	2301      	movs	r3, #1
 8100c3c:	f003 faa2 	bl	8104184 <HAL_SPI_TransmitReceive>
 8100c40:	4603      	mov	r3, r0
 8100c42:	73fb      	strb	r3, [r7, #15]
  if (ret != NRF_OK) { //Verifica se está ok para escrever
 8100c44:	7bfb      	ldrb	r3, [r7, #15]
 8100c46:	2b00      	cmp	r3, #0
 8100c48:	d001      	beq.n	8100c4e <NRF_SendWriteCommand+0x3a>
	//HAL_GPIO_TogglePin(GPIOB, GPIO_PIN_14);
    return ret;
 8100c4a:	7bfb      	ldrb	r3, [r7, #15]
 8100c4c:	e011      	b.n	8100c72 <NRF_SendWriteCommand+0x5e>
  }
  ret = (NRF_Status)HAL_SPI_Transmit(HSPI, write, length, NRF_SPI_TIMEOUT_DUR); //Manda  o que será escrito no registro
 8100c4e:	4b0b      	ldr	r3, [pc, #44]	@ (8100c7c <NRF_SendWriteCommand+0x68>)
 8100c50:	6818      	ldr	r0, [r3, #0]
 8100c52:	79bb      	ldrb	r3, [r7, #6]
 8100c54:	b29a      	uxth	r2, r3
 8100c56:	230a      	movs	r3, #10
 8100c58:	6839      	ldr	r1, [r7, #0]
 8100c5a:	f002 fe37 	bl	81038cc <HAL_SPI_Transmit>
 8100c5e:	4603      	mov	r3, r0
 8100c60:	73fb      	strb	r3, [r7, #15]
  if (ret != NRF_OK) {//Verifica se o processo foi um sucesso
 8100c62:	7bfb      	ldrb	r3, [r7, #15]
 8100c64:	2b00      	cmp	r3, #0
 8100c66:	d001      	beq.n	8100c6c <NRF_SendWriteCommand+0x58>
    return ret;
 8100c68:	7bfb      	ldrb	r3, [r7, #15]
 8100c6a:	e002      	b.n	8100c72 <NRF_SendWriteCommand+0x5e>
  }
  csn_set(); //Desseleciona o dispositivo
 8100c6c:	f7ff ff3a 	bl	8100ae4 <csn_set>

  return ret; //Retorna o Resultado
 8100c70:	7bfb      	ldrb	r3, [r7, #15]
}
 8100c72:	4618      	mov	r0, r3
 8100c74:	3710      	adds	r7, #16
 8100c76:	46bd      	mov	sp, r7
 8100c78:	bd80      	pop	{r7, pc}
 8100c7a:	bf00      	nop
 8100c7c:	10000104 	.word	0x10000104

08100c80 <NRF_SendReadCommand>:

//Função para enviar um comando de leitura
NRF_Status NRF_SendReadCommand(uint8_t cmd, uint8_t *read, uint8_t length) {
 8100c80:	b580      	push	{r7, lr}
 8100c82:	b086      	sub	sp, #24
 8100c84:	af02      	add	r7, sp, #8
 8100c86:	4603      	mov	r3, r0
 8100c88:	6039      	str	r1, [r7, #0]
 8100c8a:	71fb      	strb	r3, [r7, #7]
 8100c8c:	4613      	mov	r3, r2
 8100c8e:	71bb      	strb	r3, [r7, #6]
  NRF_Status ret = NRF_OK;
 8100c90:	2300      	movs	r3, #0
 8100c92:	73fb      	strb	r3, [r7, #15]
  uint8_t status;

  csn_reset(); //Seleciona o dispositivo
 8100c94:	f7ff ff36 	bl	8100b04 <csn_reset>
  ret = (NRF_Status)HAL_SPI_TransmitReceive(HSPI, &cmd, &status, 1, NRF_SPI_TIMEOUT_DUR);//Manda pro NRF o comando de Leitura
 8100c98:	4b13      	ldr	r3, [pc, #76]	@ (8100ce8 <NRF_SendReadCommand+0x68>)
 8100c9a:	6818      	ldr	r0, [r3, #0]
 8100c9c:	f107 020e 	add.w	r2, r7, #14
 8100ca0:	1df9      	adds	r1, r7, #7
 8100ca2:	230a      	movs	r3, #10
 8100ca4:	9300      	str	r3, [sp, #0]
 8100ca6:	2301      	movs	r3, #1
 8100ca8:	f003 fa6c 	bl	8104184 <HAL_SPI_TransmitReceive>
 8100cac:	4603      	mov	r3, r0
 8100cae:	73fb      	strb	r3, [r7, #15]
  if(ret != NRF_OK) { //Verifica se o processo foi um sucesso
 8100cb0:	7bfb      	ldrb	r3, [r7, #15]
 8100cb2:	2b00      	cmp	r3, #0
 8100cb4:	d001      	beq.n	8100cba <NRF_SendReadCommand+0x3a>
    return ret;
 8100cb6:	7bfb      	ldrb	r3, [r7, #15]
 8100cb8:	e011      	b.n	8100cde <NRF_SendReadCommand+0x5e>
  }
  ret = (NRF_Status)HAL_SPI_Receive(HSPI, read, length, NRF_SPI_TIMEOUT_DUR);//Recebe o que se deseja ler do NRF
 8100cba:	4b0b      	ldr	r3, [pc, #44]	@ (8100ce8 <NRF_SendReadCommand+0x68>)
 8100cbc:	6818      	ldr	r0, [r3, #0]
 8100cbe:	79bb      	ldrb	r3, [r7, #6]
 8100cc0:	b29a      	uxth	r2, r3
 8100cc2:	230a      	movs	r3, #10
 8100cc4:	6839      	ldr	r1, [r7, #0]
 8100cc6:	f002 ffec 	bl	8103ca2 <HAL_SPI_Receive>
 8100cca:	4603      	mov	r3, r0
 8100ccc:	73fb      	strb	r3, [r7, #15]
  if(ret != NRF_OK) {
 8100cce:	7bfb      	ldrb	r3, [r7, #15]
 8100cd0:	2b00      	cmp	r3, #0
 8100cd2:	d001      	beq.n	8100cd8 <NRF_SendReadCommand+0x58>
    return ret;
 8100cd4:	7bfb      	ldrb	r3, [r7, #15]
 8100cd6:	e002      	b.n	8100cde <NRF_SendReadCommand+0x5e>
  }
  csn_set();//Desseleciona o dispositvo
 8100cd8:	f7ff ff04 	bl	8100ae4 <csn_set>

  return ret;//Retorna o resultado
 8100cdc:	7bfb      	ldrb	r3, [r7, #15]
}
 8100cde:	4618      	mov	r0, r3
 8100ce0:	3710      	adds	r7, #16
 8100ce2:	46bd      	mov	sp, r7
 8100ce4:	bd80      	pop	{r7, pc}
 8100ce6:	bf00      	nop
 8100ce8:	10000104 	.word	0x10000104

08100cec <NRF_WriteRegister>:
/* Escreve no Registro do NRF
 * Param - Registro a ser escrito
 * Param - O que será escrito
 * Param - O tamanho (em bytes)
 *  							*/
NRF_Status NRF_WriteRegister(uint8_t reg, uint8_t *write, uint8_t length) {
 8100cec:	b580      	push	{r7, lr}
 8100cee:	b082      	sub	sp, #8
 8100cf0:	af00      	add	r7, sp, #0
 8100cf2:	4603      	mov	r3, r0
 8100cf4:	6039      	str	r1, [r7, #0]
 8100cf6:	71fb      	strb	r3, [r7, #7]
 8100cf8:	4613      	mov	r3, r2
 8100cfa:	71bb      	strb	r3, [r7, #6]
  return NRF_SendWriteCommand(NRF_CMD_W_REGISTER | reg, write, length);
 8100cfc:	79fb      	ldrb	r3, [r7, #7]
 8100cfe:	f043 0320 	orr.w	r3, r3, #32
 8100d02:	b2db      	uxtb	r3, r3
 8100d04:	79ba      	ldrb	r2, [r7, #6]
 8100d06:	6839      	ldr	r1, [r7, #0]
 8100d08:	4618      	mov	r0, r3
 8100d0a:	f7ff ff83 	bl	8100c14 <NRF_SendWriteCommand>
 8100d0e:	4603      	mov	r3, r0
}
 8100d10:	4618      	mov	r0, r3
 8100d12:	3708      	adds	r7, #8
 8100d14:	46bd      	mov	sp, r7
 8100d16:	bd80      	pop	{r7, pc}

08100d18 <NRF_WriteRegisterByte>:

/* Escreve em um byte da Memória do NRF
 * Param - Registro a ser escrito
 * Param - O que será escrito
 *  							*/
NRF_Status NRF_WriteRegisterByte(uint8_t reg, uint8_t byte) {
 8100d18:	b580      	push	{r7, lr}
 8100d1a:	b084      	sub	sp, #16
 8100d1c:	af00      	add	r7, sp, #0
 8100d1e:	4603      	mov	r3, r0
 8100d20:	460a      	mov	r2, r1
 8100d22:	71fb      	strb	r3, [r7, #7]
 8100d24:	4613      	mov	r3, r2
 8100d26:	71bb      	strb	r3, [r7, #6]
  uint8_t write = byte;
 8100d28:	79bb      	ldrb	r3, [r7, #6]
 8100d2a:	73fb      	strb	r3, [r7, #15]
  return NRF_WriteRegister(reg, &write, 1);
 8100d2c:	f107 010f 	add.w	r1, r7, #15
 8100d30:	79fb      	ldrb	r3, [r7, #7]
 8100d32:	2201      	movs	r2, #1
 8100d34:	4618      	mov	r0, r3
 8100d36:	f7ff ffd9 	bl	8100cec <NRF_WriteRegister>
 8100d3a:	4603      	mov	r3, r0
}
 8100d3c:	4618      	mov	r0, r3
 8100d3e:	3710      	adds	r7, #16
 8100d40:	46bd      	mov	sp, r7
 8100d42:	bd80      	pop	{r7, pc}

08100d44 <NRF_ReadRegister>:
/* Lê no Registro do NRF
 * Param - Registro a ser lido
 * Param - Ponteiro para variável onde será salvo
 * Param - O tamanho (em bytes)
 *  							*/
NRF_Status NRF_ReadRegister(uint8_t reg, uint8_t *read, uint8_t length) {
 8100d44:	b580      	push	{r7, lr}
 8100d46:	b082      	sub	sp, #8
 8100d48:	af00      	add	r7, sp, #0
 8100d4a:	4603      	mov	r3, r0
 8100d4c:	6039      	str	r1, [r7, #0]
 8100d4e:	71fb      	strb	r3, [r7, #7]
 8100d50:	4613      	mov	r3, r2
 8100d52:	71bb      	strb	r3, [r7, #6]
  return NRF_SendReadCommand(NRF_CMD_R_REGISTER | reg, read, length);
 8100d54:	79ba      	ldrb	r2, [r7, #6]
 8100d56:	79fb      	ldrb	r3, [r7, #7]
 8100d58:	6839      	ldr	r1, [r7, #0]
 8100d5a:	4618      	mov	r0, r3
 8100d5c:	f7ff ff90 	bl	8100c80 <NRF_SendReadCommand>
 8100d60:	4603      	mov	r3, r0
}
 8100d62:	4618      	mov	r0, r3
 8100d64:	3708      	adds	r7, #8
 8100d66:	46bd      	mov	sp, r7
 8100d68:	bd80      	pop	{r7, pc}

08100d6a <NRF_ReadPacketLoss>:

uint8_t NRF_ReadPacketLoss(){
 8100d6a:	b580      	push	{r7, lr}
 8100d6c:	b082      	sub	sp, #8
 8100d6e:	af00      	add	r7, sp, #0
	NRF_Status ret = NRF_OK;
 8100d70:	2300      	movs	r3, #0
 8100d72:	71fb      	strb	r3, [r7, #7]
	uint8_t Dados= 0;
 8100d74:	2300      	movs	r3, #0
 8100d76:	71bb      	strb	r3, [r7, #6]
	ret = NRF_SendReadCommand(NRF_REG_OBSERVE_TX, &Dados, 1);
 8100d78:	1dbb      	adds	r3, r7, #6
 8100d7a:	2201      	movs	r2, #1
 8100d7c:	4619      	mov	r1, r3
 8100d7e:	2008      	movs	r0, #8
 8100d80:	f7ff ff7e 	bl	8100c80 <NRF_SendReadCommand>
 8100d84:	4603      	mov	r3, r0
 8100d86:	71fb      	strb	r3, [r7, #7]
	if(ret != NRF_OK){
 8100d88:	79fb      	ldrb	r3, [r7, #7]
 8100d8a:	2b00      	cmp	r3, #0
 8100d8c:	d001      	beq.n	8100d92 <NRF_ReadPacketLoss+0x28>
		return 0;
 8100d8e:	2300      	movs	r3, #0
 8100d90:	e004      	b.n	8100d9c <NRF_ReadPacketLoss+0x32>
	} else{
		Dados = Dados>>4; //10101111 -> 00001010
 8100d92:	79bb      	ldrb	r3, [r7, #6]
 8100d94:	091b      	lsrs	r3, r3, #4
 8100d96:	b2db      	uxtb	r3, r3
 8100d98:	71bb      	strb	r3, [r7, #6]
		return Dados;
 8100d9a:	79bb      	ldrb	r3, [r7, #6]
	}
	return 0;
}
 8100d9c:	4618      	mov	r0, r3
 8100d9e:	3708      	adds	r7, #8
 8100da0:	46bd      	mov	sp, r7
 8100da2:	bd80      	pop	{r7, pc}

08100da4 <NRF_ReadStatus>:
  NRF_SendReadCommand(NRF_CMD_R_REGISTER | reg, &read, 1);
  return read;
}

//Lê o Status do NRF
uint8_t NRF_ReadStatus() {
 8100da4:	b580      	push	{r7, lr}
 8100da6:	b084      	sub	sp, #16
 8100da8:	af02      	add	r7, sp, #8
  uint8_t status = 0x00;
 8100daa:	2300      	movs	r3, #0
 8100dac:	71fb      	strb	r3, [r7, #7]
  uint8_t cmd = NRF_CMD_NOP;
 8100dae:	23ff      	movs	r3, #255	@ 0xff
 8100db0:	71bb      	strb	r3, [r7, #6]

  csn_reset();
 8100db2:	f7ff fea7 	bl	8100b04 <csn_reset>
  HAL_SPI_TransmitReceive(HSPI, &cmd, &status, 1, NRF_SPI_TIMEOUT_DUR);
 8100db6:	4b08      	ldr	r3, [pc, #32]	@ (8100dd8 <NRF_ReadStatus+0x34>)
 8100db8:	6818      	ldr	r0, [r3, #0]
 8100dba:	1dfa      	adds	r2, r7, #7
 8100dbc:	1db9      	adds	r1, r7, #6
 8100dbe:	230a      	movs	r3, #10
 8100dc0:	9300      	str	r3, [sp, #0]
 8100dc2:	2301      	movs	r3, #1
 8100dc4:	f003 f9de 	bl	8104184 <HAL_SPI_TransmitReceive>
  csn_set();
 8100dc8:	f7ff fe8c 	bl	8100ae4 <csn_set>

  return status;
 8100dcc:	79fb      	ldrb	r3, [r7, #7]
}
 8100dce:	4618      	mov	r0, r3
 8100dd0:	3708      	adds	r7, #8
 8100dd2:	46bd      	mov	sp, r7
 8100dd4:	bd80      	pop	{r7, pc}
 8100dd6:	bf00      	nop
 8100dd8:	10000104 	.word	0x10000104

08100ddc <NRF_SetRegisterBit>:

/* Seta um Bit específico de um Registro para 1
 * Param - Registro a ser escrito
 * Param - Qual bit será alterado para 1
 *  											*/
NRF_Status NRF_SetRegisterBit(uint8_t reg, uint8_t bit) {
 8100ddc:	b580      	push	{r7, lr}
 8100dde:	b084      	sub	sp, #16
 8100de0:	af00      	add	r7, sp, #0
 8100de2:	4603      	mov	r3, r0
 8100de4:	460a      	mov	r2, r1
 8100de6:	71fb      	strb	r3, [r7, #7]
 8100de8:	4613      	mov	r3, r2
 8100dea:	71bb      	strb	r3, [r7, #6]
  NRF_Status ret = NRF_OK;
 8100dec:	2300      	movs	r3, #0
 8100dee:	73fb      	strb	r3, [r7, #15]
  uint8_t cfg = 0x00;
 8100df0:	2300      	movs	r3, #0
 8100df2:	73bb      	strb	r3, [r7, #14]

  ret = NRF_ReadRegister(reg, &cfg, 1); //Pega a informação do byte do registro
 8100df4:	f107 010e 	add.w	r1, r7, #14
 8100df8:	79fb      	ldrb	r3, [r7, #7]
 8100dfa:	2201      	movs	r2, #1
 8100dfc:	4618      	mov	r0, r3
 8100dfe:	f7ff ffa1 	bl	8100d44 <NRF_ReadRegister>
 8100e02:	4603      	mov	r3, r0
 8100e04:	73fb      	strb	r3, [r7, #15]
  if (ret != NRF_OK) {
 8100e06:	7bfb      	ldrb	r3, [r7, #15]
 8100e08:	2b00      	cmp	r3, #0
 8100e0a:	d001      	beq.n	8100e10 <NRF_SetRegisterBit+0x34>
    return ret;
 8100e0c:	7bfb      	ldrb	r3, [r7, #15]
 8100e0e:	e012      	b.n	8100e36 <NRF_SetRegisterBit+0x5a>
  }

  cfg = cfg | (1 << bit); //Altera o bit por meio de um OU binário
 8100e10:	79bb      	ldrb	r3, [r7, #6]
 8100e12:	2201      	movs	r2, #1
 8100e14:	fa02 f303 	lsl.w	r3, r2, r3
 8100e18:	b25a      	sxtb	r2, r3
 8100e1a:	7bbb      	ldrb	r3, [r7, #14]
 8100e1c:	b25b      	sxtb	r3, r3
 8100e1e:	4313      	orrs	r3, r2
 8100e20:	b25b      	sxtb	r3, r3
 8100e22:	b2db      	uxtb	r3, r3
 8100e24:	73bb      	strb	r3, [r7, #14]
  return NRF_WriteRegister(reg, &cfg, 1); //Escreve o registro de volta
 8100e26:	f107 010e 	add.w	r1, r7, #14
 8100e2a:	79fb      	ldrb	r3, [r7, #7]
 8100e2c:	2201      	movs	r2, #1
 8100e2e:	4618      	mov	r0, r3
 8100e30:	f7ff ff5c 	bl	8100cec <NRF_WriteRegister>
 8100e34:	4603      	mov	r3, r0
}
 8100e36:	4618      	mov	r0, r3
 8100e38:	3710      	adds	r7, #16
 8100e3a:	46bd      	mov	sp, r7
 8100e3c:	bd80      	pop	{r7, pc}

08100e3e <NRF_ResetRegisterBit>:

/* Seta um Bit específico de um Registro para 0
 * Param - Registro a ser escrito
 * Param - Qual bit será alterado para 1
 *  											*/
NRF_Status NRF_ResetRegisterBit(uint8_t reg, uint8_t bit) {
 8100e3e:	b580      	push	{r7, lr}
 8100e40:	b084      	sub	sp, #16
 8100e42:	af00      	add	r7, sp, #0
 8100e44:	4603      	mov	r3, r0
 8100e46:	460a      	mov	r2, r1
 8100e48:	71fb      	strb	r3, [r7, #7]
 8100e4a:	4613      	mov	r3, r2
 8100e4c:	71bb      	strb	r3, [r7, #6]
  NRF_Status ret = NRF_OK;
 8100e4e:	2300      	movs	r3, #0
 8100e50:	73fb      	strb	r3, [r7, #15]
  uint8_t cfg = 0x00;
 8100e52:	2300      	movs	r3, #0
 8100e54:	73bb      	strb	r3, [r7, #14]

  ret = NRF_ReadRegister(reg, &cfg, 1);//Pega a informação do byte do registro
 8100e56:	f107 010e 	add.w	r1, r7, #14
 8100e5a:	79fb      	ldrb	r3, [r7, #7]
 8100e5c:	2201      	movs	r2, #1
 8100e5e:	4618      	mov	r0, r3
 8100e60:	f7ff ff70 	bl	8100d44 <NRF_ReadRegister>
 8100e64:	4603      	mov	r3, r0
 8100e66:	73fb      	strb	r3, [r7, #15]
  if (ret != NRF_OK) {
 8100e68:	7bfb      	ldrb	r3, [r7, #15]
 8100e6a:	2b00      	cmp	r3, #0
 8100e6c:	d001      	beq.n	8100e72 <NRF_ResetRegisterBit+0x34>
    return ret;
 8100e6e:	7bfb      	ldrb	r3, [r7, #15]
 8100e70:	e014      	b.n	8100e9c <NRF_ResetRegisterBit+0x5e>
  }

  cfg = cfg & ~(1 << bit);//Altera o bit por meio de um E binário
 8100e72:	79bb      	ldrb	r3, [r7, #6]
 8100e74:	2201      	movs	r2, #1
 8100e76:	fa02 f303 	lsl.w	r3, r2, r3
 8100e7a:	b25b      	sxtb	r3, r3
 8100e7c:	43db      	mvns	r3, r3
 8100e7e:	b25a      	sxtb	r2, r3
 8100e80:	7bbb      	ldrb	r3, [r7, #14]
 8100e82:	b25b      	sxtb	r3, r3
 8100e84:	4013      	ands	r3, r2
 8100e86:	b25b      	sxtb	r3, r3
 8100e88:	b2db      	uxtb	r3, r3
 8100e8a:	73bb      	strb	r3, [r7, #14]
  return NRF_WriteRegister(reg, &cfg, 1);//Escreve o registro de volta
 8100e8c:	f107 010e 	add.w	r1, r7, #14
 8100e90:	79fb      	ldrb	r3, [r7, #7]
 8100e92:	2201      	movs	r2, #1
 8100e94:	4618      	mov	r0, r3
 8100e96:	f7ff ff29 	bl	8100cec <NRF_WriteRegister>
 8100e9a:	4603      	mov	r3, r0
}
 8100e9c:	4618      	mov	r0, r3
 8100e9e:	3710      	adds	r7, #16
 8100ea0:	46bd      	mov	sp, r7
 8100ea2:	bd80      	pop	{r7, pc}

08100ea4 <NRF_EnterMode>:
 * NRF_MODE_STANDBY1 - Standby
 * NRF_MODE_RX - Modo de Recepção
 * NRF_MODE_Tx - Modo de Transmissão
 * Retorno: Status
 *  								*/
NRF_Status NRF_EnterMode(uint8_t mode) {
 8100ea4:	b580      	push	{r7, lr}
 8100ea6:	b084      	sub	sp, #16
 8100ea8:	af00      	add	r7, sp, #0
 8100eaa:	4603      	mov	r3, r0
 8100eac:	71fb      	strb	r3, [r7, #7]
  NRF_Status ret = NRF_OK;
 8100eae:	2300      	movs	r3, #0
 8100eb0:	73fb      	strb	r3, [r7, #15]

  switch(mode) {
 8100eb2:	79fb      	ldrb	r3, [r7, #7]
 8100eb4:	2b03      	cmp	r3, #3
 8100eb6:	d859      	bhi.n	8100f6c <NRF_EnterMode+0xc8>
 8100eb8:	a201      	add	r2, pc, #4	@ (adr r2, 8100ec0 <NRF_EnterMode+0x1c>)
 8100eba:	f852 f023 	ldr.w	pc, [r2, r3, lsl #2]
 8100ebe:	bf00      	nop
 8100ec0:	08100ed1 	.word	0x08100ed1
 8100ec4:	08100ee7 	.word	0x08100ee7
 8100ec8:	08100f31 	.word	0x08100f31
 8100ecc:	08100f4f 	.word	0x08100f4f
    case NRF_MODE_POWERDOWN:
      csn_set();
 8100ed0:	f7ff fe08 	bl	8100ae4 <csn_set>
      ce_reset();
 8100ed4:	f7ff fe36 	bl	8100b44 <ce_reset>
      ret = NRF_ResetRegisterBit(NRF_REG_CONFIG, CFG_BIT_PWR_UP); //Seta o bit de Power up em 0
 8100ed8:	2101      	movs	r1, #1
 8100eda:	2000      	movs	r0, #0
 8100edc:	f7ff ffaf 	bl	8100e3e <NRF_ResetRegisterBit>
 8100ee0:	4603      	mov	r3, r0
 8100ee2:	73fb      	strb	r3, [r7, #15]
      break;
 8100ee4:	e046      	b.n	8100f74 <NRF_EnterMode+0xd0>
    case NRF_MODE_STANDBY1:
      if (current_mode == NRF_MODE_POWERDOWN) {
 8100ee6:	4b29      	ldr	r3, [pc, #164]	@ (8100f8c <NRF_EnterMode+0xe8>)
 8100ee8:	681b      	ldr	r3, [r3, #0]
 8100eea:	2b00      	cmp	r3, #0
 8100eec:	d10c      	bne.n	8100f08 <NRF_EnterMode+0x64>
        ret = NRF_SetRegisterBit(NRF_REG_CONFIG, CFG_BIT_PWR_UP); //Seta o bit de Power up em 1
 8100eee:	2101      	movs	r1, #1
 8100ef0:	2000      	movs	r0, #0
 8100ef2:	f7ff ff73 	bl	8100ddc <NRF_SetRegisterBit>
 8100ef6:	4603      	mov	r3, r0
 8100ef8:	73fb      	strb	r3, [r7, #15]
        wait(1500);
 8100efa:	f240 50dc 	movw	r0, #1500	@ 0x5dc
 8100efe:	f04f 0100 	mov.w	r1, #0
 8100f02:	f7ff fe2f 	bl	8100b64 <wait>
        ret = NRF_ResetRegisterBit(NRF_REG_CONFIG, CFG_BIT_PRIM_RX);
        ce_reset();
      } else if (current_mode == NRF_MODE_TX) {
        ce_reset();
      }
      break;
 8100f06:	e034      	b.n	8100f72 <NRF_EnterMode+0xce>
      } else if (current_mode == NRF_MODE_RX) {
 8100f08:	4b20      	ldr	r3, [pc, #128]	@ (8100f8c <NRF_EnterMode+0xe8>)
 8100f0a:	681b      	ldr	r3, [r3, #0]
 8100f0c:	2b02      	cmp	r3, #2
 8100f0e:	d108      	bne.n	8100f22 <NRF_EnterMode+0x7e>
        ret = NRF_ResetRegisterBit(NRF_REG_CONFIG, CFG_BIT_PRIM_RX);
 8100f10:	2100      	movs	r1, #0
 8100f12:	2000      	movs	r0, #0
 8100f14:	f7ff ff93 	bl	8100e3e <NRF_ResetRegisterBit>
 8100f18:	4603      	mov	r3, r0
 8100f1a:	73fb      	strb	r3, [r7, #15]
        ce_reset();
 8100f1c:	f7ff fe12 	bl	8100b44 <ce_reset>
      break;
 8100f20:	e027      	b.n	8100f72 <NRF_EnterMode+0xce>
      } else if (current_mode == NRF_MODE_TX) {
 8100f22:	4b1a      	ldr	r3, [pc, #104]	@ (8100f8c <NRF_EnterMode+0xe8>)
 8100f24:	681b      	ldr	r3, [r3, #0]
 8100f26:	2b03      	cmp	r3, #3
 8100f28:	d123      	bne.n	8100f72 <NRF_EnterMode+0xce>
        ce_reset();
 8100f2a:	f7ff fe0b 	bl	8100b44 <ce_reset>
      break;
 8100f2e:	e020      	b.n	8100f72 <NRF_EnterMode+0xce>
    case NRF_MODE_RX:
      if (current_mode != NRF_MODE_STANDBY1) { //O dispositivo deve estar em standby para passar para o modo Rx
 8100f30:	4b16      	ldr	r3, [pc, #88]	@ (8100f8c <NRF_EnterMode+0xe8>)
 8100f32:	681b      	ldr	r3, [r3, #0]
 8100f34:	2b01      	cmp	r3, #1
 8100f36:	d001      	beq.n	8100f3c <NRF_EnterMode+0x98>
        return NRF_BAD_TRANSITION;
 8100f38:	2306      	movs	r3, #6
 8100f3a:	e022      	b.n	8100f82 <NRF_EnterMode+0xde>
      }
      ret = NRF_SetRegisterBit(NRF_REG_CONFIG, CFG_BIT_PRIM_RX); // 1 = Rx
 8100f3c:	2100      	movs	r1, #0
 8100f3e:	2000      	movs	r0, #0
 8100f40:	f7ff ff4c 	bl	8100ddc <NRF_SetRegisterBit>
 8100f44:	4603      	mov	r3, r0
 8100f46:	73fb      	strb	r3, [r7, #15]
      ce_set();
 8100f48:	f7ff fdec 	bl	8100b24 <ce_set>
      break;
 8100f4c:	e012      	b.n	8100f74 <NRF_EnterMode+0xd0>
    case NRF_MODE_TX:
      if (current_mode != NRF_MODE_STANDBY1) {
 8100f4e:	4b0f      	ldr	r3, [pc, #60]	@ (8100f8c <NRF_EnterMode+0xe8>)
 8100f50:	681b      	ldr	r3, [r3, #0]
 8100f52:	2b01      	cmp	r3, #1
 8100f54:	d001      	beq.n	8100f5a <NRF_EnterMode+0xb6>
        return NRF_BAD_TRANSITION;
 8100f56:	2306      	movs	r3, #6
 8100f58:	e013      	b.n	8100f82 <NRF_EnterMode+0xde>
      }
      ret = NRF_ResetRegisterBit(NRF_REG_CONFIG, CFG_BIT_PRIM_RX); // 0 = Tx
 8100f5a:	2100      	movs	r1, #0
 8100f5c:	2000      	movs	r0, #0
 8100f5e:	f7ff ff6e 	bl	8100e3e <NRF_ResetRegisterBit>
 8100f62:	4603      	mov	r3, r0
 8100f64:	73fb      	strb	r3, [r7, #15]
      ce_set();
 8100f66:	f7ff fddd 	bl	8100b24 <ce_set>
      break;
 8100f6a:	e003      	b.n	8100f74 <NRF_EnterMode+0xd0>
    default:
      ret = NRF_ERROR;
 8100f6c:	2304      	movs	r3, #4
 8100f6e:	73fb      	strb	r3, [r7, #15]
      break;
 8100f70:	e000      	b.n	8100f74 <NRF_EnterMode+0xd0>
      break;
 8100f72:	bf00      	nop
  }

  if (ret == NRF_OK) {
 8100f74:	7bfb      	ldrb	r3, [r7, #15]
 8100f76:	2b00      	cmp	r3, #0
 8100f78:	d102      	bne.n	8100f80 <NRF_EnterMode+0xdc>
    current_mode = mode;
 8100f7a:	79fb      	ldrb	r3, [r7, #7]
 8100f7c:	4a03      	ldr	r2, [pc, #12]	@ (8100f8c <NRF_EnterMode+0xe8>)
 8100f7e:	6013      	str	r3, [r2, #0]
  }

  return ret;
 8100f80:	7bfb      	ldrb	r3, [r7, #15]
}
 8100f82:	4618      	mov	r0, r3
 8100f84:	3710      	adds	r7, #16
 8100f86:	46bd      	mov	sp, r7
 8100f88:	bd80      	pop	{r7, pc}
 8100f8a:	bf00      	nop
 8100f8c:	1000011c 	.word	0x1000011c

08100f90 <NRF_Init>:
 * Param - Pino Chip Select
 * Param - Porta Chip Enable
 * Param - Pino Chip Enable
 * Retorno: Status
 *  								*/
NRF_Status NRF_Init(SPI_HandleTypeDef *handle, GPIO_TypeDef *PortCSN, uint16_t PinCSN, GPIO_TypeDef *PortCE, uint16_t PinCE) {
 8100f90:	b580      	push	{r7, lr}
 8100f92:	b084      	sub	sp, #16
 8100f94:	af00      	add	r7, sp, #0
 8100f96:	60f8      	str	r0, [r7, #12]
 8100f98:	60b9      	str	r1, [r7, #8]
 8100f9a:	603b      	str	r3, [r7, #0]
 8100f9c:	4613      	mov	r3, r2
 8100f9e:	80fb      	strh	r3, [r7, #6]
  HSPI = handle;
 8100fa0:	4a13      	ldr	r2, [pc, #76]	@ (8100ff0 <NRF_Init+0x60>)
 8100fa2:	68fb      	ldr	r3, [r7, #12]
 8100fa4:	6013      	str	r3, [r2, #0]
  NRF_CSN_Port = PortCSN;
 8100fa6:	4a13      	ldr	r2, [pc, #76]	@ (8100ff4 <NRF_Init+0x64>)
 8100fa8:	68bb      	ldr	r3, [r7, #8]
 8100faa:	6013      	str	r3, [r2, #0]
  NRF_CSN_Pin = PinCSN;
 8100fac:	4a12      	ldr	r2, [pc, #72]	@ (8100ff8 <NRF_Init+0x68>)
 8100fae:	88fb      	ldrh	r3, [r7, #6]
 8100fb0:	8013      	strh	r3, [r2, #0]
  NRF_CE_Port = PortCE;
 8100fb2:	4a12      	ldr	r2, [pc, #72]	@ (8100ffc <NRF_Init+0x6c>)
 8100fb4:	683b      	ldr	r3, [r7, #0]
 8100fb6:	6013      	str	r3, [r2, #0]
  NRF_CE_Pin = PinCE;
 8100fb8:	4a11      	ldr	r2, [pc, #68]	@ (8101000 <NRF_Init+0x70>)
 8100fba:	8b3b      	ldrh	r3, [r7, #24]
 8100fbc:	8013      	strh	r3, [r2, #0]

  CPU_Freq = HAL_RCC_GetSysClockFreq();
 8100fbe:	f000 fe79 	bl	8101cb4 <HAL_RCC_GetSysClockFreq>
 8100fc2:	4603      	mov	r3, r0
 8100fc4:	4a0f      	ldr	r2, [pc, #60]	@ (8101004 <NRF_Init+0x74>)
 8100fc6:	6013      	str	r3, [r2, #0]
  if (CPU_Freq == 0x00) {
 8100fc8:	4b0e      	ldr	r3, [pc, #56]	@ (8101004 <NRF_Init+0x74>)
 8100fca:	681b      	ldr	r3, [r3, #0]
 8100fcc:	2b00      	cmp	r3, #0
 8100fce:	d101      	bne.n	8100fd4 <NRF_Init+0x44>
    return NRF_ERROR;
 8100fd0:	2304      	movs	r3, #4
 8100fd2:	e008      	b.n	8100fe6 <NRF_Init+0x56>
  }

  // Make sure CSN is pulled high
  csn_set();
 8100fd4:	f7ff fd86 	bl	8100ae4 <csn_set>

  // Takes ~100ms from power on to start up
  HAL_Delay(100);
 8100fd8:	2064      	movs	r0, #100	@ 0x64
 8100fda:	f000 fad1 	bl	8101580 <HAL_Delay>

  return NRF_EnterMode(NRF_MODE_STANDBY1);
 8100fde:	2001      	movs	r0, #1
 8100fe0:	f7ff ff60 	bl	8100ea4 <NRF_EnterMode>
 8100fe4:	4603      	mov	r3, r0
}
 8100fe6:	4618      	mov	r0, r3
 8100fe8:	3710      	adds	r7, #16
 8100fea:	46bd      	mov	sp, r7
 8100fec:	bd80      	pop	{r7, pc}
 8100fee:	bf00      	nop
 8100ff0:	10000104 	.word	0x10000104
 8100ff4:	10000108 	.word	0x10000108
 8100ff8:	1000010c 	.word	0x1000010c
 8100ffc:	10000110 	.word	0x10000110
 8101000:	10000114 	.word	0x10000114
 8101004:	10000118 	.word	0x10000118

08101008 <NRF_Reset>:


//Reseta o NRF  o mantendo em stanby
void NRF_Reset() {
 8101008:	b580      	push	{r7, lr}
 810100a:	b084      	sub	sp, #16
 810100c:	af00      	add	r7, sp, #0
  NRF_EnterMode(NRF_MODE_POWERDOWN);
 810100e:	2000      	movs	r0, #0
 8101010:	f7ff ff48 	bl	8100ea4 <NRF_EnterMode>
  NRF_EnterMode(NRF_MODE_STANDBY1);
 8101014:	2001      	movs	r0, #1
 8101016:	f7ff ff45 	bl	8100ea4 <NRF_EnterMode>

  // Flush FIFOs
  NRF_EnterMode(NRF_MODE_TX);
 810101a:	2003      	movs	r0, #3
 810101c:	f7ff ff42 	bl	8100ea4 <NRF_EnterMode>
  NRF_SendCommand(NRF_CMD_FLUSH_TX);
 8101020:	20e1      	movs	r0, #225	@ 0xe1
 8101022:	f7ff fdd3 	bl	8100bcc <NRF_SendCommand>
  NRF_EnterMode(NRF_MODE_STANDBY1);
 8101026:	2001      	movs	r0, #1
 8101028:	f7ff ff3c 	bl	8100ea4 <NRF_EnterMode>
  NRF_EnterMode(NRF_MODE_RX);
 810102c:	2002      	movs	r0, #2
 810102e:	f7ff ff39 	bl	8100ea4 <NRF_EnterMode>
  NRF_SendCommand(NRF_CMD_FLUSH_RX);
 8101032:	20e2      	movs	r0, #226	@ 0xe2
 8101034:	f7ff fdca 	bl	8100bcc <NRF_SendCommand>
  NRF_EnterMode(NRF_MODE_STANDBY1);
 8101038:	2001      	movs	r0, #1
 810103a:	f7ff ff33 	bl	8100ea4 <NRF_EnterMode>

  // Flush register -> LER DATASHEET!!!!!!!!!!!!!!
  NRF_WriteRegisterByte(NRF_REG_CONFIG,       0x0A);// 00001010
 810103e:	210a      	movs	r1, #10
 8101040:	2000      	movs	r0, #0
 8101042:	f7ff fe69 	bl	8100d18 <NRF_WriteRegisterByte>
  NRF_WriteRegisterByte(NRF_REG_EN_AA,        0x3F);// 00000001 = AutoAcknologment ativado no primeiro PIPE
 8101046:	213f      	movs	r1, #63	@ 0x3f
 8101048:	2001      	movs	r0, #1
 810104a:	f7ff fe65 	bl	8100d18 <NRF_WriteRegisterByte>
  NRF_WriteRegisterByte(NRF_REG_EN_RXADDR,    0x03);//00000011 -> Pipes 0 e 1 no Rx
 810104e:	2103      	movs	r1, #3
 8101050:	2002      	movs	r0, #2
 8101052:	f7ff fe61 	bl	8100d18 <NRF_WriteRegisterByte>
  NRF_WriteRegisterByte(NRF_REG_SETUP_AW,     0x03);//00000011 -> 5 bytes no adresss
 8101056:	2103      	movs	r1, #3
 8101058:	2003      	movs	r0, #3
 810105a:	f7ff fe5d 	bl	8100d18 <NRF_WriteRegisterByte>
  NRF_WriteRegisterByte(NRF_REG_SETUP_RETR,   0x0F);//00001111 -> re-transmit habilitado. bits 7-4 -> delay de retransmit (250us). bits 3-0 qtd de retransmit (15).
 810105e:	210f      	movs	r1, #15
 8101060:	2004      	movs	r0, #4
 8101062:	f7ff fe59 	bl	8100d18 <NRF_WriteRegisterByte>
  NRF_WriteRegisterByte(NRF_REG_RF_CH,        0x02);//00000010 -> Canal 3
 8101066:	2102      	movs	r1, #2
 8101068:	2005      	movs	r0, #5
 810106a:	f7ff fe55 	bl	8100d18 <NRF_WriteRegisterByte>
  NRF_WriteRegisterByte(NRF_REG_RF_SETUP,     0x0E);//00001110 -> LNA desligado, 0dBm, 2MBs
 810106e:	210e      	movs	r1, #14
 8101070:	2006      	movs	r0, #6
 8101072:	f7ff fe51 	bl	8100d18 <NRF_WriteRegisterByte>
  NRF_WriteRegisterByte(NRF_REG_STATUS,       0x70); // clear flags
 8101076:	2170      	movs	r1, #112	@ 0x70
 8101078:	2007      	movs	r0, #7
 810107a:	f7ff fe4d 	bl	8100d18 <NRF_WriteRegisterByte>

  uint8_t address[5] = {0xE7, 0xE7, 0xE7, 0xE7, 0xE7};
 810107e:	4a2d      	ldr	r2, [pc, #180]	@ (8101134 <NRF_Reset+0x12c>)
 8101080:	f107 0308 	add.w	r3, r7, #8
 8101084:	e892 0003 	ldmia.w	r2, {r0, r1}
 8101088:	6018      	str	r0, [r3, #0]
 810108a:	3304      	adds	r3, #4
 810108c:	7019      	strb	r1, [r3, #0]
  uint8_t address2[5] = {0xC2, 0xC2, 0xC2, 0xC2, 0xC2};
 810108e:	4a2a      	ldr	r2, [pc, #168]	@ (8101138 <NRF_Reset+0x130>)
 8101090:	463b      	mov	r3, r7
 8101092:	e892 0003 	ldmia.w	r2, {r0, r1}
 8101096:	6018      	str	r0, [r3, #0]
 8101098:	3304      	adds	r3, #4
 810109a:	7019      	strb	r1, [r3, #0]
  NRF_WriteRegister(NRF_REG_RX_ADDR_P0, address, 5); //Adress do pipe 0
 810109c:	f107 0308 	add.w	r3, r7, #8
 81010a0:	2205      	movs	r2, #5
 81010a2:	4619      	mov	r1, r3
 81010a4:	200a      	movs	r0, #10
 81010a6:	f7ff fe21 	bl	8100cec <NRF_WriteRegister>
  NRF_WriteRegister(NRF_REG_RX_ADDR_P1, address2, 5); //Adress pipe 1
 81010aa:	463b      	mov	r3, r7
 81010ac:	2205      	movs	r2, #5
 81010ae:	4619      	mov	r1, r3
 81010b0:	200b      	movs	r0, #11
 81010b2:	f7ff fe1b 	bl	8100cec <NRF_WriteRegister>
  NRF_WriteRegisterByte(NRF_REG_RX_ADDR_P2,   0xC3);
 81010b6:	21c3      	movs	r1, #195	@ 0xc3
 81010b8:	200c      	movs	r0, #12
 81010ba:	f7ff fe2d 	bl	8100d18 <NRF_WriteRegisterByte>
  NRF_WriteRegisterByte(NRF_REG_RX_ADDR_P3,   0xC4);
 81010be:	21c4      	movs	r1, #196	@ 0xc4
 81010c0:	200d      	movs	r0, #13
 81010c2:	f7ff fe29 	bl	8100d18 <NRF_WriteRegisterByte>
  NRF_WriteRegisterByte(NRF_REG_RX_ADDR_P4,   0xC5);
 81010c6:	21c5      	movs	r1, #197	@ 0xc5
 81010c8:	200e      	movs	r0, #14
 81010ca:	f7ff fe25 	bl	8100d18 <NRF_WriteRegisterByte>
  NRF_WriteRegisterByte(NRF_REG_RX_ADDR_P5,   0xC6);
 81010ce:	21c6      	movs	r1, #198	@ 0xc6
 81010d0:	200f      	movs	r0, #15
 81010d2:	f7ff fe21 	bl	8100d18 <NRF_WriteRegisterByte>
  NRF_WriteRegister(NRF_REG_TX_ADDR, address, 5);
 81010d6:	f107 0308 	add.w	r3, r7, #8
 81010da:	2205      	movs	r2, #5
 81010dc:	4619      	mov	r1, r3
 81010de:	2010      	movs	r0, #16
 81010e0:	f7ff fe04 	bl	8100cec <NRF_WriteRegister>
  NRF_WriteRegisterByte(NRF_REG_RX_PW_P0,     0x00);
 81010e4:	2100      	movs	r1, #0
 81010e6:	2011      	movs	r0, #17
 81010e8:	f7ff fe16 	bl	8100d18 <NRF_WriteRegisterByte>
  NRF_WriteRegisterByte(NRF_REG_RX_PW_P1,     0x00);
 81010ec:	2100      	movs	r1, #0
 81010ee:	2012      	movs	r0, #18
 81010f0:	f7ff fe12 	bl	8100d18 <NRF_WriteRegisterByte>
  NRF_WriteRegisterByte(NRF_REG_RX_PW_P2,     0x00);
 81010f4:	2100      	movs	r1, #0
 81010f6:	2013      	movs	r0, #19
 81010f8:	f7ff fe0e 	bl	8100d18 <NRF_WriteRegisterByte>
  NRF_WriteRegisterByte(NRF_REG_RX_PW_P3,     0x00);
 81010fc:	2100      	movs	r1, #0
 81010fe:	2014      	movs	r0, #20
 8101100:	f7ff fe0a 	bl	8100d18 <NRF_WriteRegisterByte>
  NRF_WriteRegisterByte(NRF_REG_RX_PW_P4,     0x00);
 8101104:	2100      	movs	r1, #0
 8101106:	2015      	movs	r0, #21
 8101108:	f7ff fe06 	bl	8100d18 <NRF_WriteRegisterByte>
  NRF_WriteRegisterByte(NRF_REG_RX_PW_P5,     0x00);
 810110c:	2100      	movs	r1, #0
 810110e:	2016      	movs	r0, #22
 8101110:	f7ff fe02 	bl	8100d18 <NRF_WriteRegisterByte>

  NRF_WriteRegisterByte(NRF_REG_FIFO_STATUS,  0x00);
 8101114:	2100      	movs	r1, #0
 8101116:	2017      	movs	r0, #23
 8101118:	f7ff fdfe 	bl	8100d18 <NRF_WriteRegisterByte>
  NRF_WriteRegisterByte(NRF_REG_DYNPD,        0x00);
 810111c:	2100      	movs	r1, #0
 810111e:	201c      	movs	r0, #28
 8101120:	f7ff fdfa 	bl	8100d18 <NRF_WriteRegisterByte>
  NRF_WriteRegisterByte(NRF_REG_FEATURE,      0x00);
 8101124:	2100      	movs	r1, #0
 8101126:	201d      	movs	r0, #29
 8101128:	f7ff fdf6 	bl	8100d18 <NRF_WriteRegisterByte>
}
 810112c:	bf00      	nop
 810112e:	3710      	adds	r7, #16
 8101130:	46bd      	mov	sp, r7
 8101132:	bd80      	pop	{r7, pc}
 8101134:	08104a44 	.word	0x08104a44
 8101138:	08104a4c 	.word	0x08104a4c

0810113c <NRF_WritePayload>:

NRF_Status NRF_WritePayload(uint8_t *payload, uint8_t length) {
 810113c:	b580      	push	{r7, lr}
 810113e:	b082      	sub	sp, #8
 8101140:	af00      	add	r7, sp, #0
 8101142:	6078      	str	r0, [r7, #4]
 8101144:	460b      	mov	r3, r1
 8101146:	70fb      	strb	r3, [r7, #3]
  return NRF_SendWriteCommand(NRF_CMD_W_TX_PAYLOAD, payload, length);
 8101148:	78fb      	ldrb	r3, [r7, #3]
 810114a:	461a      	mov	r2, r3
 810114c:	6879      	ldr	r1, [r7, #4]
 810114e:	20a0      	movs	r0, #160	@ 0xa0
 8101150:	f7ff fd60 	bl	8100c14 <NRF_SendWriteCommand>
 8101154:	4603      	mov	r3, r0
}
 8101156:	4618      	mov	r0, r3
 8101158:	3708      	adds	r7, #8
 810115a:	46bd      	mov	sp, r7
 810115c:	bd80      	pop	{r7, pc}

0810115e <NRF_ReadPayload>:

NRF_Status NRF_WriteAckPayload(uint8_t pipe, uint8_t *payload, uint8_t length) {
  return NRF_SendWriteCommand(NRF_CMD_W_ACK_PAYLOAD | pipe, payload, length);
}

NRF_Status NRF_ReadPayload(uint8_t *read, uint8_t length) {
 810115e:	b580      	push	{r7, lr}
 8101160:	b082      	sub	sp, #8
 8101162:	af00      	add	r7, sp, #0
 8101164:	6078      	str	r0, [r7, #4]
 8101166:	460b      	mov	r3, r1
 8101168:	70fb      	strb	r3, [r7, #3]
  return NRF_SendReadCommand(NRF_CMD_R_RX_PAYLOAD, read, length);
 810116a:	78fb      	ldrb	r3, [r7, #3]
 810116c:	461a      	mov	r2, r3
 810116e:	6879      	ldr	r1, [r7, #4]
 8101170:	2061      	movs	r0, #97	@ 0x61
 8101172:	f7ff fd85 	bl	8100c80 <NRF_SendReadCommand>
 8101176:	4603      	mov	r3, r0
}
 8101178:	4618      	mov	r0, r3
 810117a:	3708      	adds	r7, #8
 810117c:	46bd      	mov	sp, r7
 810117e:	bd80      	pop	{r7, pc}

08101180 <NRF_TransmitAndWait>:
  ce_set();
  wait(10);
  ce_reset();
}

NRF_Status NRF_TransmitAndWait(uint8_t *payload, uint8_t length) {
 8101180:	b580      	push	{r7, lr}
 8101182:	b084      	sub	sp, #16
 8101184:	af00      	add	r7, sp, #0
 8101186:	6078      	str	r0, [r7, #4]
 8101188:	460b      	mov	r3, r1
 810118a:	70fb      	strb	r3, [r7, #3]
  NRF_Status ret = NRF_OK;
 810118c:	2300      	movs	r3, #0
 810118e:	73fb      	strb	r3, [r7, #15]

  ret = NRF_WritePayload(payload, length);
 8101190:	78fb      	ldrb	r3, [r7, #3]
 8101192:	4619      	mov	r1, r3
 8101194:	6878      	ldr	r0, [r7, #4]
 8101196:	f7ff ffd1 	bl	810113c <NRF_WritePayload>
 810119a:	4603      	mov	r3, r0
 810119c:	73fb      	strb	r3, [r7, #15]
  if (ret != NRF_OK) {
 810119e:	7bfb      	ldrb	r3, [r7, #15]
 81011a0:	2b00      	cmp	r3, #0
 81011a2:	d001      	beq.n	81011a8 <NRF_TransmitAndWait+0x28>

    return ret;
 81011a4:	7bfb      	ldrb	r3, [r7, #15]
 81011a6:	e01f      	b.n	81011e8 <NRF_TransmitAndWait+0x68>
  }

  // Transmit
  ce_set();
 81011a8:	f7ff fcbc 	bl	8100b24 <ce_set>

  // Wait for status update
  uint8_t status;
  for (;;) {
    status = NRF_ReadStatus();
 81011ac:	f7ff fdfa 	bl	8100da4 <NRF_ReadStatus>
 81011b0:	4603      	mov	r3, r0
 81011b2:	73bb      	strb	r3, [r7, #14]
    if (status & (1<<STATUS_BIT_TX_DS)) {
 81011b4:	7bbb      	ldrb	r3, [r7, #14]
 81011b6:	f003 0320 	and.w	r3, r3, #32
 81011ba:	2b00      	cmp	r3, #0
 81011bc:	d006      	beq.n	81011cc <NRF_TransmitAndWait+0x4c>
      // Packet transmitted
      ret = NRF_SetRegisterBit(NRF_REG_STATUS, STATUS_BIT_TX_DS); // clear flag
 81011be:	2105      	movs	r1, #5
 81011c0:	2007      	movs	r0, #7
 81011c2:	f7ff fe0b 	bl	8100ddc <NRF_SetRegisterBit>
 81011c6:	4603      	mov	r3, r0
 81011c8:	73fb      	strb	r3, [r7, #15]
      break;
 81011ca:	e00a      	b.n	81011e2 <NRF_TransmitAndWait+0x62>
    } else if (status & (1<<STATUS_BIT_MAX_RT)) {
 81011cc:	7bbb      	ldrb	r3, [r7, #14]
 81011ce:	f003 0310 	and.w	r3, r3, #16
 81011d2:	2b00      	cmp	r3, #0
 81011d4:	d0ea      	beq.n	81011ac <NRF_TransmitAndWait+0x2c>
      // Max retransmits reached
      NRF_SetRegisterBit(NRF_REG_STATUS, STATUS_BIT_MAX_RT); // clear flag
 81011d6:	2104      	movs	r1, #4
 81011d8:	2007      	movs	r0, #7
 81011da:	f7ff fdff 	bl	8100ddc <NRF_SetRegisterBit>
      ret = NRF_MAX_RT;
 81011de:	2305      	movs	r3, #5
 81011e0:	73fb      	strb	r3, [r7, #15]
      break;
    }
  }
  ce_reset();
 81011e2:	f7ff fcaf 	bl	8100b44 <ce_reset>

  return ret;
 81011e6:	7bfb      	ldrb	r3, [r7, #15]
}
 81011e8:	4618      	mov	r0, r3
 81011ea:	3710      	adds	r7, #16
 81011ec:	46bd      	mov	sp, r7
 81011ee:	bd80      	pop	{r7, pc}

081011f0 <HAL_MspInit>:
/* USER CODE END 0 */
/**
  * Initializes the Global MSP.
  */
void HAL_MspInit(void)
{
 81011f0:	b480      	push	{r7}
 81011f2:	b083      	sub	sp, #12
 81011f4:	af00      	add	r7, sp, #0

  /* USER CODE BEGIN MspInit 0 */

  /* USER CODE END MspInit 0 */

  __HAL_RCC_SYSCFG_CLK_ENABLE();
 81011f6:	4b0a      	ldr	r3, [pc, #40]	@ (8101220 <HAL_MspInit+0x30>)
 81011f8:	f8d3 30f4 	ldr.w	r3, [r3, #244]	@ 0xf4
 81011fc:	4a08      	ldr	r2, [pc, #32]	@ (8101220 <HAL_MspInit+0x30>)
 81011fe:	f043 0302 	orr.w	r3, r3, #2
 8101202:	f8c2 30f4 	str.w	r3, [r2, #244]	@ 0xf4
 8101206:	4b06      	ldr	r3, [pc, #24]	@ (8101220 <HAL_MspInit+0x30>)
 8101208:	f8d3 30f4 	ldr.w	r3, [r3, #244]	@ 0xf4
 810120c:	f003 0302 	and.w	r3, r3, #2
 8101210:	607b      	str	r3, [r7, #4]
 8101212:	687b      	ldr	r3, [r7, #4]
  /* System interrupt init*/

  /* USER CODE BEGIN MspInit 1 */

  /* USER CODE END MspInit 1 */
}
 8101214:	bf00      	nop
 8101216:	370c      	adds	r7, #12
 8101218:	46bd      	mov	sp, r7
 810121a:	f85d 7b04 	ldr.w	r7, [sp], #4
 810121e:	4770      	bx	lr
 8101220:	58024400 	.word	0x58024400

08101224 <HAL_SPI_MspInit>:
* This function configures the hardware resources used in this example
* @param hspi: SPI handle pointer
* @retval None
*/
void HAL_SPI_MspInit(SPI_HandleTypeDef* hspi)
{
 8101224:	b580      	push	{r7, lr}
 8101226:	b0bc      	sub	sp, #240	@ 0xf0
 8101228:	af00      	add	r7, sp, #0
 810122a:	6078      	str	r0, [r7, #4]
  GPIO_InitTypeDef GPIO_InitStruct = {0};
 810122c:	f107 03dc 	add.w	r3, r7, #220	@ 0xdc
 8101230:	2200      	movs	r2, #0
 8101232:	601a      	str	r2, [r3, #0]
 8101234:	605a      	str	r2, [r3, #4]
 8101236:	609a      	str	r2, [r3, #8]
 8101238:	60da      	str	r2, [r3, #12]
 810123a:	611a      	str	r2, [r3, #16]
  RCC_PeriphCLKInitTypeDef PeriphClkInitStruct = {0};
 810123c:	f107 0318 	add.w	r3, r7, #24
 8101240:	22c0      	movs	r2, #192	@ 0xc0
 8101242:	2100      	movs	r1, #0
 8101244:	4618      	mov	r0, r3
 8101246:	f003 fbbe 	bl	81049c6 <memset>
  if(hspi->Instance==SPI1)
 810124a:	687b      	ldr	r3, [r7, #4]
 810124c:	681b      	ldr	r3, [r3, #0]
 810124e:	4a41      	ldr	r2, [pc, #260]	@ (8101354 <HAL_SPI_MspInit+0x130>)
 8101250:	4293      	cmp	r3, r2
 8101252:	d17a      	bne.n	810134a <HAL_SPI_MspInit+0x126>

  /* USER CODE END SPI1_MspInit 0 */

  /** Initializes the peripherals clock
  */
    PeriphClkInitStruct.PeriphClockSelection = RCC_PERIPHCLK_SPI1;
 8101254:	f44f 5280 	mov.w	r2, #4096	@ 0x1000
 8101258:	f04f 0300 	mov.w	r3, #0
 810125c:	e9c7 2306 	strd	r2, r3, [r7, #24]
    PeriphClkInitStruct.PLL2.PLL2M = 4;
 8101260:	2304      	movs	r3, #4
 8101262:	623b      	str	r3, [r7, #32]
    PeriphClkInitStruct.PLL2.PLL2N = 9;
 8101264:	2309      	movs	r3, #9
 8101266:	627b      	str	r3, [r7, #36]	@ 0x24
    PeriphClkInitStruct.PLL2.PLL2P = 2;
 8101268:	2302      	movs	r3, #2
 810126a:	62bb      	str	r3, [r7, #40]	@ 0x28
    PeriphClkInitStruct.PLL2.PLL2Q = 2;
 810126c:	2302      	movs	r3, #2
 810126e:	62fb      	str	r3, [r7, #44]	@ 0x2c
    PeriphClkInitStruct.PLL2.PLL2R = 2;
 8101270:	2302      	movs	r3, #2
 8101272:	633b      	str	r3, [r7, #48]	@ 0x30
    PeriphClkInitStruct.PLL2.PLL2RGE = RCC_PLL2VCIRANGE_3;
 8101274:	23c0      	movs	r3, #192	@ 0xc0
 8101276:	637b      	str	r3, [r7, #52]	@ 0x34
    PeriphClkInitStruct.PLL2.PLL2VCOSEL = RCC_PLL2VCOMEDIUM;
 8101278:	2320      	movs	r3, #32
 810127a:	63bb      	str	r3, [r7, #56]	@ 0x38
    PeriphClkInitStruct.PLL2.PLL2FRACN = 3072;
 810127c:	f44f 6340 	mov.w	r3, #3072	@ 0xc00
 8101280:	63fb      	str	r3, [r7, #60]	@ 0x3c
    PeriphClkInitStruct.Spi123ClockSelection = RCC_SPI123CLKSOURCE_PLL2;
 8101282:	f44f 5380 	mov.w	r3, #4096	@ 0x1000
 8101286:	67bb      	str	r3, [r7, #120]	@ 0x78
    if (HAL_RCCEx_PeriphCLKConfig(&PeriphClkInitStruct) != HAL_OK)
 8101288:	f107 0318 	add.w	r3, r7, #24
 810128c:	4618      	mov	r0, r3
 810128e:	f000 fe8b 	bl	8101fa8 <HAL_RCCEx_PeriphCLKConfig>
 8101292:	4603      	mov	r3, r0
 8101294:	2b00      	cmp	r3, #0
 8101296:	d001      	beq.n	810129c <HAL_SPI_MspInit+0x78>
    {
      Error_Handler();
 8101298:	f7ff fc1e 	bl	8100ad8 <Error_Handler>
    }

    /* Peripheral clock enable */
    __HAL_RCC_SPI1_CLK_ENABLE();
 810129c:	4b2e      	ldr	r3, [pc, #184]	@ (8101358 <HAL_SPI_MspInit+0x134>)
 810129e:	f8d3 30f0 	ldr.w	r3, [r3, #240]	@ 0xf0
 81012a2:	4a2d      	ldr	r2, [pc, #180]	@ (8101358 <HAL_SPI_MspInit+0x134>)
 81012a4:	f443 5380 	orr.w	r3, r3, #4096	@ 0x1000
 81012a8:	f8c2 30f0 	str.w	r3, [r2, #240]	@ 0xf0
 81012ac:	4b2a      	ldr	r3, [pc, #168]	@ (8101358 <HAL_SPI_MspInit+0x134>)
 81012ae:	f8d3 30f0 	ldr.w	r3, [r3, #240]	@ 0xf0
 81012b2:	f403 5380 	and.w	r3, r3, #4096	@ 0x1000
 81012b6:	617b      	str	r3, [r7, #20]
 81012b8:	697b      	ldr	r3, [r7, #20]

    __HAL_RCC_GPIOA_CLK_ENABLE();
 81012ba:	4b27      	ldr	r3, [pc, #156]	@ (8101358 <HAL_SPI_MspInit+0x134>)
 81012bc:	f8d3 30e0 	ldr.w	r3, [r3, #224]	@ 0xe0
 81012c0:	4a25      	ldr	r2, [pc, #148]	@ (8101358 <HAL_SPI_MspInit+0x134>)
 81012c2:	f043 0301 	orr.w	r3, r3, #1
 81012c6:	f8c2 30e0 	str.w	r3, [r2, #224]	@ 0xe0
 81012ca:	4b23      	ldr	r3, [pc, #140]	@ (8101358 <HAL_SPI_MspInit+0x134>)
 81012cc:	f8d3 30e0 	ldr.w	r3, [r3, #224]	@ 0xe0
 81012d0:	f003 0301 	and.w	r3, r3, #1
 81012d4:	613b      	str	r3, [r7, #16]
 81012d6:	693b      	ldr	r3, [r7, #16]
    __HAL_RCC_GPIOD_CLK_ENABLE();
 81012d8:	4b1f      	ldr	r3, [pc, #124]	@ (8101358 <HAL_SPI_MspInit+0x134>)
 81012da:	f8d3 30e0 	ldr.w	r3, [r3, #224]	@ 0xe0
 81012de:	4a1e      	ldr	r2, [pc, #120]	@ (8101358 <HAL_SPI_MspInit+0x134>)
 81012e0:	f043 0308 	orr.w	r3, r3, #8
 81012e4:	f8c2 30e0 	str.w	r3, [r2, #224]	@ 0xe0
 81012e8:	4b1b      	ldr	r3, [pc, #108]	@ (8101358 <HAL_SPI_MspInit+0x134>)
 81012ea:	f8d3 30e0 	ldr.w	r3, [r3, #224]	@ 0xe0
 81012ee:	f003 0308 	and.w	r3, r3, #8
 81012f2:	60fb      	str	r3, [r7, #12]
 81012f4:	68fb      	ldr	r3, [r7, #12]
    /**SPI1 GPIO Configuration
    PA5     ------> SPI1_SCK
    PA6     ------> SPI1_MISO
    PD7     ------> SPI1_MOSI
    */
    GPIO_InitStruct.Pin = GPIO_PIN_5|GPIO_PIN_6;
 81012f6:	2360      	movs	r3, #96	@ 0x60
 81012f8:	f8c7 30dc 	str.w	r3, [r7, #220]	@ 0xdc
    GPIO_InitStruct.Mode = GPIO_MODE_AF_PP;
 81012fc:	2302      	movs	r3, #2
 81012fe:	f8c7 30e0 	str.w	r3, [r7, #224]	@ 0xe0
    GPIO_InitStruct.Pull = GPIO_NOPULL;
 8101302:	2300      	movs	r3, #0
 8101304:	f8c7 30e4 	str.w	r3, [r7, #228]	@ 0xe4
    GPIO_InitStruct.Speed = GPIO_SPEED_FREQ_LOW;
 8101308:	2300      	movs	r3, #0
 810130a:	f8c7 30e8 	str.w	r3, [r7, #232]	@ 0xe8
    GPIO_InitStruct.Alternate = GPIO_AF5_SPI1;
 810130e:	2305      	movs	r3, #5
 8101310:	f8c7 30ec 	str.w	r3, [r7, #236]	@ 0xec
    HAL_GPIO_Init(GPIOA, &GPIO_InitStruct);
 8101314:	f107 03dc 	add.w	r3, r7, #220	@ 0xdc
 8101318:	4619      	mov	r1, r3
 810131a:	4810      	ldr	r0, [pc, #64]	@ (810135c <HAL_SPI_MspInit+0x138>)
 810131c:	f000 fa4c 	bl	81017b8 <HAL_GPIO_Init>

    GPIO_InitStruct.Pin = GPIO_PIN_7;
 8101320:	2380      	movs	r3, #128	@ 0x80
 8101322:	f8c7 30dc 	str.w	r3, [r7, #220]	@ 0xdc
    GPIO_InitStruct.Mode = GPIO_MODE_AF_PP;
 8101326:	2302      	movs	r3, #2
 8101328:	f8c7 30e0 	str.w	r3, [r7, #224]	@ 0xe0
    GPIO_InitStruct.Pull = GPIO_NOPULL;
 810132c:	2300      	movs	r3, #0
 810132e:	f8c7 30e4 	str.w	r3, [r7, #228]	@ 0xe4
    GPIO_InitStruct.Speed = GPIO_SPEED_FREQ_LOW;
 8101332:	2300      	movs	r3, #0
 8101334:	f8c7 30e8 	str.w	r3, [r7, #232]	@ 0xe8
    GPIO_InitStruct.Alternate = GPIO_AF5_SPI1;
 8101338:	2305      	movs	r3, #5
 810133a:	f8c7 30ec 	str.w	r3, [r7, #236]	@ 0xec
    HAL_GPIO_Init(GPIOD, &GPIO_InitStruct);
 810133e:	f107 03dc 	add.w	r3, r7, #220	@ 0xdc
 8101342:	4619      	mov	r1, r3
 8101344:	4806      	ldr	r0, [pc, #24]	@ (8101360 <HAL_SPI_MspInit+0x13c>)
 8101346:	f000 fa37 	bl	81017b8 <HAL_GPIO_Init>
  /* USER CODE BEGIN SPI1_MspInit 1 */

  /* USER CODE END SPI1_MspInit 1 */
  }

}
 810134a:	bf00      	nop
 810134c:	37f0      	adds	r7, #240	@ 0xf0
 810134e:	46bd      	mov	sp, r7
 8101350:	bd80      	pop	{r7, pc}
 8101352:	bf00      	nop
 8101354:	40013000 	.word	0x40013000
 8101358:	58024400 	.word	0x58024400
 810135c:	58020000 	.word	0x58020000
 8101360:	58020c00 	.word	0x58020c00

08101364 <NMI_Handler>:
/******************************************************************************/
/**
  * @brief This function handles Non maskable interrupt.
  */
void NMI_Handler(void)
{
 8101364:	b480      	push	{r7}
 8101366:	af00      	add	r7, sp, #0
  /* USER CODE BEGIN NonMaskableInt_IRQn 0 */

  /* USER CODE END NonMaskableInt_IRQn 0 */
  /* USER CODE BEGIN NonMaskableInt_IRQn 1 */
   while (1)
 8101368:	bf00      	nop
 810136a:	e7fd      	b.n	8101368 <NMI_Handler+0x4>

0810136c <HardFault_Handler>:

/**
  * @brief This function handles Hard fault interrupt.
  */
void HardFault_Handler(void)
{
 810136c:	b480      	push	{r7}
 810136e:	af00      	add	r7, sp, #0
  /* USER CODE BEGIN HardFault_IRQn 0 */

  /* USER CODE END HardFault_IRQn 0 */
  while (1)
 8101370:	bf00      	nop
 8101372:	e7fd      	b.n	8101370 <HardFault_Handler+0x4>

08101374 <MemManage_Handler>:

/**
  * @brief This function handles Memory management fault.
  */
void MemManage_Handler(void)
{
 8101374:	b480      	push	{r7}
 8101376:	af00      	add	r7, sp, #0
  /* USER CODE BEGIN MemoryManagement_IRQn 0 */

  /* USER CODE END MemoryManagement_IRQn 0 */
  while (1)
 8101378:	bf00      	nop
 810137a:	e7fd      	b.n	8101378 <MemManage_Handler+0x4>

0810137c <BusFault_Handler>:

/**
  * @brief This function handles Pre-fetch fault, memory access fault.
  */
void BusFault_Handler(void)
{
 810137c:	b480      	push	{r7}
 810137e:	af00      	add	r7, sp, #0
  /* USER CODE BEGIN BusFault_IRQn 0 */

  /* USER CODE END BusFault_IRQn 0 */
  while (1)
 8101380:	bf00      	nop
 8101382:	e7fd      	b.n	8101380 <BusFault_Handler+0x4>

08101384 <UsageFault_Handler>:

/**
  * @brief This function handles Undefined instruction or illegal state.
  */
void UsageFault_Handler(void)
{
 8101384:	b480      	push	{r7}
 8101386:	af00      	add	r7, sp, #0
  /* USER CODE BEGIN UsageFault_IRQn 0 */

  /* USER CODE END UsageFault_IRQn 0 */
  while (1)
 8101388:	bf00      	nop
 810138a:	e7fd      	b.n	8101388 <UsageFault_Handler+0x4>

0810138c <SVC_Handler>:

/**
  * @brief This function handles System service call via SWI instruction.
  */
void SVC_Handler(void)
{
 810138c:	b480      	push	{r7}
 810138e:	af00      	add	r7, sp, #0

  /* USER CODE END SVCall_IRQn 0 */
  /* USER CODE BEGIN SVCall_IRQn 1 */

  /* USER CODE END SVCall_IRQn 1 */
}
 8101390:	bf00      	nop
 8101392:	46bd      	mov	sp, r7
 8101394:	f85d 7b04 	ldr.w	r7, [sp], #4
 8101398:	4770      	bx	lr

0810139a <DebugMon_Handler>:

/**
  * @brief This function handles Debug monitor.
  */
void DebugMon_Handler(void)
{
 810139a:	b480      	push	{r7}
 810139c:	af00      	add	r7, sp, #0

  /* USER CODE END DebugMonitor_IRQn 0 */
  /* USER CODE BEGIN DebugMonitor_IRQn 1 */

  /* USER CODE END DebugMonitor_IRQn 1 */
}
 810139e:	bf00      	nop
 81013a0:	46bd      	mov	sp, r7
 81013a2:	f85d 7b04 	ldr.w	r7, [sp], #4
 81013a6:	4770      	bx	lr

081013a8 <PendSV_Handler>:

/**
  * @brief This function handles Pendable request for system service.
  */
void PendSV_Handler(void)
{
 81013a8:	b480      	push	{r7}
 81013aa:	af00      	add	r7, sp, #0

  /* USER CODE END PendSV_IRQn 0 */
  /* USER CODE BEGIN PendSV_IRQn 1 */

  /* USER CODE END PendSV_IRQn 1 */
}
 81013ac:	bf00      	nop
 81013ae:	46bd      	mov	sp, r7
 81013b0:	f85d 7b04 	ldr.w	r7, [sp], #4
 81013b4:	4770      	bx	lr

081013b6 <SysTick_Handler>:

/**
  * @brief This function handles System tick timer.
  */
void SysTick_Handler(void)
{
 81013b6:	b580      	push	{r7, lr}
 81013b8:	af00      	add	r7, sp, #0
  /* USER CODE BEGIN SysTick_IRQn 0 */

  /* USER CODE END SysTick_IRQn 0 */
  HAL_IncTick();
 81013ba:	f000 f8c1 	bl	8101540 <HAL_IncTick>
  /* USER CODE BEGIN SysTick_IRQn 1 */

  /* USER CODE END SysTick_IRQn 1 */
}
 81013be:	bf00      	nop
 81013c0:	bd80      	pop	{r7, pc}
	...

081013c4 <Reset_Handler>:

    .section  .text.Reset_Handler
  .weak  Reset_Handler
  .type  Reset_Handler, %function
Reset_Handler:
  ldr   sp, =_estack      /* set stack pointer */
 81013c4:	f8df d034 	ldr.w	sp, [pc, #52]	@ 81013fc <LoopFillZerobss+0xe>

/* Call the clock system initialization function.*/
  bl  SystemInit
 81013c8:	f7ff f8fe 	bl	81005c8 <SystemInit>

/* Copy the data segment initializers from flash to SRAM */
  ldr r0, =_sdata
 81013cc:	480c      	ldr	r0, [pc, #48]	@ (8101400 <LoopFillZerobss+0x12>)
  ldr r1, =_edata
 81013ce:	490d      	ldr	r1, [pc, #52]	@ (8101404 <LoopFillZerobss+0x16>)
  ldr r2, =_sidata
 81013d0:	4a0d      	ldr	r2, [pc, #52]	@ (8101408 <LoopFillZerobss+0x1a>)
  movs r3, #0
 81013d2:	2300      	movs	r3, #0
  b LoopCopyDataInit
 81013d4:	e002      	b.n	81013dc <LoopCopyDataInit>

081013d6 <CopyDataInit>:

CopyDataInit:
  ldr r4, [r2, r3]
 81013d6:	58d4      	ldr	r4, [r2, r3]
  str r4, [r0, r3]
 81013d8:	50c4      	str	r4, [r0, r3]
  adds r3, r3, #4
 81013da:	3304      	adds	r3, #4

081013dc <LoopCopyDataInit>:

LoopCopyDataInit:
  adds r4, r0, r3
 81013dc:	18c4      	adds	r4, r0, r3
  cmp r4, r1
 81013de:	428c      	cmp	r4, r1
  bcc CopyDataInit
 81013e0:	d3f9      	bcc.n	81013d6 <CopyDataInit>
/* Zero fill the bss segment. */
  ldr r2, =_sbss
 81013e2:	4a0a      	ldr	r2, [pc, #40]	@ (810140c <LoopFillZerobss+0x1e>)
  ldr r4, =_ebss
 81013e4:	4c0a      	ldr	r4, [pc, #40]	@ (8101410 <LoopFillZerobss+0x22>)
  movs r3, #0
 81013e6:	2300      	movs	r3, #0
  b LoopFillZerobss
 81013e8:	e001      	b.n	81013ee <LoopFillZerobss>

081013ea <FillZerobss>:

FillZerobss:
  str  r3, [r2]
 81013ea:	6013      	str	r3, [r2, #0]
  adds r2, r2, #4
 81013ec:	3204      	adds	r2, #4

081013ee <LoopFillZerobss>:

LoopFillZerobss:
  cmp r2, r4
 81013ee:	42a2      	cmp	r2, r4
  bcc FillZerobss
 81013f0:	d3fb      	bcc.n	81013ea <FillZerobss>

/* Call static constructors */
    bl __libc_init_array
 81013f2:	f003 faf1 	bl	81049d8 <__libc_init_array>
/* Call the application's entry point.*/
  bl  main
 81013f6:	f7ff f97d 	bl	81006f4 <main>
  bx  lr
 81013fa:	4770      	bx	lr
  ldr   sp, =_estack      /* set stack pointer */
 81013fc:	10048000 	.word	0x10048000
  ldr r0, =_sdata
 8101400:	10000000 	.word	0x10000000
  ldr r1, =_edata
 8101404:	10000030 	.word	0x10000030
  ldr r2, =_sidata
 8101408:	08104a74 	.word	0x08104a74
  ldr r2, =_sbss
 810140c:	10000030 	.word	0x10000030
  ldr r4, =_ebss
 8101410:	10000124 	.word	0x10000124

08101414 <ADC3_IRQHandler>:
 * @retval None
*/
    .section  .text.Default_Handler,"ax",%progbits
Default_Handler:
Infinite_Loop:
  b  Infinite_Loop
 8101414:	e7fe      	b.n	8101414 <ADC3_IRQHandler>
	...

08101418 <HAL_Init>:
  *         need to ensure that the SysTick time base is always set to 1 millisecond
  *         to have correct HAL operation.
  * @retval HAL status
  */
HAL_StatusTypeDef HAL_Init(void)
{
 8101418:	b580      	push	{r7, lr}
 810141a:	b082      	sub	sp, #8
 810141c:	af00      	add	r7, sp, #0

uint32_t common_system_clock;

#if defined(DUAL_CORE) && defined(CORE_CM4)
   /* Configure Cortex-M4 Instruction cache through ART accelerator */
   __HAL_RCC_ART_CLK_ENABLE();                   /* Enable the Cortex-M4 ART Clock */
 810141e:	4b28      	ldr	r3, [pc, #160]	@ (81014c0 <HAL_Init+0xa8>)
 8101420:	f8d3 30d8 	ldr.w	r3, [r3, #216]	@ 0xd8
 8101424:	4a26      	ldr	r2, [pc, #152]	@ (81014c0 <HAL_Init+0xa8>)
 8101426:	f443 4380 	orr.w	r3, r3, #16384	@ 0x4000
 810142a:	f8c2 30d8 	str.w	r3, [r2, #216]	@ 0xd8
 810142e:	4b24      	ldr	r3, [pc, #144]	@ (81014c0 <HAL_Init+0xa8>)
 8101430:	f8d3 30d8 	ldr.w	r3, [r3, #216]	@ 0xd8
 8101434:	f403 4380 	and.w	r3, r3, #16384	@ 0x4000
 8101438:	603b      	str	r3, [r7, #0]
 810143a:	683b      	ldr	r3, [r7, #0]
   __HAL_ART_CONFIG_BASE_ADDRESS(0x08100000UL);  /* Configure the Cortex-M4 ART Base address to the Flash Bank 2 : */
 810143c:	4b21      	ldr	r3, [pc, #132]	@ (81014c4 <HAL_Init+0xac>)
 810143e:	681b      	ldr	r3, [r3, #0]
 8101440:	f423 237f 	bic.w	r3, r3, #1044480	@ 0xff000
 8101444:	f423 6370 	bic.w	r3, r3, #3840	@ 0xf00
 8101448:	4a1e      	ldr	r2, [pc, #120]	@ (81014c4 <HAL_Init+0xac>)
 810144a:	f443 4301 	orr.w	r3, r3, #33024	@ 0x8100
 810144e:	6013      	str	r3, [r2, #0]
   __HAL_ART_ENABLE();                           /* Enable the Cortex-M4 ART */
 8101450:	4b1c      	ldr	r3, [pc, #112]	@ (81014c4 <HAL_Init+0xac>)
 8101452:	681b      	ldr	r3, [r3, #0]
 8101454:	4a1b      	ldr	r2, [pc, #108]	@ (81014c4 <HAL_Init+0xac>)
 8101456:	f043 0301 	orr.w	r3, r3, #1
 810145a:	6013      	str	r3, [r2, #0]
#endif /* DUAL_CORE &&  CORE_CM4 */

  /* Set Interrupt Group Priority */
  HAL_NVIC_SetPriorityGrouping(NVIC_PRIORITYGROUP_4);
 810145c:	2003      	movs	r0, #3
 810145e:	f000 f965 	bl	810172c <HAL_NVIC_SetPriorityGrouping>

  /* Update the SystemCoreClock global variable */
#if defined(RCC_D1CFGR_D1CPRE)
  common_system_clock = HAL_RCC_GetSysClockFreq() >> ((D1CorePrescTable[(RCC->D1CFGR & RCC_D1CFGR_D1CPRE)>> RCC_D1CFGR_D1CPRE_Pos]) & 0x1FU);
 8101462:	f000 fc27 	bl	8101cb4 <HAL_RCC_GetSysClockFreq>
 8101466:	4602      	mov	r2, r0
 8101468:	4b15      	ldr	r3, [pc, #84]	@ (81014c0 <HAL_Init+0xa8>)
 810146a:	699b      	ldr	r3, [r3, #24]
 810146c:	0a1b      	lsrs	r3, r3, #8
 810146e:	f003 030f 	and.w	r3, r3, #15
 8101472:	4915      	ldr	r1, [pc, #84]	@ (81014c8 <HAL_Init+0xb0>)
 8101474:	5ccb      	ldrb	r3, [r1, r3]
 8101476:	f003 031f 	and.w	r3, r3, #31
 810147a:	fa22 f303 	lsr.w	r3, r2, r3
 810147e:	607b      	str	r3, [r7, #4]
  common_system_clock = HAL_RCC_GetSysClockFreq() >> ((D1CorePrescTable[(RCC->CDCFGR1 & RCC_CDCFGR1_CDCPRE)>> RCC_CDCFGR1_CDCPRE_Pos]) & 0x1FU);
#endif

  /* Update the SystemD2Clock global variable */
#if defined(RCC_D1CFGR_HPRE)
  SystemD2Clock = (common_system_clock >> ((D1CorePrescTable[(RCC->D1CFGR & RCC_D1CFGR_HPRE)>> RCC_D1CFGR_HPRE_Pos]) & 0x1FU));
 8101480:	4b0f      	ldr	r3, [pc, #60]	@ (81014c0 <HAL_Init+0xa8>)
 8101482:	699b      	ldr	r3, [r3, #24]
 8101484:	f003 030f 	and.w	r3, r3, #15
 8101488:	4a0f      	ldr	r2, [pc, #60]	@ (81014c8 <HAL_Init+0xb0>)
 810148a:	5cd3      	ldrb	r3, [r2, r3]
 810148c:	f003 031f 	and.w	r3, r3, #31
 8101490:	687a      	ldr	r2, [r7, #4]
 8101492:	fa22 f303 	lsr.w	r3, r2, r3
 8101496:	4a0d      	ldr	r2, [pc, #52]	@ (81014cc <HAL_Init+0xb4>)
 8101498:	6013      	str	r3, [r2, #0]
#else
  SystemD2Clock = (common_system_clock >> ((D1CorePrescTable[(RCC->CDCFGR1 & RCC_CDCFGR1_HPRE)>> RCC_CDCFGR1_HPRE_Pos]) & 0x1FU));
#endif

#if defined(DUAL_CORE) && defined(CORE_CM4)
  SystemCoreClock = SystemD2Clock;
 810149a:	4b0c      	ldr	r3, [pc, #48]	@ (81014cc <HAL_Init+0xb4>)
 810149c:	681b      	ldr	r3, [r3, #0]
 810149e:	4a0c      	ldr	r2, [pc, #48]	@ (81014d0 <HAL_Init+0xb8>)
 81014a0:	6013      	str	r3, [r2, #0]
#else
  SystemCoreClock = common_system_clock;
#endif /* DUAL_CORE && CORE_CM4 */

  /* Use systick as time base source and configure 1ms tick (default clock after Reset is HSI) */
  if(HAL_InitTick(TICK_INT_PRIORITY) != HAL_OK)
 81014a2:	2000      	movs	r0, #0
 81014a4:	f000 f816 	bl	81014d4 <HAL_InitTick>
 81014a8:	4603      	mov	r3, r0
 81014aa:	2b00      	cmp	r3, #0
 81014ac:	d001      	beq.n	81014b2 <HAL_Init+0x9a>
  {
    return HAL_ERROR;
 81014ae:	2301      	movs	r3, #1
 81014b0:	e002      	b.n	81014b8 <HAL_Init+0xa0>
  }

  /* Init the low level hardware */
  HAL_MspInit();
 81014b2:	f7ff fe9d 	bl	81011f0 <HAL_MspInit>

  /* Return function status */
  return HAL_OK;
 81014b6:	2300      	movs	r3, #0
}
 81014b8:	4618      	mov	r0, r3
 81014ba:	3708      	adds	r7, #8
 81014bc:	46bd      	mov	sp, r7
 81014be:	bd80      	pop	{r7, pc}
 81014c0:	58024400 	.word	0x58024400
 81014c4:	40024400 	.word	0x40024400
 81014c8:	08104a54 	.word	0x08104a54
 81014cc:	10000004 	.word	0x10000004
 81014d0:	10000000 	.word	0x10000000

081014d4 <HAL_InitTick>:
  *       implementation  in user file.
  * @param TickPriority: Tick interrupt priority.
  * @retval HAL status
  */
__weak HAL_StatusTypeDef HAL_InitTick(uint32_t TickPriority)
{
 81014d4:	b580      	push	{r7, lr}
 81014d6:	b082      	sub	sp, #8
 81014d8:	af00      	add	r7, sp, #0
 81014da:	6078      	str	r0, [r7, #4]
  /* Check uwTickFreq for MisraC 2012 (even if uwTickFreq is a enum type that don't take the value zero)*/
  if((uint32_t)uwTickFreq == 0UL)
 81014dc:	4b15      	ldr	r3, [pc, #84]	@ (8101534 <HAL_InitTick+0x60>)
 81014de:	781b      	ldrb	r3, [r3, #0]
 81014e0:	2b00      	cmp	r3, #0
 81014e2:	d101      	bne.n	81014e8 <HAL_InitTick+0x14>
  {
    return HAL_ERROR;
 81014e4:	2301      	movs	r3, #1
 81014e6:	e021      	b.n	810152c <HAL_InitTick+0x58>
  }

    /* Configure the SysTick to have interrupt in 1ms time basis*/
    if (HAL_SYSTICK_Config(SystemCoreClock / (1000UL / (uint32_t)uwTickFreq)) > 0U)
 81014e8:	4b13      	ldr	r3, [pc, #76]	@ (8101538 <HAL_InitTick+0x64>)
 81014ea:	681a      	ldr	r2, [r3, #0]
 81014ec:	4b11      	ldr	r3, [pc, #68]	@ (8101534 <HAL_InitTick+0x60>)
 81014ee:	781b      	ldrb	r3, [r3, #0]
 81014f0:	4619      	mov	r1, r3
 81014f2:	f44f 737a 	mov.w	r3, #1000	@ 0x3e8
 81014f6:	fbb3 f3f1 	udiv	r3, r3, r1
 81014fa:	fbb2 f3f3 	udiv	r3, r2, r3
 81014fe:	4618      	mov	r0, r3
 8101500:	f000 f939 	bl	8101776 <HAL_SYSTICK_Config>
 8101504:	4603      	mov	r3, r0
 8101506:	2b00      	cmp	r3, #0
 8101508:	d001      	beq.n	810150e <HAL_InitTick+0x3a>
    {
      return HAL_ERROR;
 810150a:	2301      	movs	r3, #1
 810150c:	e00e      	b.n	810152c <HAL_InitTick+0x58>
    }

  /* Configure the SysTick IRQ priority */
  if (TickPriority < (1UL << __NVIC_PRIO_BITS))
 810150e:	687b      	ldr	r3, [r7, #4]
 8101510:	2b0f      	cmp	r3, #15
 8101512:	d80a      	bhi.n	810152a <HAL_InitTick+0x56>
  {
    HAL_NVIC_SetPriority(SysTick_IRQn, TickPriority, 0U);
 8101514:	2200      	movs	r2, #0
 8101516:	6879      	ldr	r1, [r7, #4]
 8101518:	f04f 30ff 	mov.w	r0, #4294967295
 810151c:	f000 f911 	bl	8101742 <HAL_NVIC_SetPriority>
    uwTickPrio = TickPriority;
 8101520:	4a06      	ldr	r2, [pc, #24]	@ (810153c <HAL_InitTick+0x68>)
 8101522:	687b      	ldr	r3, [r7, #4]
 8101524:	6013      	str	r3, [r2, #0]
  {
    return HAL_ERROR;
  }

  /* Return function status */
  return HAL_OK;
 8101526:	2300      	movs	r3, #0
 8101528:	e000      	b.n	810152c <HAL_InitTick+0x58>
    return HAL_ERROR;
 810152a:	2301      	movs	r3, #1
}
 810152c:	4618      	mov	r0, r3
 810152e:	3708      	adds	r7, #8
 8101530:	46bd      	mov	sp, r7
 8101532:	bd80      	pop	{r7, pc}
 8101534:	1000002c 	.word	0x1000002c
 8101538:	10000000 	.word	0x10000000
 810153c:	10000028 	.word	0x10000028

08101540 <HAL_IncTick>:
 * @note This function is declared as __weak to be overwritten in case of other
  *      implementations in user file.
  * @retval None
  */
__weak void HAL_IncTick(void)
{
 8101540:	b480      	push	{r7}
 8101542:	af00      	add	r7, sp, #0
  uwTick += (uint32_t)uwTickFreq;
 8101544:	4b06      	ldr	r3, [pc, #24]	@ (8101560 <HAL_IncTick+0x20>)
 8101546:	781b      	ldrb	r3, [r3, #0]
 8101548:	461a      	mov	r2, r3
 810154a:	4b06      	ldr	r3, [pc, #24]	@ (8101564 <HAL_IncTick+0x24>)
 810154c:	681b      	ldr	r3, [r3, #0]
 810154e:	4413      	add	r3, r2
 8101550:	4a04      	ldr	r2, [pc, #16]	@ (8101564 <HAL_IncTick+0x24>)
 8101552:	6013      	str	r3, [r2, #0]
}
 8101554:	bf00      	nop
 8101556:	46bd      	mov	sp, r7
 8101558:	f85d 7b04 	ldr.w	r7, [sp], #4
 810155c:	4770      	bx	lr
 810155e:	bf00      	nop
 8101560:	1000002c 	.word	0x1000002c
 8101564:	10000120 	.word	0x10000120

08101568 <HAL_GetTick>:
  * @note This function is declared as __weak to be overwritten in case of other
  *       implementations in user file.
  * @retval tick value
  */
__weak uint32_t HAL_GetTick(void)
{
 8101568:	b480      	push	{r7}
 810156a:	af00      	add	r7, sp, #0
  return uwTick;
 810156c:	4b03      	ldr	r3, [pc, #12]	@ (810157c <HAL_GetTick+0x14>)
 810156e:	681b      	ldr	r3, [r3, #0]
}
 8101570:	4618      	mov	r0, r3
 8101572:	46bd      	mov	sp, r7
 8101574:	f85d 7b04 	ldr.w	r7, [sp], #4
 8101578:	4770      	bx	lr
 810157a:	bf00      	nop
 810157c:	10000120 	.word	0x10000120

08101580 <HAL_Delay>:
  *       implementations in user file.
  * @param Delay  specifies the delay time length, in milliseconds.
  * @retval None
  */
__weak void HAL_Delay(uint32_t Delay)
{
 8101580:	b580      	push	{r7, lr}
 8101582:	b084      	sub	sp, #16
 8101584:	af00      	add	r7, sp, #0
 8101586:	6078      	str	r0, [r7, #4]
  uint32_t tickstart = HAL_GetTick();
 8101588:	f7ff ffee 	bl	8101568 <HAL_GetTick>
 810158c:	60b8      	str	r0, [r7, #8]
  uint32_t wait = Delay;
 810158e:	687b      	ldr	r3, [r7, #4]
 8101590:	60fb      	str	r3, [r7, #12]

  /* Add a freq to guarantee minimum wait */
  if (wait < HAL_MAX_DELAY)
 8101592:	68fb      	ldr	r3, [r7, #12]
 8101594:	f1b3 3fff 	cmp.w	r3, #4294967295
 8101598:	d005      	beq.n	81015a6 <HAL_Delay+0x26>
  {
    wait += (uint32_t)(uwTickFreq);
 810159a:	4b0a      	ldr	r3, [pc, #40]	@ (81015c4 <HAL_Delay+0x44>)
 810159c:	781b      	ldrb	r3, [r3, #0]
 810159e:	461a      	mov	r2, r3
 81015a0:	68fb      	ldr	r3, [r7, #12]
 81015a2:	4413      	add	r3, r2
 81015a4:	60fb      	str	r3, [r7, #12]
  }

  while ((HAL_GetTick() - tickstart) < wait)
 81015a6:	bf00      	nop
 81015a8:	f7ff ffde 	bl	8101568 <HAL_GetTick>
 81015ac:	4602      	mov	r2, r0
 81015ae:	68bb      	ldr	r3, [r7, #8]
 81015b0:	1ad3      	subs	r3, r2, r3
 81015b2:	68fa      	ldr	r2, [r7, #12]
 81015b4:	429a      	cmp	r2, r3
 81015b6:	d8f7      	bhi.n	81015a8 <HAL_Delay+0x28>
  {
  }
}
 81015b8:	bf00      	nop
 81015ba:	bf00      	nop
 81015bc:	3710      	adds	r7, #16
 81015be:	46bd      	mov	sp, r7
 81015c0:	bd80      	pop	{r7, pc}
 81015c2:	bf00      	nop
 81015c4:	1000002c 	.word	0x1000002c

081015c8 <__NVIC_SetPriorityGrouping>:
           In case of a conflict between priority grouping and available
           priority bits (__NVIC_PRIO_BITS), the smallest possible priority group is set.
  \param [in]      PriorityGroup  Priority grouping field.
 */
__STATIC_INLINE void __NVIC_SetPriorityGrouping(uint32_t PriorityGroup)
{
 81015c8:	b480      	push	{r7}
 81015ca:	b085      	sub	sp, #20
 81015cc:	af00      	add	r7, sp, #0
 81015ce:	6078      	str	r0, [r7, #4]
  uint32_t reg_value;
  uint32_t PriorityGroupTmp = (PriorityGroup & (uint32_t)0x07UL);             /* only values 0..7 are used          */
 81015d0:	687b      	ldr	r3, [r7, #4]
 81015d2:	f003 0307 	and.w	r3, r3, #7
 81015d6:	60fb      	str	r3, [r7, #12]

  reg_value  =  SCB->AIRCR;                                                   /* read old register configuration    */
 81015d8:	4b0c      	ldr	r3, [pc, #48]	@ (810160c <__NVIC_SetPriorityGrouping+0x44>)
 81015da:	68db      	ldr	r3, [r3, #12]
 81015dc:	60bb      	str	r3, [r7, #8]
  reg_value &= ~((uint32_t)(SCB_AIRCR_VECTKEY_Msk | SCB_AIRCR_PRIGROUP_Msk)); /* clear bits to change               */
 81015de:	68ba      	ldr	r2, [r7, #8]
 81015e0:	f64f 03ff 	movw	r3, #63743	@ 0xf8ff
 81015e4:	4013      	ands	r3, r2
 81015e6:	60bb      	str	r3, [r7, #8]
  reg_value  =  (reg_value                                   |
                ((uint32_t)0x5FAUL << SCB_AIRCR_VECTKEY_Pos) |
                (PriorityGroupTmp << SCB_AIRCR_PRIGROUP_Pos)  );              /* Insert write key and priority group */
 81015e8:	68fb      	ldr	r3, [r7, #12]
 81015ea:	021a      	lsls	r2, r3, #8
                ((uint32_t)0x5FAUL << SCB_AIRCR_VECTKEY_Pos) |
 81015ec:	68bb      	ldr	r3, [r7, #8]
 81015ee:	4313      	orrs	r3, r2
  reg_value  =  (reg_value                                   |
 81015f0:	f043 63bf 	orr.w	r3, r3, #100139008	@ 0x5f80000
 81015f4:	f443 3300 	orr.w	r3, r3, #131072	@ 0x20000
 81015f8:	60bb      	str	r3, [r7, #8]
  SCB->AIRCR =  reg_value;
 81015fa:	4a04      	ldr	r2, [pc, #16]	@ (810160c <__NVIC_SetPriorityGrouping+0x44>)
 81015fc:	68bb      	ldr	r3, [r7, #8]
 81015fe:	60d3      	str	r3, [r2, #12]
}
 8101600:	bf00      	nop
 8101602:	3714      	adds	r7, #20
 8101604:	46bd      	mov	sp, r7
 8101606:	f85d 7b04 	ldr.w	r7, [sp], #4
 810160a:	4770      	bx	lr
 810160c:	e000ed00 	.word	0xe000ed00

08101610 <__NVIC_GetPriorityGrouping>:
  \brief   Get Priority Grouping
  \details Reads the priority grouping field from the NVIC Interrupt Controller.
  \return                Priority grouping field (SCB->AIRCR [10:8] PRIGROUP field).
 */
__STATIC_INLINE uint32_t __NVIC_GetPriorityGrouping(void)
{
 8101610:	b480      	push	{r7}
 8101612:	af00      	add	r7, sp, #0
  return ((uint32_t)((SCB->AIRCR & SCB_AIRCR_PRIGROUP_Msk) >> SCB_AIRCR_PRIGROUP_Pos));
 8101614:	4b04      	ldr	r3, [pc, #16]	@ (8101628 <__NVIC_GetPriorityGrouping+0x18>)
 8101616:	68db      	ldr	r3, [r3, #12]
 8101618:	0a1b      	lsrs	r3, r3, #8
 810161a:	f003 0307 	and.w	r3, r3, #7
}
 810161e:	4618      	mov	r0, r3
 8101620:	46bd      	mov	sp, r7
 8101622:	f85d 7b04 	ldr.w	r7, [sp], #4
 8101626:	4770      	bx	lr
 8101628:	e000ed00 	.word	0xe000ed00

0810162c <__NVIC_SetPriority>:
  \param [in]      IRQn  Interrupt number.
  \param [in]  priority  Priority to set.
  \note    The priority cannot be set for every processor exception.
 */
__STATIC_INLINE void __NVIC_SetPriority(IRQn_Type IRQn, uint32_t priority)
{
 810162c:	b480      	push	{r7}
 810162e:	b083      	sub	sp, #12
 8101630:	af00      	add	r7, sp, #0
 8101632:	4603      	mov	r3, r0
 8101634:	6039      	str	r1, [r7, #0]
 8101636:	80fb      	strh	r3, [r7, #6]
  if ((int32_t)(IRQn) >= 0)
 8101638:	f9b7 3006 	ldrsh.w	r3, [r7, #6]
 810163c:	2b00      	cmp	r3, #0
 810163e:	db0a      	blt.n	8101656 <__NVIC_SetPriority+0x2a>
  {
    NVIC->IP[((uint32_t)IRQn)]               = (uint8_t)((priority << (8U - __NVIC_PRIO_BITS)) & (uint32_t)0xFFUL);
 8101640:	683b      	ldr	r3, [r7, #0]
 8101642:	b2da      	uxtb	r2, r3
 8101644:	490c      	ldr	r1, [pc, #48]	@ (8101678 <__NVIC_SetPriority+0x4c>)
 8101646:	f9b7 3006 	ldrsh.w	r3, [r7, #6]
 810164a:	0112      	lsls	r2, r2, #4
 810164c:	b2d2      	uxtb	r2, r2
 810164e:	440b      	add	r3, r1
 8101650:	f883 2300 	strb.w	r2, [r3, #768]	@ 0x300
  }
  else
  {
    SCB->SHP[(((uint32_t)IRQn) & 0xFUL)-4UL] = (uint8_t)((priority << (8U - __NVIC_PRIO_BITS)) & (uint32_t)0xFFUL);
  }
}
 8101654:	e00a      	b.n	810166c <__NVIC_SetPriority+0x40>
    SCB->SHP[(((uint32_t)IRQn) & 0xFUL)-4UL] = (uint8_t)((priority << (8U - __NVIC_PRIO_BITS)) & (uint32_t)0xFFUL);
 8101656:	683b      	ldr	r3, [r7, #0]
 8101658:	b2da      	uxtb	r2, r3
 810165a:	4908      	ldr	r1, [pc, #32]	@ (810167c <__NVIC_SetPriority+0x50>)
 810165c:	88fb      	ldrh	r3, [r7, #6]
 810165e:	f003 030f 	and.w	r3, r3, #15
 8101662:	3b04      	subs	r3, #4
 8101664:	0112      	lsls	r2, r2, #4
 8101666:	b2d2      	uxtb	r2, r2
 8101668:	440b      	add	r3, r1
 810166a:	761a      	strb	r2, [r3, #24]
}
 810166c:	bf00      	nop
 810166e:	370c      	adds	r7, #12
 8101670:	46bd      	mov	sp, r7
 8101672:	f85d 7b04 	ldr.w	r7, [sp], #4
 8101676:	4770      	bx	lr
 8101678:	e000e100 	.word	0xe000e100
 810167c:	e000ed00 	.word	0xe000ed00

08101680 <NVIC_EncodePriority>:
  \param [in]   PreemptPriority  Preemptive priority value (starting from 0).
  \param [in]       SubPriority  Subpriority value (starting from 0).
  \return                        Encoded priority. Value can be used in the function \ref NVIC_SetPriority().
 */
__STATIC_INLINE uint32_t NVIC_EncodePriority (uint32_t PriorityGroup, uint32_t PreemptPriority, uint32_t SubPriority)
{
 8101680:	b480      	push	{r7}
 8101682:	b089      	sub	sp, #36	@ 0x24
 8101684:	af00      	add	r7, sp, #0
 8101686:	60f8      	str	r0, [r7, #12]
 8101688:	60b9      	str	r1, [r7, #8]
 810168a:	607a      	str	r2, [r7, #4]
  uint32_t PriorityGroupTmp = (PriorityGroup & (uint32_t)0x07UL);   /* only values 0..7 are used          */
 810168c:	68fb      	ldr	r3, [r7, #12]
 810168e:	f003 0307 	and.w	r3, r3, #7
 8101692:	61fb      	str	r3, [r7, #28]
  uint32_t PreemptPriorityBits;
  uint32_t SubPriorityBits;

  PreemptPriorityBits = ((7UL - PriorityGroupTmp) > (uint32_t)(__NVIC_PRIO_BITS)) ? (uint32_t)(__NVIC_PRIO_BITS) : (uint32_t)(7UL - PriorityGroupTmp);
 8101694:	69fb      	ldr	r3, [r7, #28]
 8101696:	f1c3 0307 	rsb	r3, r3, #7
 810169a:	2b04      	cmp	r3, #4
 810169c:	bf28      	it	cs
 810169e:	2304      	movcs	r3, #4
 81016a0:	61bb      	str	r3, [r7, #24]
  SubPriorityBits     = ((PriorityGroupTmp + (uint32_t)(__NVIC_PRIO_BITS)) < (uint32_t)7UL) ? (uint32_t)0UL : (uint32_t)((PriorityGroupTmp - 7UL) + (uint32_t)(__NVIC_PRIO_BITS));
 81016a2:	69fb      	ldr	r3, [r7, #28]
 81016a4:	3304      	adds	r3, #4
 81016a6:	2b06      	cmp	r3, #6
 81016a8:	d902      	bls.n	81016b0 <NVIC_EncodePriority+0x30>
 81016aa:	69fb      	ldr	r3, [r7, #28]
 81016ac:	3b03      	subs	r3, #3
 81016ae:	e000      	b.n	81016b2 <NVIC_EncodePriority+0x32>
 81016b0:	2300      	movs	r3, #0
 81016b2:	617b      	str	r3, [r7, #20]

  return (
           ((PreemptPriority & (uint32_t)((1UL << (PreemptPriorityBits)) - 1UL)) << SubPriorityBits) |
 81016b4:	f04f 32ff 	mov.w	r2, #4294967295
 81016b8:	69bb      	ldr	r3, [r7, #24]
 81016ba:	fa02 f303 	lsl.w	r3, r2, r3
 81016be:	43da      	mvns	r2, r3
 81016c0:	68bb      	ldr	r3, [r7, #8]
 81016c2:	401a      	ands	r2, r3
 81016c4:	697b      	ldr	r3, [r7, #20]
 81016c6:	409a      	lsls	r2, r3
           ((SubPriority     & (uint32_t)((1UL << (SubPriorityBits    )) - 1UL)))
 81016c8:	f04f 31ff 	mov.w	r1, #4294967295
 81016cc:	697b      	ldr	r3, [r7, #20]
 81016ce:	fa01 f303 	lsl.w	r3, r1, r3
 81016d2:	43d9      	mvns	r1, r3
 81016d4:	687b      	ldr	r3, [r7, #4]
 81016d6:	400b      	ands	r3, r1
           ((PreemptPriority & (uint32_t)((1UL << (PreemptPriorityBits)) - 1UL)) << SubPriorityBits) |
 81016d8:	4313      	orrs	r3, r2
         );
}
 81016da:	4618      	mov	r0, r3
 81016dc:	3724      	adds	r7, #36	@ 0x24
 81016de:	46bd      	mov	sp, r7
 81016e0:	f85d 7b04 	ldr.w	r7, [sp], #4
 81016e4:	4770      	bx	lr
	...

081016e8 <SysTick_Config>:
  \note    When the variable <b>__Vendor_SysTickConfig</b> is set to 1, then the
           function <b>SysTick_Config</b> is not included. In this case, the file <b><i>device</i>.h</b>
           must contain a vendor-specific implementation of this function.
 */
__STATIC_INLINE uint32_t SysTick_Config(uint32_t ticks)
{
 81016e8:	b580      	push	{r7, lr}
 81016ea:	b082      	sub	sp, #8
 81016ec:	af00      	add	r7, sp, #0
 81016ee:	6078      	str	r0, [r7, #4]
  if ((ticks - 1UL) > SysTick_LOAD_RELOAD_Msk)
 81016f0:	687b      	ldr	r3, [r7, #4]
 81016f2:	3b01      	subs	r3, #1
 81016f4:	f1b3 7f80 	cmp.w	r3, #16777216	@ 0x1000000
 81016f8:	d301      	bcc.n	81016fe <SysTick_Config+0x16>
  {
    return (1UL);                                                   /* Reload value impossible */
 81016fa:	2301      	movs	r3, #1
 81016fc:	e00f      	b.n	810171e <SysTick_Config+0x36>
  }

  SysTick->LOAD  = (uint32_t)(ticks - 1UL);                         /* set reload register */
 81016fe:	4a0a      	ldr	r2, [pc, #40]	@ (8101728 <SysTick_Config+0x40>)
 8101700:	687b      	ldr	r3, [r7, #4]
 8101702:	3b01      	subs	r3, #1
 8101704:	6053      	str	r3, [r2, #4]
  NVIC_SetPriority (SysTick_IRQn, (1UL << __NVIC_PRIO_BITS) - 1UL); /* set Priority for Systick Interrupt */
 8101706:	210f      	movs	r1, #15
 8101708:	f04f 30ff 	mov.w	r0, #4294967295
 810170c:	f7ff ff8e 	bl	810162c <__NVIC_SetPriority>
  SysTick->VAL   = 0UL;                                             /* Load the SysTick Counter Value */
 8101710:	4b05      	ldr	r3, [pc, #20]	@ (8101728 <SysTick_Config+0x40>)
 8101712:	2200      	movs	r2, #0
 8101714:	609a      	str	r2, [r3, #8]
  SysTick->CTRL  = SysTick_CTRL_CLKSOURCE_Msk |
 8101716:	4b04      	ldr	r3, [pc, #16]	@ (8101728 <SysTick_Config+0x40>)
 8101718:	2207      	movs	r2, #7
 810171a:	601a      	str	r2, [r3, #0]
                   SysTick_CTRL_TICKINT_Msk   |
                   SysTick_CTRL_ENABLE_Msk;                         /* Enable SysTick IRQ and SysTick Timer */
  return (0UL);                                                     /* Function successful */
 810171c:	2300      	movs	r3, #0
}
 810171e:	4618      	mov	r0, r3
 8101720:	3708      	adds	r7, #8
 8101722:	46bd      	mov	sp, r7
 8101724:	bd80      	pop	{r7, pc}
 8101726:	bf00      	nop
 8101728:	e000e010 	.word	0xe000e010

0810172c <HAL_NVIC_SetPriorityGrouping>:
  * @note   When the NVIC_PriorityGroup_0 is selected, IRQ preemption is no more possible.
  *         The pending IRQ priority will be managed only by the subpriority.
  * @retval None
  */
void HAL_NVIC_SetPriorityGrouping(uint32_t PriorityGroup)
{
 810172c:	b580      	push	{r7, lr}
 810172e:	b082      	sub	sp, #8
 8101730:	af00      	add	r7, sp, #0
 8101732:	6078      	str	r0, [r7, #4]
  /* Check the parameters */
  assert_param(IS_NVIC_PRIORITY_GROUP(PriorityGroup));

  /* Set the PRIGROUP[10:8] bits according to the PriorityGroup parameter value */
  NVIC_SetPriorityGrouping(PriorityGroup);
 8101734:	6878      	ldr	r0, [r7, #4]
 8101736:	f7ff ff47 	bl	81015c8 <__NVIC_SetPriorityGrouping>
}
 810173a:	bf00      	nop
 810173c:	3708      	adds	r7, #8
 810173e:	46bd      	mov	sp, r7
 8101740:	bd80      	pop	{r7, pc}

08101742 <HAL_NVIC_SetPriority>:
  *         This parameter can be a value between 0 and 15
  *         A lower priority value indicates a higher priority.
  * @retval None
  */
void HAL_NVIC_SetPriority(IRQn_Type IRQn, uint32_t PreemptPriority, uint32_t SubPriority)
{
 8101742:	b580      	push	{r7, lr}
 8101744:	b086      	sub	sp, #24
 8101746:	af00      	add	r7, sp, #0
 8101748:	4603      	mov	r3, r0
 810174a:	60b9      	str	r1, [r7, #8]
 810174c:	607a      	str	r2, [r7, #4]
 810174e:	81fb      	strh	r3, [r7, #14]

  /* Check the parameters */
  assert_param(IS_NVIC_SUB_PRIORITY(SubPriority));
  assert_param(IS_NVIC_PREEMPTION_PRIORITY(PreemptPriority));

  prioritygroup = NVIC_GetPriorityGrouping();
 8101750:	f7ff ff5e 	bl	8101610 <__NVIC_GetPriorityGrouping>
 8101754:	6178      	str	r0, [r7, #20]

  NVIC_SetPriority(IRQn, NVIC_EncodePriority(prioritygroup, PreemptPriority, SubPriority));
 8101756:	687a      	ldr	r2, [r7, #4]
 8101758:	68b9      	ldr	r1, [r7, #8]
 810175a:	6978      	ldr	r0, [r7, #20]
 810175c:	f7ff ff90 	bl	8101680 <NVIC_EncodePriority>
 8101760:	4602      	mov	r2, r0
 8101762:	f9b7 300e 	ldrsh.w	r3, [r7, #14]
 8101766:	4611      	mov	r1, r2
 8101768:	4618      	mov	r0, r3
 810176a:	f7ff ff5f 	bl	810162c <__NVIC_SetPriority>
}
 810176e:	bf00      	nop
 8101770:	3718      	adds	r7, #24
 8101772:	46bd      	mov	sp, r7
 8101774:	bd80      	pop	{r7, pc}

08101776 <HAL_SYSTICK_Config>:
  * @param  TicksNumb Specifies the ticks Number of ticks between two interrupts.
  * @retval status   - 0  Function succeeded.
  *                  - 1  Function failed.
  */
uint32_t HAL_SYSTICK_Config(uint32_t TicksNumb)
{
 8101776:	b580      	push	{r7, lr}
 8101778:	b082      	sub	sp, #8
 810177a:	af00      	add	r7, sp, #0
 810177c:	6078      	str	r0, [r7, #4]
   return SysTick_Config(TicksNumb);
 810177e:	6878      	ldr	r0, [r7, #4]
 8101780:	f7ff ffb2 	bl	81016e8 <SysTick_Config>
 8101784:	4603      	mov	r3, r0
}
 8101786:	4618      	mov	r0, r3
 8101788:	3708      	adds	r7, #8
 810178a:	46bd      	mov	sp, r7
 810178c:	bd80      	pop	{r7, pc}
	...

08101790 <HAL_GetCurrentCPUID>:
/**
  * @brief  Returns the current CPU ID.
  * @retval CPU identifier
  */
uint32_t HAL_GetCurrentCPUID(void)
{
 8101790:	b480      	push	{r7}
 8101792:	af00      	add	r7, sp, #0
  if (((SCB->CPUID & 0x000000F0U) >> 4 )== 0x7U)
 8101794:	4b07      	ldr	r3, [pc, #28]	@ (81017b4 <HAL_GetCurrentCPUID+0x24>)
 8101796:	681b      	ldr	r3, [r3, #0]
 8101798:	091b      	lsrs	r3, r3, #4
 810179a:	f003 030f 	and.w	r3, r3, #15
 810179e:	2b07      	cmp	r3, #7
 81017a0:	d101      	bne.n	81017a6 <HAL_GetCurrentCPUID+0x16>
  {
    return  CM7_CPUID;
 81017a2:	2303      	movs	r3, #3
 81017a4:	e000      	b.n	81017a8 <HAL_GetCurrentCPUID+0x18>
  }
  else
  {
    return CM4_CPUID;
 81017a6:	2301      	movs	r3, #1
  }
}
 81017a8:	4618      	mov	r0, r3
 81017aa:	46bd      	mov	sp, r7
 81017ac:	f85d 7b04 	ldr.w	r7, [sp], #4
 81017b0:	4770      	bx	lr
 81017b2:	bf00      	nop
 81017b4:	e000ed00 	.word	0xe000ed00

081017b8 <HAL_GPIO_Init>:
  * @param  GPIO_Init: pointer to a GPIO_InitTypeDef structure that contains
  *         the configuration information for the specified GPIO peripheral.
  * @retval None
  */
void HAL_GPIO_Init(GPIO_TypeDef  *GPIOx, GPIO_InitTypeDef *GPIO_Init)
{
 81017b8:	b480      	push	{r7}
 81017ba:	b089      	sub	sp, #36	@ 0x24
 81017bc:	af00      	add	r7, sp, #0
 81017be:	6078      	str	r0, [r7, #4]
 81017c0:	6039      	str	r1, [r7, #0]
  uint32_t position = 0x00U;
 81017c2:	2300      	movs	r3, #0
 81017c4:	61fb      	str	r3, [r7, #28]
  uint32_t iocurrent;
  uint32_t temp;
  EXTI_Core_TypeDef *EXTI_CurrentCPU;

#if defined(DUAL_CORE) && defined(CORE_CM4)
  EXTI_CurrentCPU = EXTI_D2; /* EXTI for CM4 CPU */
 81017c6:	4b89      	ldr	r3, [pc, #548]	@ (81019ec <HAL_GPIO_Init+0x234>)
 81017c8:	617b      	str	r3, [r7, #20]
  assert_param(IS_GPIO_ALL_INSTANCE(GPIOx));
  assert_param(IS_GPIO_PIN(GPIO_Init->Pin));
  assert_param(IS_GPIO_MODE(GPIO_Init->Mode));

  /* Configure the port pins */
  while (((GPIO_Init->Pin) >> position) != 0x00U)
 81017ca:	e194      	b.n	8101af6 <HAL_GPIO_Init+0x33e>
  {
    /* Get current io position */
    iocurrent = (GPIO_Init->Pin) & (1UL << position);
 81017cc:	683b      	ldr	r3, [r7, #0]
 81017ce:	681a      	ldr	r2, [r3, #0]
 81017d0:	2101      	movs	r1, #1
 81017d2:	69fb      	ldr	r3, [r7, #28]
 81017d4:	fa01 f303 	lsl.w	r3, r1, r3
 81017d8:	4013      	ands	r3, r2
 81017da:	613b      	str	r3, [r7, #16]

    if (iocurrent != 0x00U)
 81017dc:	693b      	ldr	r3, [r7, #16]
 81017de:	2b00      	cmp	r3, #0
 81017e0:	f000 8186 	beq.w	8101af0 <HAL_GPIO_Init+0x338>
    {
      /*--------------------- GPIO Mode Configuration ------------------------*/
      /* In case of Output or Alternate function mode selection */
      if (((GPIO_Init->Mode & GPIO_MODE) == MODE_OUTPUT) || ((GPIO_Init->Mode & GPIO_MODE) == MODE_AF))
 81017e4:	683b      	ldr	r3, [r7, #0]
 81017e6:	685b      	ldr	r3, [r3, #4]
 81017e8:	f003 0303 	and.w	r3, r3, #3
 81017ec:	2b01      	cmp	r3, #1
 81017ee:	d005      	beq.n	81017fc <HAL_GPIO_Init+0x44>
 81017f0:	683b      	ldr	r3, [r7, #0]
 81017f2:	685b      	ldr	r3, [r3, #4]
 81017f4:	f003 0303 	and.w	r3, r3, #3
 81017f8:	2b02      	cmp	r3, #2
 81017fa:	d130      	bne.n	810185e <HAL_GPIO_Init+0xa6>
      {
        /* Check the Speed parameter */
        assert_param(IS_GPIO_SPEED(GPIO_Init->Speed));

        /* Configure the IO Speed */
        temp = GPIOx->OSPEEDR;
 81017fc:	687b      	ldr	r3, [r7, #4]
 81017fe:	689b      	ldr	r3, [r3, #8]
 8101800:	61bb      	str	r3, [r7, #24]
        temp &= ~(GPIO_OSPEEDR_OSPEED0 << (position * 2U));
 8101802:	69fb      	ldr	r3, [r7, #28]
 8101804:	005b      	lsls	r3, r3, #1
 8101806:	2203      	movs	r2, #3
 8101808:	fa02 f303 	lsl.w	r3, r2, r3
 810180c:	43db      	mvns	r3, r3
 810180e:	69ba      	ldr	r2, [r7, #24]
 8101810:	4013      	ands	r3, r2
 8101812:	61bb      	str	r3, [r7, #24]
        temp |= (GPIO_Init->Speed << (position * 2U));
 8101814:	683b      	ldr	r3, [r7, #0]
 8101816:	68da      	ldr	r2, [r3, #12]
 8101818:	69fb      	ldr	r3, [r7, #28]
 810181a:	005b      	lsls	r3, r3, #1
 810181c:	fa02 f303 	lsl.w	r3, r2, r3
 8101820:	69ba      	ldr	r2, [r7, #24]
 8101822:	4313      	orrs	r3, r2
 8101824:	61bb      	str	r3, [r7, #24]
        GPIOx->OSPEEDR = temp;
 8101826:	687b      	ldr	r3, [r7, #4]
 8101828:	69ba      	ldr	r2, [r7, #24]
 810182a:	609a      	str	r2, [r3, #8]

        /* Configure the IO Output Type */
        temp = GPIOx->OTYPER;
 810182c:	687b      	ldr	r3, [r7, #4]
 810182e:	685b      	ldr	r3, [r3, #4]
 8101830:	61bb      	str	r3, [r7, #24]
        temp &= ~(GPIO_OTYPER_OT0 << position) ;
 8101832:	2201      	movs	r2, #1
 8101834:	69fb      	ldr	r3, [r7, #28]
 8101836:	fa02 f303 	lsl.w	r3, r2, r3
 810183a:	43db      	mvns	r3, r3
 810183c:	69ba      	ldr	r2, [r7, #24]
 810183e:	4013      	ands	r3, r2
 8101840:	61bb      	str	r3, [r7, #24]
        temp |= (((GPIO_Init->Mode & OUTPUT_TYPE) >> OUTPUT_TYPE_Pos) << position);
 8101842:	683b      	ldr	r3, [r7, #0]
 8101844:	685b      	ldr	r3, [r3, #4]
 8101846:	091b      	lsrs	r3, r3, #4
 8101848:	f003 0201 	and.w	r2, r3, #1
 810184c:	69fb      	ldr	r3, [r7, #28]
 810184e:	fa02 f303 	lsl.w	r3, r2, r3
 8101852:	69ba      	ldr	r2, [r7, #24]
 8101854:	4313      	orrs	r3, r2
 8101856:	61bb      	str	r3, [r7, #24]
        GPIOx->OTYPER = temp;
 8101858:	687b      	ldr	r3, [r7, #4]
 810185a:	69ba      	ldr	r2, [r7, #24]
 810185c:	605a      	str	r2, [r3, #4]
      }

      if ((GPIO_Init->Mode & GPIO_MODE) != MODE_ANALOG)
 810185e:	683b      	ldr	r3, [r7, #0]
 8101860:	685b      	ldr	r3, [r3, #4]
 8101862:	f003 0303 	and.w	r3, r3, #3
 8101866:	2b03      	cmp	r3, #3
 8101868:	d017      	beq.n	810189a <HAL_GPIO_Init+0xe2>
      {
       /* Check the Pull parameter */
       assert_param(IS_GPIO_PULL(GPIO_Init->Pull));

      /* Activate the Pull-up or Pull down resistor for the current IO */
      temp = GPIOx->PUPDR;
 810186a:	687b      	ldr	r3, [r7, #4]
 810186c:	68db      	ldr	r3, [r3, #12]
 810186e:	61bb      	str	r3, [r7, #24]
      temp &= ~(GPIO_PUPDR_PUPD0 << (position * 2U));
 8101870:	69fb      	ldr	r3, [r7, #28]
 8101872:	005b      	lsls	r3, r3, #1
 8101874:	2203      	movs	r2, #3
 8101876:	fa02 f303 	lsl.w	r3, r2, r3
 810187a:	43db      	mvns	r3, r3
 810187c:	69ba      	ldr	r2, [r7, #24]
 810187e:	4013      	ands	r3, r2
 8101880:	61bb      	str	r3, [r7, #24]
      temp |= ((GPIO_Init->Pull) << (position * 2U));
 8101882:	683b      	ldr	r3, [r7, #0]
 8101884:	689a      	ldr	r2, [r3, #8]
 8101886:	69fb      	ldr	r3, [r7, #28]
 8101888:	005b      	lsls	r3, r3, #1
 810188a:	fa02 f303 	lsl.w	r3, r2, r3
 810188e:	69ba      	ldr	r2, [r7, #24]
 8101890:	4313      	orrs	r3, r2
 8101892:	61bb      	str	r3, [r7, #24]
      GPIOx->PUPDR = temp;
 8101894:	687b      	ldr	r3, [r7, #4]
 8101896:	69ba      	ldr	r2, [r7, #24]
 8101898:	60da      	str	r2, [r3, #12]
      }

      /* In case of Alternate function mode selection */
      if ((GPIO_Init->Mode & GPIO_MODE) == MODE_AF)
 810189a:	683b      	ldr	r3, [r7, #0]
 810189c:	685b      	ldr	r3, [r3, #4]
 810189e:	f003 0303 	and.w	r3, r3, #3
 81018a2:	2b02      	cmp	r3, #2
 81018a4:	d123      	bne.n	81018ee <HAL_GPIO_Init+0x136>
        /* Check the Alternate function parameters */
        assert_param(IS_GPIO_AF_INSTANCE(GPIOx));
        assert_param(IS_GPIO_AF(GPIO_Init->Alternate));

        /* Configure Alternate function mapped with the current IO */
        temp = GPIOx->AFR[position >> 3U];
 81018a6:	69fb      	ldr	r3, [r7, #28]
 81018a8:	08da      	lsrs	r2, r3, #3
 81018aa:	687b      	ldr	r3, [r7, #4]
 81018ac:	3208      	adds	r2, #8
 81018ae:	f853 3022 	ldr.w	r3, [r3, r2, lsl #2]
 81018b2:	61bb      	str	r3, [r7, #24]
        temp &= ~(0xFU << ((position & 0x07U) * 4U));
 81018b4:	69fb      	ldr	r3, [r7, #28]
 81018b6:	f003 0307 	and.w	r3, r3, #7
 81018ba:	009b      	lsls	r3, r3, #2
 81018bc:	220f      	movs	r2, #15
 81018be:	fa02 f303 	lsl.w	r3, r2, r3
 81018c2:	43db      	mvns	r3, r3
 81018c4:	69ba      	ldr	r2, [r7, #24]
 81018c6:	4013      	ands	r3, r2
 81018c8:	61bb      	str	r3, [r7, #24]
        temp |= ((GPIO_Init->Alternate) << ((position & 0x07U) * 4U));
 81018ca:	683b      	ldr	r3, [r7, #0]
 81018cc:	691a      	ldr	r2, [r3, #16]
 81018ce:	69fb      	ldr	r3, [r7, #28]
 81018d0:	f003 0307 	and.w	r3, r3, #7
 81018d4:	009b      	lsls	r3, r3, #2
 81018d6:	fa02 f303 	lsl.w	r3, r2, r3
 81018da:	69ba      	ldr	r2, [r7, #24]
 81018dc:	4313      	orrs	r3, r2
 81018de:	61bb      	str	r3, [r7, #24]
        GPIOx->AFR[position >> 3U] = temp;
 81018e0:	69fb      	ldr	r3, [r7, #28]
 81018e2:	08da      	lsrs	r2, r3, #3
 81018e4:	687b      	ldr	r3, [r7, #4]
 81018e6:	3208      	adds	r2, #8
 81018e8:	69b9      	ldr	r1, [r7, #24]
 81018ea:	f843 1022 	str.w	r1, [r3, r2, lsl #2]
      }

      /* Configure IO Direction mode (Input, Output, Alternate or Analog) */
      temp = GPIOx->MODER;
 81018ee:	687b      	ldr	r3, [r7, #4]
 81018f0:	681b      	ldr	r3, [r3, #0]
 81018f2:	61bb      	str	r3, [r7, #24]
      temp &= ~(GPIO_MODER_MODE0 << (position * 2U));
 81018f4:	69fb      	ldr	r3, [r7, #28]
 81018f6:	005b      	lsls	r3, r3, #1
 81018f8:	2203      	movs	r2, #3
 81018fa:	fa02 f303 	lsl.w	r3, r2, r3
 81018fe:	43db      	mvns	r3, r3
 8101900:	69ba      	ldr	r2, [r7, #24]
 8101902:	4013      	ands	r3, r2
 8101904:	61bb      	str	r3, [r7, #24]
      temp |= ((GPIO_Init->Mode & GPIO_MODE) << (position * 2U));
 8101906:	683b      	ldr	r3, [r7, #0]
 8101908:	685b      	ldr	r3, [r3, #4]
 810190a:	f003 0203 	and.w	r2, r3, #3
 810190e:	69fb      	ldr	r3, [r7, #28]
 8101910:	005b      	lsls	r3, r3, #1
 8101912:	fa02 f303 	lsl.w	r3, r2, r3
 8101916:	69ba      	ldr	r2, [r7, #24]
 8101918:	4313      	orrs	r3, r2
 810191a:	61bb      	str	r3, [r7, #24]
      GPIOx->MODER = temp;
 810191c:	687b      	ldr	r3, [r7, #4]
 810191e:	69ba      	ldr	r2, [r7, #24]
 8101920:	601a      	str	r2, [r3, #0]

      /*--------------------- EXTI Mode Configuration ------------------------*/
      /* Configure the External Interrupt or event for the current IO */
      if ((GPIO_Init->Mode & EXTI_MODE) != 0x00U)
 8101922:	683b      	ldr	r3, [r7, #0]
 8101924:	685b      	ldr	r3, [r3, #4]
 8101926:	f403 3340 	and.w	r3, r3, #196608	@ 0x30000
 810192a:	2b00      	cmp	r3, #0
 810192c:	f000 80e0 	beq.w	8101af0 <HAL_GPIO_Init+0x338>
      {
        /* Enable SYSCFG Clock */
        __HAL_RCC_SYSCFG_CLK_ENABLE();
 8101930:	4b2f      	ldr	r3, [pc, #188]	@ (81019f0 <HAL_GPIO_Init+0x238>)
 8101932:	f8d3 30f4 	ldr.w	r3, [r3, #244]	@ 0xf4
 8101936:	4a2e      	ldr	r2, [pc, #184]	@ (81019f0 <HAL_GPIO_Init+0x238>)
 8101938:	f043 0302 	orr.w	r3, r3, #2
 810193c:	f8c2 30f4 	str.w	r3, [r2, #244]	@ 0xf4
 8101940:	4b2b      	ldr	r3, [pc, #172]	@ (81019f0 <HAL_GPIO_Init+0x238>)
 8101942:	f8d3 30f4 	ldr.w	r3, [r3, #244]	@ 0xf4
 8101946:	f003 0302 	and.w	r3, r3, #2
 810194a:	60fb      	str	r3, [r7, #12]
 810194c:	68fb      	ldr	r3, [r7, #12]

        temp = SYSCFG->EXTICR[position >> 2U];
 810194e:	4a29      	ldr	r2, [pc, #164]	@ (81019f4 <HAL_GPIO_Init+0x23c>)
 8101950:	69fb      	ldr	r3, [r7, #28]
 8101952:	089b      	lsrs	r3, r3, #2
 8101954:	3302      	adds	r3, #2
 8101956:	f852 3023 	ldr.w	r3, [r2, r3, lsl #2]
 810195a:	61bb      	str	r3, [r7, #24]
        temp &= ~(0x0FUL << (4U * (position & 0x03U)));
 810195c:	69fb      	ldr	r3, [r7, #28]
 810195e:	f003 0303 	and.w	r3, r3, #3
 8101962:	009b      	lsls	r3, r3, #2
 8101964:	220f      	movs	r2, #15
 8101966:	fa02 f303 	lsl.w	r3, r2, r3
 810196a:	43db      	mvns	r3, r3
 810196c:	69ba      	ldr	r2, [r7, #24]
 810196e:	4013      	ands	r3, r2
 8101970:	61bb      	str	r3, [r7, #24]
        temp |= (GPIO_GET_INDEX(GPIOx) << (4U * (position & 0x03U)));
 8101972:	687b      	ldr	r3, [r7, #4]
 8101974:	4a20      	ldr	r2, [pc, #128]	@ (81019f8 <HAL_GPIO_Init+0x240>)
 8101976:	4293      	cmp	r3, r2
 8101978:	d052      	beq.n	8101a20 <HAL_GPIO_Init+0x268>
 810197a:	687b      	ldr	r3, [r7, #4]
 810197c:	4a1f      	ldr	r2, [pc, #124]	@ (81019fc <HAL_GPIO_Init+0x244>)
 810197e:	4293      	cmp	r3, r2
 8101980:	d031      	beq.n	81019e6 <HAL_GPIO_Init+0x22e>
 8101982:	687b      	ldr	r3, [r7, #4]
 8101984:	4a1e      	ldr	r2, [pc, #120]	@ (8101a00 <HAL_GPIO_Init+0x248>)
 8101986:	4293      	cmp	r3, r2
 8101988:	d02b      	beq.n	81019e2 <HAL_GPIO_Init+0x22a>
 810198a:	687b      	ldr	r3, [r7, #4]
 810198c:	4a1d      	ldr	r2, [pc, #116]	@ (8101a04 <HAL_GPIO_Init+0x24c>)
 810198e:	4293      	cmp	r3, r2
 8101990:	d025      	beq.n	81019de <HAL_GPIO_Init+0x226>
 8101992:	687b      	ldr	r3, [r7, #4]
 8101994:	4a1c      	ldr	r2, [pc, #112]	@ (8101a08 <HAL_GPIO_Init+0x250>)
 8101996:	4293      	cmp	r3, r2
 8101998:	d01f      	beq.n	81019da <HAL_GPIO_Init+0x222>
 810199a:	687b      	ldr	r3, [r7, #4]
 810199c:	4a1b      	ldr	r2, [pc, #108]	@ (8101a0c <HAL_GPIO_Init+0x254>)
 810199e:	4293      	cmp	r3, r2
 81019a0:	d019      	beq.n	81019d6 <HAL_GPIO_Init+0x21e>
 81019a2:	687b      	ldr	r3, [r7, #4]
 81019a4:	4a1a      	ldr	r2, [pc, #104]	@ (8101a10 <HAL_GPIO_Init+0x258>)
 81019a6:	4293      	cmp	r3, r2
 81019a8:	d013      	beq.n	81019d2 <HAL_GPIO_Init+0x21a>
 81019aa:	687b      	ldr	r3, [r7, #4]
 81019ac:	4a19      	ldr	r2, [pc, #100]	@ (8101a14 <HAL_GPIO_Init+0x25c>)
 81019ae:	4293      	cmp	r3, r2
 81019b0:	d00d      	beq.n	81019ce <HAL_GPIO_Init+0x216>
 81019b2:	687b      	ldr	r3, [r7, #4]
 81019b4:	4a18      	ldr	r2, [pc, #96]	@ (8101a18 <HAL_GPIO_Init+0x260>)
 81019b6:	4293      	cmp	r3, r2
 81019b8:	d007      	beq.n	81019ca <HAL_GPIO_Init+0x212>
 81019ba:	687b      	ldr	r3, [r7, #4]
 81019bc:	4a17      	ldr	r2, [pc, #92]	@ (8101a1c <HAL_GPIO_Init+0x264>)
 81019be:	4293      	cmp	r3, r2
 81019c0:	d101      	bne.n	81019c6 <HAL_GPIO_Init+0x20e>
 81019c2:	2309      	movs	r3, #9
 81019c4:	e02d      	b.n	8101a22 <HAL_GPIO_Init+0x26a>
 81019c6:	230a      	movs	r3, #10
 81019c8:	e02b      	b.n	8101a22 <HAL_GPIO_Init+0x26a>
 81019ca:	2308      	movs	r3, #8
 81019cc:	e029      	b.n	8101a22 <HAL_GPIO_Init+0x26a>
 81019ce:	2307      	movs	r3, #7
 81019d0:	e027      	b.n	8101a22 <HAL_GPIO_Init+0x26a>
 81019d2:	2306      	movs	r3, #6
 81019d4:	e025      	b.n	8101a22 <HAL_GPIO_Init+0x26a>
 81019d6:	2305      	movs	r3, #5
 81019d8:	e023      	b.n	8101a22 <HAL_GPIO_Init+0x26a>
 81019da:	2304      	movs	r3, #4
 81019dc:	e021      	b.n	8101a22 <HAL_GPIO_Init+0x26a>
 81019de:	2303      	movs	r3, #3
 81019e0:	e01f      	b.n	8101a22 <HAL_GPIO_Init+0x26a>
 81019e2:	2302      	movs	r3, #2
 81019e4:	e01d      	b.n	8101a22 <HAL_GPIO_Init+0x26a>
 81019e6:	2301      	movs	r3, #1
 81019e8:	e01b      	b.n	8101a22 <HAL_GPIO_Init+0x26a>
 81019ea:	bf00      	nop
 81019ec:	580000c0 	.word	0x580000c0
 81019f0:	58024400 	.word	0x58024400
 81019f4:	58000400 	.word	0x58000400
 81019f8:	58020000 	.word	0x58020000
 81019fc:	58020400 	.word	0x58020400
 8101a00:	58020800 	.word	0x58020800
 8101a04:	58020c00 	.word	0x58020c00
 8101a08:	58021000 	.word	0x58021000
 8101a0c:	58021400 	.word	0x58021400
 8101a10:	58021800 	.word	0x58021800
 8101a14:	58021c00 	.word	0x58021c00
 8101a18:	58022000 	.word	0x58022000
 8101a1c:	58022400 	.word	0x58022400
 8101a20:	2300      	movs	r3, #0
 8101a22:	69fa      	ldr	r2, [r7, #28]
 8101a24:	f002 0203 	and.w	r2, r2, #3
 8101a28:	0092      	lsls	r2, r2, #2
 8101a2a:	4093      	lsls	r3, r2
 8101a2c:	69ba      	ldr	r2, [r7, #24]
 8101a2e:	4313      	orrs	r3, r2
 8101a30:	61bb      	str	r3, [r7, #24]
        SYSCFG->EXTICR[position >> 2U] = temp;
 8101a32:	4938      	ldr	r1, [pc, #224]	@ (8101b14 <HAL_GPIO_Init+0x35c>)
 8101a34:	69fb      	ldr	r3, [r7, #28]
 8101a36:	089b      	lsrs	r3, r3, #2
 8101a38:	3302      	adds	r3, #2
 8101a3a:	69ba      	ldr	r2, [r7, #24]
 8101a3c:	f841 2023 	str.w	r2, [r1, r3, lsl #2]

        /* Clear Rising Falling edge configuration */
        temp = EXTI->RTSR1;
 8101a40:	f04f 43b0 	mov.w	r3, #1476395008	@ 0x58000000
 8101a44:	681b      	ldr	r3, [r3, #0]
 8101a46:	61bb      	str	r3, [r7, #24]
        temp &= ~(iocurrent);
 8101a48:	693b      	ldr	r3, [r7, #16]
 8101a4a:	43db      	mvns	r3, r3
 8101a4c:	69ba      	ldr	r2, [r7, #24]
 8101a4e:	4013      	ands	r3, r2
 8101a50:	61bb      	str	r3, [r7, #24]
        if ((GPIO_Init->Mode & TRIGGER_RISING) != 0x00U)
 8101a52:	683b      	ldr	r3, [r7, #0]
 8101a54:	685b      	ldr	r3, [r3, #4]
 8101a56:	f403 1380 	and.w	r3, r3, #1048576	@ 0x100000
 8101a5a:	2b00      	cmp	r3, #0
 8101a5c:	d003      	beq.n	8101a66 <HAL_GPIO_Init+0x2ae>
        {
          temp |= iocurrent;
 8101a5e:	69ba      	ldr	r2, [r7, #24]
 8101a60:	693b      	ldr	r3, [r7, #16]
 8101a62:	4313      	orrs	r3, r2
 8101a64:	61bb      	str	r3, [r7, #24]
        }
        EXTI->RTSR1 = temp;
 8101a66:	f04f 42b0 	mov.w	r2, #1476395008	@ 0x58000000
 8101a6a:	69bb      	ldr	r3, [r7, #24]
 8101a6c:	6013      	str	r3, [r2, #0]

        temp = EXTI->FTSR1;
 8101a6e:	f04f 43b0 	mov.w	r3, #1476395008	@ 0x58000000
 8101a72:	685b      	ldr	r3, [r3, #4]
 8101a74:	61bb      	str	r3, [r7, #24]
        temp &= ~(iocurrent);
 8101a76:	693b      	ldr	r3, [r7, #16]
 8101a78:	43db      	mvns	r3, r3
 8101a7a:	69ba      	ldr	r2, [r7, #24]
 8101a7c:	4013      	ands	r3, r2
 8101a7e:	61bb      	str	r3, [r7, #24]
        if ((GPIO_Init->Mode & TRIGGER_FALLING) != 0x00U)
 8101a80:	683b      	ldr	r3, [r7, #0]
 8101a82:	685b      	ldr	r3, [r3, #4]
 8101a84:	f403 1300 	and.w	r3, r3, #2097152	@ 0x200000
 8101a88:	2b00      	cmp	r3, #0
 8101a8a:	d003      	beq.n	8101a94 <HAL_GPIO_Init+0x2dc>
        {
          temp |= iocurrent;
 8101a8c:	69ba      	ldr	r2, [r7, #24]
 8101a8e:	693b      	ldr	r3, [r7, #16]
 8101a90:	4313      	orrs	r3, r2
 8101a92:	61bb      	str	r3, [r7, #24]
        }
        EXTI->FTSR1 = temp;
 8101a94:	f04f 42b0 	mov.w	r2, #1476395008	@ 0x58000000
 8101a98:	69bb      	ldr	r3, [r7, #24]
 8101a9a:	6053      	str	r3, [r2, #4]

        temp = EXTI_CurrentCPU->EMR1;
 8101a9c:	697b      	ldr	r3, [r7, #20]
 8101a9e:	685b      	ldr	r3, [r3, #4]
 8101aa0:	61bb      	str	r3, [r7, #24]
        temp &= ~(iocurrent);
 8101aa2:	693b      	ldr	r3, [r7, #16]
 8101aa4:	43db      	mvns	r3, r3
 8101aa6:	69ba      	ldr	r2, [r7, #24]
 8101aa8:	4013      	ands	r3, r2
 8101aaa:	61bb      	str	r3, [r7, #24]
        if ((GPIO_Init->Mode & EXTI_EVT) != 0x00U)
 8101aac:	683b      	ldr	r3, [r7, #0]
 8101aae:	685b      	ldr	r3, [r3, #4]
 8101ab0:	f403 3300 	and.w	r3, r3, #131072	@ 0x20000
 8101ab4:	2b00      	cmp	r3, #0
 8101ab6:	d003      	beq.n	8101ac0 <HAL_GPIO_Init+0x308>
        {
          temp |= iocurrent;
 8101ab8:	69ba      	ldr	r2, [r7, #24]
 8101aba:	693b      	ldr	r3, [r7, #16]
 8101abc:	4313      	orrs	r3, r2
 8101abe:	61bb      	str	r3, [r7, #24]
        }
        EXTI_CurrentCPU->EMR1 = temp;
 8101ac0:	697b      	ldr	r3, [r7, #20]
 8101ac2:	69ba      	ldr	r2, [r7, #24]
 8101ac4:	605a      	str	r2, [r3, #4]

        /* Clear EXTI line configuration */
        temp = EXTI_CurrentCPU->IMR1;
 8101ac6:	697b      	ldr	r3, [r7, #20]
 8101ac8:	681b      	ldr	r3, [r3, #0]
 8101aca:	61bb      	str	r3, [r7, #24]
        temp &= ~(iocurrent);
 8101acc:	693b      	ldr	r3, [r7, #16]
 8101ace:	43db      	mvns	r3, r3
 8101ad0:	69ba      	ldr	r2, [r7, #24]
 8101ad2:	4013      	ands	r3, r2
 8101ad4:	61bb      	str	r3, [r7, #24]
        if ((GPIO_Init->Mode & EXTI_IT) != 0x00U)
 8101ad6:	683b      	ldr	r3, [r7, #0]
 8101ad8:	685b      	ldr	r3, [r3, #4]
 8101ada:	f403 3380 	and.w	r3, r3, #65536	@ 0x10000
 8101ade:	2b00      	cmp	r3, #0
 8101ae0:	d003      	beq.n	8101aea <HAL_GPIO_Init+0x332>
        {
          temp |= iocurrent;
 8101ae2:	69ba      	ldr	r2, [r7, #24]
 8101ae4:	693b      	ldr	r3, [r7, #16]
 8101ae6:	4313      	orrs	r3, r2
 8101ae8:	61bb      	str	r3, [r7, #24]
        }
        EXTI_CurrentCPU->IMR1 = temp;
 8101aea:	697b      	ldr	r3, [r7, #20]
 8101aec:	69ba      	ldr	r2, [r7, #24]
 8101aee:	601a      	str	r2, [r3, #0]
      }
    }

    position++;
 8101af0:	69fb      	ldr	r3, [r7, #28]
 8101af2:	3301      	adds	r3, #1
 8101af4:	61fb      	str	r3, [r7, #28]
  while (((GPIO_Init->Pin) >> position) != 0x00U)
 8101af6:	683b      	ldr	r3, [r7, #0]
 8101af8:	681a      	ldr	r2, [r3, #0]
 8101afa:	69fb      	ldr	r3, [r7, #28]
 8101afc:	fa22 f303 	lsr.w	r3, r2, r3
 8101b00:	2b00      	cmp	r3, #0
 8101b02:	f47f ae63 	bne.w	81017cc <HAL_GPIO_Init+0x14>
  }
}
 8101b06:	bf00      	nop
 8101b08:	bf00      	nop
 8101b0a:	3724      	adds	r7, #36	@ 0x24
 8101b0c:	46bd      	mov	sp, r7
 8101b0e:	f85d 7b04 	ldr.w	r7, [sp], #4
 8101b12:	4770      	bx	lr
 8101b14:	58000400 	.word	0x58000400

08101b18 <HAL_GPIO_WritePin>:
  *            @arg GPIO_PIN_RESET: to clear the port pin
  *            @arg GPIO_PIN_SET: to set the port pin
  * @retval None
  */
void HAL_GPIO_WritePin(GPIO_TypeDef *GPIOx, uint16_t GPIO_Pin, GPIO_PinState PinState)
{
 8101b18:	b480      	push	{r7}
 8101b1a:	b083      	sub	sp, #12
 8101b1c:	af00      	add	r7, sp, #0
 8101b1e:	6078      	str	r0, [r7, #4]
 8101b20:	460b      	mov	r3, r1
 8101b22:	807b      	strh	r3, [r7, #2]
 8101b24:	4613      	mov	r3, r2
 8101b26:	707b      	strb	r3, [r7, #1]
  /* Check the parameters */
  assert_param(IS_GPIO_PIN(GPIO_Pin));
  assert_param(IS_GPIO_PIN_ACTION(PinState));

  if (PinState != GPIO_PIN_RESET)
 8101b28:	787b      	ldrb	r3, [r7, #1]
 8101b2a:	2b00      	cmp	r3, #0
 8101b2c:	d003      	beq.n	8101b36 <HAL_GPIO_WritePin+0x1e>
  {
    GPIOx->BSRR = GPIO_Pin;
 8101b2e:	887a      	ldrh	r2, [r7, #2]
 8101b30:	687b      	ldr	r3, [r7, #4]
 8101b32:	619a      	str	r2, [r3, #24]
  }
  else
  {
    GPIOx->BSRR = (uint32_t)GPIO_Pin << GPIO_NUMBER;
  }
}
 8101b34:	e003      	b.n	8101b3e <HAL_GPIO_WritePin+0x26>
    GPIOx->BSRR = (uint32_t)GPIO_Pin << GPIO_NUMBER;
 8101b36:	887b      	ldrh	r3, [r7, #2]
 8101b38:	041a      	lsls	r2, r3, #16
 8101b3a:	687b      	ldr	r3, [r7, #4]
 8101b3c:	619a      	str	r2, [r3, #24]
}
 8101b3e:	bf00      	nop
 8101b40:	370c      	adds	r7, #12
 8101b42:	46bd      	mov	sp, r7
 8101b44:	f85d 7b04 	ldr.w	r7, [sp], #4
 8101b48:	4770      	bx	lr

08101b4a <HAL_GPIO_TogglePin>:
  * @param  GPIOx: Where x can be (A..K) to select the GPIO peripheral.
  * @param  GPIO_Pin: Specifies the pins to be toggled.
  * @retval None
  */
void HAL_GPIO_TogglePin(GPIO_TypeDef *GPIOx, uint16_t GPIO_Pin)
{
 8101b4a:	b480      	push	{r7}
 8101b4c:	b085      	sub	sp, #20
 8101b4e:	af00      	add	r7, sp, #0
 8101b50:	6078      	str	r0, [r7, #4]
 8101b52:	460b      	mov	r3, r1
 8101b54:	807b      	strh	r3, [r7, #2]

  /* Check the parameters */
  assert_param(IS_GPIO_PIN(GPIO_Pin));

  /* get current Output Data Register value */
  odr = GPIOx->ODR;
 8101b56:	687b      	ldr	r3, [r7, #4]
 8101b58:	695b      	ldr	r3, [r3, #20]
 8101b5a:	60fb      	str	r3, [r7, #12]

  /* Set selected pins that were at low level, and reset ones that were high */
  GPIOx->BSRR = ((odr & GPIO_Pin) << GPIO_NUMBER) | (~odr & GPIO_Pin);
 8101b5c:	887a      	ldrh	r2, [r7, #2]
 8101b5e:	68fb      	ldr	r3, [r7, #12]
 8101b60:	4013      	ands	r3, r2
 8101b62:	041a      	lsls	r2, r3, #16
 8101b64:	68fb      	ldr	r3, [r7, #12]
 8101b66:	43d9      	mvns	r1, r3
 8101b68:	887b      	ldrh	r3, [r7, #2]
 8101b6a:	400b      	ands	r3, r1
 8101b6c:	431a      	orrs	r2, r3
 8101b6e:	687b      	ldr	r3, [r7, #4]
 8101b70:	619a      	str	r2, [r3, #24]
}
 8101b72:	bf00      	nop
 8101b74:	3714      	adds	r7, #20
 8101b76:	46bd      	mov	sp, r7
 8101b78:	f85d 7b04 	ldr.w	r7, [sp], #4
 8101b7c:	4770      	bx	lr
	...

08101b80 <HAL_HSEM_ActivateNotification>:
  * @brief  Activate Semaphore release Notification for a given Semaphores Mask .
  * @param  SemMask: Mask of Released semaphores
  * @retval Semaphore Key
  */
void HAL_HSEM_ActivateNotification(uint32_t SemMask)
{
 8101b80:	b480      	push	{r7}
 8101b82:	b083      	sub	sp, #12
 8101b84:	af00      	add	r7, sp, #0
 8101b86:	6078      	str	r0, [r7, #4]
  {
    /*Use interrupt line 1 for CPU2 Master*/
    HSEM->C2IER |= SemMask;
  }
#else
  HSEM_COMMON->IER |= SemMask;
 8101b88:	4b05      	ldr	r3, [pc, #20]	@ (8101ba0 <HAL_HSEM_ActivateNotification+0x20>)
 8101b8a:	681a      	ldr	r2, [r3, #0]
 8101b8c:	4904      	ldr	r1, [pc, #16]	@ (8101ba0 <HAL_HSEM_ActivateNotification+0x20>)
 8101b8e:	687b      	ldr	r3, [r7, #4]
 8101b90:	4313      	orrs	r3, r2
 8101b92:	600b      	str	r3, [r1, #0]
#endif
}
 8101b94:	bf00      	nop
 8101b96:	370c      	adds	r7, #12
 8101b98:	46bd      	mov	sp, r7
 8101b9a:	f85d 7b04 	ldr.w	r7, [sp], #4
 8101b9e:	4770      	bx	lr
 8101ba0:	58026510 	.word	0x58026510

08101ba4 <HAL_PWREx_EnterSTOPMode>:
  *            @arg PWR_D2_DOMAIN : Enter D2 Domain to DSTOP mode.
  *            @arg PWR_D3_DOMAIN : Enter D3/SRD Domain to DSTOP mode.
  * @retval None.
  */
void HAL_PWREx_EnterSTOPMode (uint32_t Regulator, uint8_t STOPEntry, uint32_t Domain)
{
 8101ba4:	b580      	push	{r7, lr}
 8101ba6:	b084      	sub	sp, #16
 8101ba8:	af00      	add	r7, sp, #0
 8101baa:	60f8      	str	r0, [r7, #12]
 8101bac:	460b      	mov	r3, r1
 8101bae:	607a      	str	r2, [r7, #4]
 8101bb0:	72fb      	strb	r3, [r7, #11]
  assert_param (IS_PWR_REGULATOR (Regulator));
  assert_param (IS_PWR_STOP_ENTRY (STOPEntry));
  assert_param (IS_PWR_DOMAIN (Domain));

  /* Select the regulator state in Stop mode */
  MODIFY_REG (PWR->CR1, PWR_CR1_LPDS, Regulator);
 8101bb2:	4b37      	ldr	r3, [pc, #220]	@ (8101c90 <HAL_PWREx_EnterSTOPMode+0xec>)
 8101bb4:	681b      	ldr	r3, [r3, #0]
 8101bb6:	f023 0201 	bic.w	r2, r3, #1
 8101bba:	4935      	ldr	r1, [pc, #212]	@ (8101c90 <HAL_PWREx_EnterSTOPMode+0xec>)
 8101bbc:	68fb      	ldr	r3, [r7, #12]
 8101bbe:	4313      	orrs	r3, r2
 8101bc0:	600b      	str	r3, [r1, #0]

  /* Select the domain Power Down DeepSleep */
  if (Domain == PWR_D1_DOMAIN)
 8101bc2:	687b      	ldr	r3, [r7, #4]
 8101bc4:	2b00      	cmp	r3, #0
 8101bc6:	d123      	bne.n	8101c10 <HAL_PWREx_EnterSTOPMode+0x6c>
  {
#if defined (DUAL_CORE)
    /* Check current core */
    if (HAL_GetCurrentCPUID () != CM7_CPUID)
 8101bc8:	f7ff fde2 	bl	8101790 <HAL_GetCurrentCPUID>
 8101bcc:	4603      	mov	r3, r0
 8101bce:	2b03      	cmp	r3, #3
 8101bd0:	d158      	bne.n	8101c84 <HAL_PWREx_EnterSTOPMode+0xe0>
      return;
    }
#endif /* defined (DUAL_CORE) */

    /* Keep DSTOP mode when D1/CD domain enters Deepsleep */
    CLEAR_BIT (PWR->CPUCR, PWR_CPUCR_PDDS_D1);
 8101bd2:	4b2f      	ldr	r3, [pc, #188]	@ (8101c90 <HAL_PWREx_EnterSTOPMode+0xec>)
 8101bd4:	691b      	ldr	r3, [r3, #16]
 8101bd6:	4a2e      	ldr	r2, [pc, #184]	@ (8101c90 <HAL_PWREx_EnterSTOPMode+0xec>)
 8101bd8:	f023 0301 	bic.w	r3, r3, #1
 8101bdc:	6113      	str	r3, [r2, #16]

    /* Set SLEEPDEEP bit of Cortex System Control Register */
    SET_BIT (SCB->SCR, SCB_SCR_SLEEPDEEP_Msk);
 8101bde:	4b2d      	ldr	r3, [pc, #180]	@ (8101c94 <HAL_PWREx_EnterSTOPMode+0xf0>)
 8101be0:	691b      	ldr	r3, [r3, #16]
 8101be2:	4a2c      	ldr	r2, [pc, #176]	@ (8101c94 <HAL_PWREx_EnterSTOPMode+0xf0>)
 8101be4:	f043 0304 	orr.w	r3, r3, #4
 8101be8:	6113      	str	r3, [r2, #16]
  \details Acts as a special kind of Data Memory Barrier.
           It completes when all explicit memory accesses before this instruction complete.
 */
__STATIC_FORCEINLINE void __DSB(void)
{
  __ASM volatile ("dsb 0xF":::"memory");
 8101bea:	f3bf 8f4f 	dsb	sy
}
 8101bee:	bf00      	nop
  __ASM volatile ("isb 0xF":::"memory");
 8101bf0:	f3bf 8f6f 	isb	sy
}
 8101bf4:	bf00      	nop
    /* Ensure that all instructions are done before entering STOP mode */
    __DSB ();
    __ISB ();

    /* Select Stop mode entry */
    if (STOPEntry == PWR_STOPENTRY_WFI)
 8101bf6:	7afb      	ldrb	r3, [r7, #11]
 8101bf8:	2b01      	cmp	r3, #1
 8101bfa:	d101      	bne.n	8101c00 <HAL_PWREx_EnterSTOPMode+0x5c>
    {
      /* Request Wait For Interrupt */
      __WFI ();
 8101bfc:	bf30      	wfi
 8101bfe:	e000      	b.n	8101c02 <HAL_PWREx_EnterSTOPMode+0x5e>
    }
    else
    {
      /* Request Wait For Event */
      __WFE ();
 8101c00:	bf20      	wfe
    }

    /* Clear SLEEPDEEP bit of Cortex-Mx in the System Control Register */
    CLEAR_BIT (SCB->SCR, SCB_SCR_SLEEPDEEP_Msk);
 8101c02:	4b24      	ldr	r3, [pc, #144]	@ (8101c94 <HAL_PWREx_EnterSTOPMode+0xf0>)
 8101c04:	691b      	ldr	r3, [r3, #16]
 8101c06:	4a23      	ldr	r2, [pc, #140]	@ (8101c94 <HAL_PWREx_EnterSTOPMode+0xf0>)
 8101c08:	f023 0304 	bic.w	r3, r3, #4
 8101c0c:	6113      	str	r3, [r2, #16]
 8101c0e:	e03c      	b.n	8101c8a <HAL_PWREx_EnterSTOPMode+0xe6>
  }
#if defined (PWR_CPUCR_PDDS_D2)
  else if (Domain == PWR_D2_DOMAIN)
 8101c10:	687b      	ldr	r3, [r7, #4]
 8101c12:	2b01      	cmp	r3, #1
 8101c14:	d123      	bne.n	8101c5e <HAL_PWREx_EnterSTOPMode+0xba>
  {
#if defined (DUAL_CORE)
    /* Check current core */
    if (HAL_GetCurrentCPUID () != CM4_CPUID)
 8101c16:	f7ff fdbb 	bl	8101790 <HAL_GetCurrentCPUID>
 8101c1a:	4603      	mov	r3, r0
 8101c1c:	2b01      	cmp	r3, #1
 8101c1e:	d133      	bne.n	8101c88 <HAL_PWREx_EnterSTOPMode+0xe4>
      */
      return;
    }

    /* Keep DSTOP mode when D2 domain enters Deepsleep */
    CLEAR_BIT (PWR->CPU2CR, PWR_CPU2CR_PDDS_D2);
 8101c20:	4b1b      	ldr	r3, [pc, #108]	@ (8101c90 <HAL_PWREx_EnterSTOPMode+0xec>)
 8101c22:	695b      	ldr	r3, [r3, #20]
 8101c24:	4a1a      	ldr	r2, [pc, #104]	@ (8101c90 <HAL_PWREx_EnterSTOPMode+0xec>)
 8101c26:	f023 0302 	bic.w	r3, r3, #2
 8101c2a:	6153      	str	r3, [r2, #20]

    /* Set SLEEPDEEP bit of Cortex System Control Register */
    SET_BIT (SCB->SCR, SCB_SCR_SLEEPDEEP_Msk);
 8101c2c:	4b19      	ldr	r3, [pc, #100]	@ (8101c94 <HAL_PWREx_EnterSTOPMode+0xf0>)
 8101c2e:	691b      	ldr	r3, [r3, #16]
 8101c30:	4a18      	ldr	r2, [pc, #96]	@ (8101c94 <HAL_PWREx_EnterSTOPMode+0xf0>)
 8101c32:	f043 0304 	orr.w	r3, r3, #4
 8101c36:	6113      	str	r3, [r2, #16]
  __ASM volatile ("dsb 0xF":::"memory");
 8101c38:	f3bf 8f4f 	dsb	sy
}
 8101c3c:	bf00      	nop
  __ASM volatile ("isb 0xF":::"memory");
 8101c3e:	f3bf 8f6f 	isb	sy
}
 8101c42:	bf00      	nop
    /* Ensure that all instructions are done before entering STOP mode */
    __DSB ();
    __ISB ();

    /* Select Stop mode entry */
    if (STOPEntry == PWR_STOPENTRY_WFI)
 8101c44:	7afb      	ldrb	r3, [r7, #11]
 8101c46:	2b01      	cmp	r3, #1
 8101c48:	d101      	bne.n	8101c4e <HAL_PWREx_EnterSTOPMode+0xaa>
    {
      /* Request Wait For Interrupt */
      __WFI ();
 8101c4a:	bf30      	wfi
 8101c4c:	e000      	b.n	8101c50 <HAL_PWREx_EnterSTOPMode+0xac>
    }
    else
    {
      /* Request Wait For Event */
      __WFE ();
 8101c4e:	bf20      	wfe
    }

    /* Clear SLEEPDEEP bit of Cortex-Mx in the System Control Register */
    CLEAR_BIT (SCB->SCR, SCB_SCR_SLEEPDEEP_Msk);
 8101c50:	4b10      	ldr	r3, [pc, #64]	@ (8101c94 <HAL_PWREx_EnterSTOPMode+0xf0>)
 8101c52:	691b      	ldr	r3, [r3, #16]
 8101c54:	4a0f      	ldr	r2, [pc, #60]	@ (8101c94 <HAL_PWREx_EnterSTOPMode+0xf0>)
 8101c56:	f023 0304 	bic.w	r3, r3, #4
 8101c5a:	6113      	str	r3, [r2, #16]
 8101c5c:	e015      	b.n	8101c8a <HAL_PWREx_EnterSTOPMode+0xe6>
#endif /* defined (PWR_CPUCR_PDDS_D2) */
  else
  {
#if defined (DUAL_CORE)
    /* Check current core */
    if (HAL_GetCurrentCPUID () == CM7_CPUID)
 8101c5e:	f7ff fd97 	bl	8101790 <HAL_GetCurrentCPUID>
 8101c62:	4603      	mov	r3, r0
 8101c64:	2b03      	cmp	r3, #3
 8101c66:	d106      	bne.n	8101c76 <HAL_PWREx_EnterSTOPMode+0xd2>
    {
      /* Keep DSTOP mode when D3 domain enters Deepsleep */
      CLEAR_BIT (PWR->CPUCR, PWR_CPUCR_PDDS_D3);
 8101c68:	4b09      	ldr	r3, [pc, #36]	@ (8101c90 <HAL_PWREx_EnterSTOPMode+0xec>)
 8101c6a:	691b      	ldr	r3, [r3, #16]
 8101c6c:	4a08      	ldr	r2, [pc, #32]	@ (8101c90 <HAL_PWREx_EnterSTOPMode+0xec>)
 8101c6e:	f023 0304 	bic.w	r3, r3, #4
 8101c72:	6113      	str	r3, [r2, #16]
 8101c74:	e009      	b.n	8101c8a <HAL_PWREx_EnterSTOPMode+0xe6>
    }
    else
    {
      /* Keep DSTOP mode when D3 domain enters Deepsleep */
      CLEAR_BIT (PWR->CPU2CR, PWR_CPU2CR_PDDS_D3);
 8101c76:	4b06      	ldr	r3, [pc, #24]	@ (8101c90 <HAL_PWREx_EnterSTOPMode+0xec>)
 8101c78:	695b      	ldr	r3, [r3, #20]
 8101c7a:	4a05      	ldr	r2, [pc, #20]	@ (8101c90 <HAL_PWREx_EnterSTOPMode+0xec>)
 8101c7c:	f023 0304 	bic.w	r3, r3, #4
 8101c80:	6153      	str	r3, [r2, #20]
 8101c82:	e002      	b.n	8101c8a <HAL_PWREx_EnterSTOPMode+0xe6>
      return;
 8101c84:	bf00      	nop
 8101c86:	e000      	b.n	8101c8a <HAL_PWREx_EnterSTOPMode+0xe6>
      return;
 8101c88:	bf00      	nop
#else
    /* Keep DSTOP mode when D3/SRD domain enters Deepsleep */
    CLEAR_BIT (PWR->CPUCR, PWR_CPUCR_PDDS_D3);
#endif  /* defined (DUAL_CORE) */
  }
}
 8101c8a:	3710      	adds	r7, #16
 8101c8c:	46bd      	mov	sp, r7
 8101c8e:	bd80      	pop	{r7, pc}
 8101c90:	58024800 	.word	0x58024800
 8101c94:	e000ed00 	.word	0xe000ed00

08101c98 <HAL_PWREx_ClearPendingEvent>:
  *         enter low power mode using Wait For Event request.
  * @note   Cortex-M7 must be in CRUN mode when calling this API by Cortex-M4.
  * @retval None.
  */
void HAL_PWREx_ClearPendingEvent (void)
{
 8101c98:	b580      	push	{r7, lr}
 8101c9a:	af00      	add	r7, sp, #0
#if defined (DUAL_CORE)
  /* Check the current Core */
  if (HAL_GetCurrentCPUID () == CM7_CPUID)
 8101c9c:	f7ff fd78 	bl	8101790 <HAL_GetCurrentCPUID>
 8101ca0:	4603      	mov	r3, r0
 8101ca2:	2b03      	cmp	r3, #3
 8101ca4:	d101      	bne.n	8101caa <HAL_PWREx_ClearPendingEvent+0x12>
  {
    __WFE ();
 8101ca6:	bf20      	wfe
    __WFE ();
  }
#else
  __WFE ();
#endif /* defined (DUAL_CORE) */
}
 8101ca8:	e001      	b.n	8101cae <HAL_PWREx_ClearPendingEvent+0x16>
    __SEV ();
 8101caa:	bf40      	sev
    __WFE ();
 8101cac:	bf20      	wfe
}
 8101cae:	bf00      	nop
 8101cb0:	bd80      	pop	{r7, pc}
	...

08101cb4 <HAL_RCC_GetSysClockFreq>:
  *
  *
  * @retval SYSCLK frequency
  */
uint32_t HAL_RCC_GetSysClockFreq(void)
{
 8101cb4:	b480      	push	{r7}
 8101cb6:	b089      	sub	sp, #36	@ 0x24
 8101cb8:	af00      	add	r7, sp, #0
  float_t fracn1, pllvco;
  uint32_t sysclockfreq;

  /* Get SYSCLK source -------------------------------------------------------*/

  switch (RCC->CFGR & RCC_CFGR_SWS)
 8101cba:	4bb3      	ldr	r3, [pc, #716]	@ (8101f88 <HAL_RCC_GetSysClockFreq+0x2d4>)
 8101cbc:	691b      	ldr	r3, [r3, #16]
 8101cbe:	f003 0338 	and.w	r3, r3, #56	@ 0x38
 8101cc2:	2b18      	cmp	r3, #24
 8101cc4:	f200 8155 	bhi.w	8101f72 <HAL_RCC_GetSysClockFreq+0x2be>
 8101cc8:	a201      	add	r2, pc, #4	@ (adr r2, 8101cd0 <HAL_RCC_GetSysClockFreq+0x1c>)
 8101cca:	f852 f023 	ldr.w	pc, [r2, r3, lsl #2]
 8101cce:	bf00      	nop
 8101cd0:	08101d35 	.word	0x08101d35
 8101cd4:	08101f73 	.word	0x08101f73
 8101cd8:	08101f73 	.word	0x08101f73
 8101cdc:	08101f73 	.word	0x08101f73
 8101ce0:	08101f73 	.word	0x08101f73
 8101ce4:	08101f73 	.word	0x08101f73
 8101ce8:	08101f73 	.word	0x08101f73
 8101cec:	08101f73 	.word	0x08101f73
 8101cf0:	08101d5b 	.word	0x08101d5b
 8101cf4:	08101f73 	.word	0x08101f73
 8101cf8:	08101f73 	.word	0x08101f73
 8101cfc:	08101f73 	.word	0x08101f73
 8101d00:	08101f73 	.word	0x08101f73
 8101d04:	08101f73 	.word	0x08101f73
 8101d08:	08101f73 	.word	0x08101f73
 8101d0c:	08101f73 	.word	0x08101f73
 8101d10:	08101d61 	.word	0x08101d61
 8101d14:	08101f73 	.word	0x08101f73
 8101d18:	08101f73 	.word	0x08101f73
 8101d1c:	08101f73 	.word	0x08101f73
 8101d20:	08101f73 	.word	0x08101f73
 8101d24:	08101f73 	.word	0x08101f73
 8101d28:	08101f73 	.word	0x08101f73
 8101d2c:	08101f73 	.word	0x08101f73
 8101d30:	08101d67 	.word	0x08101d67
  {
    case RCC_CFGR_SWS_HSI:  /* HSI used as system clock source */

      if (__HAL_RCC_GET_FLAG(RCC_FLAG_HSIDIV) != 0U)
 8101d34:	4b94      	ldr	r3, [pc, #592]	@ (8101f88 <HAL_RCC_GetSysClockFreq+0x2d4>)
 8101d36:	681b      	ldr	r3, [r3, #0]
 8101d38:	f003 0320 	and.w	r3, r3, #32
 8101d3c:	2b00      	cmp	r3, #0
 8101d3e:	d009      	beq.n	8101d54 <HAL_RCC_GetSysClockFreq+0xa0>
      {
        sysclockfreq = (uint32_t)(HSI_VALUE >> (__HAL_RCC_GET_HSI_DIVIDER() >> 3));
 8101d40:	4b91      	ldr	r3, [pc, #580]	@ (8101f88 <HAL_RCC_GetSysClockFreq+0x2d4>)
 8101d42:	681b      	ldr	r3, [r3, #0]
 8101d44:	08db      	lsrs	r3, r3, #3
 8101d46:	f003 0303 	and.w	r3, r3, #3
 8101d4a:	4a90      	ldr	r2, [pc, #576]	@ (8101f8c <HAL_RCC_GetSysClockFreq+0x2d8>)
 8101d4c:	fa22 f303 	lsr.w	r3, r2, r3
 8101d50:	61bb      	str	r3, [r7, #24]
      else
      {
        sysclockfreq = (uint32_t) HSI_VALUE;
      }

      break;
 8101d52:	e111      	b.n	8101f78 <HAL_RCC_GetSysClockFreq+0x2c4>
        sysclockfreq = (uint32_t) HSI_VALUE;
 8101d54:	4b8d      	ldr	r3, [pc, #564]	@ (8101f8c <HAL_RCC_GetSysClockFreq+0x2d8>)
 8101d56:	61bb      	str	r3, [r7, #24]
      break;
 8101d58:	e10e      	b.n	8101f78 <HAL_RCC_GetSysClockFreq+0x2c4>

    case RCC_CFGR_SWS_CSI:  /* CSI used as system clock  source */
      sysclockfreq = CSI_VALUE;
 8101d5a:	4b8d      	ldr	r3, [pc, #564]	@ (8101f90 <HAL_RCC_GetSysClockFreq+0x2dc>)
 8101d5c:	61bb      	str	r3, [r7, #24]
      break;
 8101d5e:	e10b      	b.n	8101f78 <HAL_RCC_GetSysClockFreq+0x2c4>

    case RCC_CFGR_SWS_HSE:  /* HSE used as system clock  source */
      sysclockfreq = HSE_VALUE;
 8101d60:	4b8c      	ldr	r3, [pc, #560]	@ (8101f94 <HAL_RCC_GetSysClockFreq+0x2e0>)
 8101d62:	61bb      	str	r3, [r7, #24]
      break;
 8101d64:	e108      	b.n	8101f78 <HAL_RCC_GetSysClockFreq+0x2c4>
    case RCC_CFGR_SWS_PLL1:  /* PLL1 used as system clock  source */

      /* PLL_VCO = (HSE_VALUE or HSI_VALUE or CSI_VALUE/ PLLM) * PLLN
      SYSCLK = PLL_VCO / PLLR
      */
      pllsource = (RCC->PLLCKSELR & RCC_PLLCKSELR_PLLSRC);
 8101d66:	4b88      	ldr	r3, [pc, #544]	@ (8101f88 <HAL_RCC_GetSysClockFreq+0x2d4>)
 8101d68:	6a9b      	ldr	r3, [r3, #40]	@ 0x28
 8101d6a:	f003 0303 	and.w	r3, r3, #3
 8101d6e:	617b      	str	r3, [r7, #20]
      pllm = ((RCC->PLLCKSELR & RCC_PLLCKSELR_DIVM1) >> 4)  ;
 8101d70:	4b85      	ldr	r3, [pc, #532]	@ (8101f88 <HAL_RCC_GetSysClockFreq+0x2d4>)
 8101d72:	6a9b      	ldr	r3, [r3, #40]	@ 0x28
 8101d74:	091b      	lsrs	r3, r3, #4
 8101d76:	f003 033f 	and.w	r3, r3, #63	@ 0x3f
 8101d7a:	613b      	str	r3, [r7, #16]
      pllfracen = ((RCC-> PLLCFGR & RCC_PLLCFGR_PLL1FRACEN) >> RCC_PLLCFGR_PLL1FRACEN_Pos);
 8101d7c:	4b82      	ldr	r3, [pc, #520]	@ (8101f88 <HAL_RCC_GetSysClockFreq+0x2d4>)
 8101d7e:	6adb      	ldr	r3, [r3, #44]	@ 0x2c
 8101d80:	f003 0301 	and.w	r3, r3, #1
 8101d84:	60fb      	str	r3, [r7, #12]
      fracn1 = (float_t)(uint32_t)(pllfracen * ((RCC->PLL1FRACR & RCC_PLL1FRACR_FRACN1) >> 3));
 8101d86:	4b80      	ldr	r3, [pc, #512]	@ (8101f88 <HAL_RCC_GetSysClockFreq+0x2d4>)
 8101d88:	6b5b      	ldr	r3, [r3, #52]	@ 0x34
 8101d8a:	08db      	lsrs	r3, r3, #3
 8101d8c:	f3c3 030c 	ubfx	r3, r3, #0, #13
 8101d90:	68fa      	ldr	r2, [r7, #12]
 8101d92:	fb02 f303 	mul.w	r3, r2, r3
 8101d96:	ee07 3a90 	vmov	s15, r3
 8101d9a:	eef8 7a67 	vcvt.f32.u32	s15, s15
 8101d9e:	edc7 7a02 	vstr	s15, [r7, #8]

      if (pllm != 0U)
 8101da2:	693b      	ldr	r3, [r7, #16]
 8101da4:	2b00      	cmp	r3, #0
 8101da6:	f000 80e1 	beq.w	8101f6c <HAL_RCC_GetSysClockFreq+0x2b8>
 8101daa:	697b      	ldr	r3, [r7, #20]
 8101dac:	2b02      	cmp	r3, #2
 8101dae:	f000 8083 	beq.w	8101eb8 <HAL_RCC_GetSysClockFreq+0x204>
 8101db2:	697b      	ldr	r3, [r7, #20]
 8101db4:	2b02      	cmp	r3, #2
 8101db6:	f200 80a1 	bhi.w	8101efc <HAL_RCC_GetSysClockFreq+0x248>
 8101dba:	697b      	ldr	r3, [r7, #20]
 8101dbc:	2b00      	cmp	r3, #0
 8101dbe:	d003      	beq.n	8101dc8 <HAL_RCC_GetSysClockFreq+0x114>
 8101dc0:	697b      	ldr	r3, [r7, #20]
 8101dc2:	2b01      	cmp	r3, #1
 8101dc4:	d056      	beq.n	8101e74 <HAL_RCC_GetSysClockFreq+0x1c0>
 8101dc6:	e099      	b.n	8101efc <HAL_RCC_GetSysClockFreq+0x248>
      {
        switch (pllsource)
        {
          case RCC_PLLSOURCE_HSI:  /* HSI used as PLL clock source */

            if (__HAL_RCC_GET_FLAG(RCC_FLAG_HSIDIV) != 0U)
 8101dc8:	4b6f      	ldr	r3, [pc, #444]	@ (8101f88 <HAL_RCC_GetSysClockFreq+0x2d4>)
 8101dca:	681b      	ldr	r3, [r3, #0]
 8101dcc:	f003 0320 	and.w	r3, r3, #32
 8101dd0:	2b00      	cmp	r3, #0
 8101dd2:	d02d      	beq.n	8101e30 <HAL_RCC_GetSysClockFreq+0x17c>
            {
              hsivalue = (HSI_VALUE >> (__HAL_RCC_GET_HSI_DIVIDER() >> 3));
 8101dd4:	4b6c      	ldr	r3, [pc, #432]	@ (8101f88 <HAL_RCC_GetSysClockFreq+0x2d4>)
 8101dd6:	681b      	ldr	r3, [r3, #0]
 8101dd8:	08db      	lsrs	r3, r3, #3
 8101dda:	f003 0303 	and.w	r3, r3, #3
 8101dde:	4a6b      	ldr	r2, [pc, #428]	@ (8101f8c <HAL_RCC_GetSysClockFreq+0x2d8>)
 8101de0:	fa22 f303 	lsr.w	r3, r2, r3
 8101de4:	607b      	str	r3, [r7, #4]
              pllvco = ((float_t)hsivalue / (float_t)pllm) * ((float_t)(uint32_t)(RCC->PLL1DIVR & RCC_PLL1DIVR_N1) + (fracn1 / (float_t)0x2000) + (float_t)1);
 8101de6:	687b      	ldr	r3, [r7, #4]
 8101de8:	ee07 3a90 	vmov	s15, r3
 8101dec:	eef8 6a67 	vcvt.f32.u32	s13, s15
 8101df0:	693b      	ldr	r3, [r7, #16]
 8101df2:	ee07 3a90 	vmov	s15, r3
 8101df6:	eef8 7a67 	vcvt.f32.u32	s15, s15
 8101dfa:	ee86 7aa7 	vdiv.f32	s14, s13, s15
 8101dfe:	4b62      	ldr	r3, [pc, #392]	@ (8101f88 <HAL_RCC_GetSysClockFreq+0x2d4>)
 8101e00:	6b1b      	ldr	r3, [r3, #48]	@ 0x30
 8101e02:	f3c3 0308 	ubfx	r3, r3, #0, #9
 8101e06:	ee07 3a90 	vmov	s15, r3
 8101e0a:	eef8 6a67 	vcvt.f32.u32	s13, s15
 8101e0e:	ed97 6a02 	vldr	s12, [r7, #8]
 8101e12:	eddf 5a61 	vldr	s11, [pc, #388]	@ 8101f98 <HAL_RCC_GetSysClockFreq+0x2e4>
 8101e16:	eec6 7a25 	vdiv.f32	s15, s12, s11
 8101e1a:	ee76 7aa7 	vadd.f32	s15, s13, s15
 8101e1e:	eef7 6a00 	vmov.f32	s13, #112	@ 0x3f800000  1.0
 8101e22:	ee77 7aa6 	vadd.f32	s15, s15, s13
 8101e26:	ee67 7a27 	vmul.f32	s15, s14, s15
 8101e2a:	edc7 7a07 	vstr	s15, [r7, #28]
            }
            else
            {
              pllvco = ((float_t)HSI_VALUE / (float_t)pllm) * ((float_t)(uint32_t)(RCC->PLL1DIVR & RCC_PLL1DIVR_N1) + (fracn1 / (float_t)0x2000) + (float_t)1);
            }
            break;
 8101e2e:	e087      	b.n	8101f40 <HAL_RCC_GetSysClockFreq+0x28c>
              pllvco = ((float_t)HSI_VALUE / (float_t)pllm) * ((float_t)(uint32_t)(RCC->PLL1DIVR & RCC_PLL1DIVR_N1) + (fracn1 / (float_t)0x2000) + (float_t)1);
 8101e30:	693b      	ldr	r3, [r7, #16]
 8101e32:	ee07 3a90 	vmov	s15, r3
 8101e36:	eef8 7a67 	vcvt.f32.u32	s15, s15
 8101e3a:	eddf 6a58 	vldr	s13, [pc, #352]	@ 8101f9c <HAL_RCC_GetSysClockFreq+0x2e8>
 8101e3e:	ee86 7aa7 	vdiv.f32	s14, s13, s15
 8101e42:	4b51      	ldr	r3, [pc, #324]	@ (8101f88 <HAL_RCC_GetSysClockFreq+0x2d4>)
 8101e44:	6b1b      	ldr	r3, [r3, #48]	@ 0x30
 8101e46:	f3c3 0308 	ubfx	r3, r3, #0, #9
 8101e4a:	ee07 3a90 	vmov	s15, r3
 8101e4e:	eef8 6a67 	vcvt.f32.u32	s13, s15
 8101e52:	ed97 6a02 	vldr	s12, [r7, #8]
 8101e56:	eddf 5a50 	vldr	s11, [pc, #320]	@ 8101f98 <HAL_RCC_GetSysClockFreq+0x2e4>
 8101e5a:	eec6 7a25 	vdiv.f32	s15, s12, s11
 8101e5e:	ee76 7aa7 	vadd.f32	s15, s13, s15
 8101e62:	eef7 6a00 	vmov.f32	s13, #112	@ 0x3f800000  1.0
 8101e66:	ee77 7aa6 	vadd.f32	s15, s15, s13
 8101e6a:	ee67 7a27 	vmul.f32	s15, s14, s15
 8101e6e:	edc7 7a07 	vstr	s15, [r7, #28]
            break;
 8101e72:	e065      	b.n	8101f40 <HAL_RCC_GetSysClockFreq+0x28c>

          case RCC_PLLSOURCE_CSI:  /* CSI used as PLL clock source */
            pllvco = ((float_t)CSI_VALUE / (float_t)pllm) * ((float_t)(uint32_t)(RCC->PLL1DIVR & RCC_PLL1DIVR_N1) + (fracn1 / (float_t)0x2000) + (float_t)1);
 8101e74:	693b      	ldr	r3, [r7, #16]
 8101e76:	ee07 3a90 	vmov	s15, r3
 8101e7a:	eef8 7a67 	vcvt.f32.u32	s15, s15
 8101e7e:	eddf 6a48 	vldr	s13, [pc, #288]	@ 8101fa0 <HAL_RCC_GetSysClockFreq+0x2ec>
 8101e82:	ee86 7aa7 	vdiv.f32	s14, s13, s15
 8101e86:	4b40      	ldr	r3, [pc, #256]	@ (8101f88 <HAL_RCC_GetSysClockFreq+0x2d4>)
 8101e88:	6b1b      	ldr	r3, [r3, #48]	@ 0x30
 8101e8a:	f3c3 0308 	ubfx	r3, r3, #0, #9
 8101e8e:	ee07 3a90 	vmov	s15, r3
 8101e92:	eef8 6a67 	vcvt.f32.u32	s13, s15
 8101e96:	ed97 6a02 	vldr	s12, [r7, #8]
 8101e9a:	eddf 5a3f 	vldr	s11, [pc, #252]	@ 8101f98 <HAL_RCC_GetSysClockFreq+0x2e4>
 8101e9e:	eec6 7a25 	vdiv.f32	s15, s12, s11
 8101ea2:	ee76 7aa7 	vadd.f32	s15, s13, s15
 8101ea6:	eef7 6a00 	vmov.f32	s13, #112	@ 0x3f800000  1.0
 8101eaa:	ee77 7aa6 	vadd.f32	s15, s15, s13
 8101eae:	ee67 7a27 	vmul.f32	s15, s14, s15
 8101eb2:	edc7 7a07 	vstr	s15, [r7, #28]
            break;
 8101eb6:	e043      	b.n	8101f40 <HAL_RCC_GetSysClockFreq+0x28c>

          case RCC_PLLSOURCE_HSE:  /* HSE used as PLL clock source */
            pllvco = ((float_t)HSE_VALUE / (float_t)pllm) * ((float_t)(uint32_t)(RCC->PLL1DIVR & RCC_PLL1DIVR_N1) + (fracn1 / (float_t)0x2000) + (float_t)1);
 8101eb8:	693b      	ldr	r3, [r7, #16]
 8101eba:	ee07 3a90 	vmov	s15, r3
 8101ebe:	eef8 7a67 	vcvt.f32.u32	s15, s15
 8101ec2:	eddf 6a38 	vldr	s13, [pc, #224]	@ 8101fa4 <HAL_RCC_GetSysClockFreq+0x2f0>
 8101ec6:	ee86 7aa7 	vdiv.f32	s14, s13, s15
 8101eca:	4b2f      	ldr	r3, [pc, #188]	@ (8101f88 <HAL_RCC_GetSysClockFreq+0x2d4>)
 8101ecc:	6b1b      	ldr	r3, [r3, #48]	@ 0x30
 8101ece:	f3c3 0308 	ubfx	r3, r3, #0, #9
 8101ed2:	ee07 3a90 	vmov	s15, r3
 8101ed6:	eef8 6a67 	vcvt.f32.u32	s13, s15
 8101eda:	ed97 6a02 	vldr	s12, [r7, #8]
 8101ede:	eddf 5a2e 	vldr	s11, [pc, #184]	@ 8101f98 <HAL_RCC_GetSysClockFreq+0x2e4>
 8101ee2:	eec6 7a25 	vdiv.f32	s15, s12, s11
 8101ee6:	ee76 7aa7 	vadd.f32	s15, s13, s15
 8101eea:	eef7 6a00 	vmov.f32	s13, #112	@ 0x3f800000  1.0
 8101eee:	ee77 7aa6 	vadd.f32	s15, s15, s13
 8101ef2:	ee67 7a27 	vmul.f32	s15, s14, s15
 8101ef6:	edc7 7a07 	vstr	s15, [r7, #28]
            break;
 8101efa:	e021      	b.n	8101f40 <HAL_RCC_GetSysClockFreq+0x28c>

          default:
            pllvco = ((float_t)CSI_VALUE / (float_t)pllm) * ((float_t)(uint32_t)(RCC->PLL1DIVR & RCC_PLL1DIVR_N1) + (fracn1 / (float_t)0x2000) + (float_t)1);
 8101efc:	693b      	ldr	r3, [r7, #16]
 8101efe:	ee07 3a90 	vmov	s15, r3
 8101f02:	eef8 7a67 	vcvt.f32.u32	s15, s15
 8101f06:	eddf 6a26 	vldr	s13, [pc, #152]	@ 8101fa0 <HAL_RCC_GetSysClockFreq+0x2ec>
 8101f0a:	ee86 7aa7 	vdiv.f32	s14, s13, s15
 8101f0e:	4b1e      	ldr	r3, [pc, #120]	@ (8101f88 <HAL_RCC_GetSysClockFreq+0x2d4>)
 8101f10:	6b1b      	ldr	r3, [r3, #48]	@ 0x30
 8101f12:	f3c3 0308 	ubfx	r3, r3, #0, #9
 8101f16:	ee07 3a90 	vmov	s15, r3
 8101f1a:	eef8 6a67 	vcvt.f32.u32	s13, s15
 8101f1e:	ed97 6a02 	vldr	s12, [r7, #8]
 8101f22:	eddf 5a1d 	vldr	s11, [pc, #116]	@ 8101f98 <HAL_RCC_GetSysClockFreq+0x2e4>
 8101f26:	eec6 7a25 	vdiv.f32	s15, s12, s11
 8101f2a:	ee76 7aa7 	vadd.f32	s15, s13, s15
 8101f2e:	eef7 6a00 	vmov.f32	s13, #112	@ 0x3f800000  1.0
 8101f32:	ee77 7aa6 	vadd.f32	s15, s15, s13
 8101f36:	ee67 7a27 	vmul.f32	s15, s14, s15
 8101f3a:	edc7 7a07 	vstr	s15, [r7, #28]
            break;
 8101f3e:	bf00      	nop
        }
        pllp = (((RCC->PLL1DIVR & RCC_PLL1DIVR_P1) >> 9) + 1U) ;
 8101f40:	4b11      	ldr	r3, [pc, #68]	@ (8101f88 <HAL_RCC_GetSysClockFreq+0x2d4>)
 8101f42:	6b1b      	ldr	r3, [r3, #48]	@ 0x30
 8101f44:	0a5b      	lsrs	r3, r3, #9
 8101f46:	f003 037f 	and.w	r3, r3, #127	@ 0x7f
 8101f4a:	3301      	adds	r3, #1
 8101f4c:	603b      	str	r3, [r7, #0]
        sysclockfreq = (uint32_t)(float_t)(pllvco / (float_t)pllp);
 8101f4e:	683b      	ldr	r3, [r7, #0]
 8101f50:	ee07 3a90 	vmov	s15, r3
 8101f54:	eeb8 7a67 	vcvt.f32.u32	s14, s15
 8101f58:	edd7 6a07 	vldr	s13, [r7, #28]
 8101f5c:	eec6 7a87 	vdiv.f32	s15, s13, s14
 8101f60:	eefc 7ae7 	vcvt.u32.f32	s15, s15
 8101f64:	ee17 3a90 	vmov	r3, s15
 8101f68:	61bb      	str	r3, [r7, #24]
      }
      else
      {
        sysclockfreq = 0U;
      }
      break;
 8101f6a:	e005      	b.n	8101f78 <HAL_RCC_GetSysClockFreq+0x2c4>
        sysclockfreq = 0U;
 8101f6c:	2300      	movs	r3, #0
 8101f6e:	61bb      	str	r3, [r7, #24]
      break;
 8101f70:	e002      	b.n	8101f78 <HAL_RCC_GetSysClockFreq+0x2c4>

    default:
      sysclockfreq = CSI_VALUE;
 8101f72:	4b07      	ldr	r3, [pc, #28]	@ (8101f90 <HAL_RCC_GetSysClockFreq+0x2dc>)
 8101f74:	61bb      	str	r3, [r7, #24]
      break;
 8101f76:	bf00      	nop
  }

  return sysclockfreq;
 8101f78:	69bb      	ldr	r3, [r7, #24]
}
 8101f7a:	4618      	mov	r0, r3
 8101f7c:	3724      	adds	r7, #36	@ 0x24
 8101f7e:	46bd      	mov	sp, r7
 8101f80:	f85d 7b04 	ldr.w	r7, [sp], #4
 8101f84:	4770      	bx	lr
 8101f86:	bf00      	nop
 8101f88:	58024400 	.word	0x58024400
 8101f8c:	03d09000 	.word	0x03d09000
 8101f90:	003d0900 	.word	0x003d0900
 8101f94:	017d7840 	.word	0x017d7840
 8101f98:	46000000 	.word	0x46000000
 8101f9c:	4c742400 	.word	0x4c742400
 8101fa0:	4a742400 	.word	0x4a742400
 8101fa4:	4bbebc20 	.word	0x4bbebc20

08101fa8 <HAL_RCCEx_PeriphCLKConfig>:
  * (*) : Available on some STM32H7 lines only.
  *
  * @retval HAL status
  */
HAL_StatusTypeDef HAL_RCCEx_PeriphCLKConfig(RCC_PeriphCLKInitTypeDef  *PeriphClkInit)
{
 8101fa8:	e92d 4fb0 	stmdb	sp!, {r4, r5, r7, r8, r9, sl, fp, lr}
 8101fac:	b0ca      	sub	sp, #296	@ 0x128
 8101fae:	af00      	add	r7, sp, #0
 8101fb0:	f8c7 0114 	str.w	r0, [r7, #276]	@ 0x114
  uint32_t tmpreg;
  uint32_t tickstart;
  HAL_StatusTypeDef ret = HAL_OK;      /* Intermediate status */
 8101fb4:	2300      	movs	r3, #0
 8101fb6:	f887 3127 	strb.w	r3, [r7, #295]	@ 0x127
  HAL_StatusTypeDef status = HAL_OK;   /* Final status */
 8101fba:	2300      	movs	r3, #0
 8101fbc:	f887 3126 	strb.w	r3, [r7, #294]	@ 0x126

  /*---------------------------- SPDIFRX configuration -------------------------------*/

  if (((PeriphClkInit->PeriphClockSelection) & RCC_PERIPHCLK_SPDIFRX) == RCC_PERIPHCLK_SPDIFRX)
 8101fc0:	f8d7 3114 	ldr.w	r3, [r7, #276]	@ 0x114
 8101fc4:	e9d3 2300 	ldrd	r2, r3, [r3]
 8101fc8:	f002 6400 	and.w	r4, r2, #134217728	@ 0x8000000
 8101fcc:	2500      	movs	r5, #0
 8101fce:	ea54 0305 	orrs.w	r3, r4, r5
 8101fd2:	d049      	beq.n	8102068 <HAL_RCCEx_PeriphCLKConfig+0xc0>
  {

    switch (PeriphClkInit->SpdifrxClockSelection)
 8101fd4:	f8d7 3114 	ldr.w	r3, [r7, #276]	@ 0x114
 8101fd8:	6e9b      	ldr	r3, [r3, #104]	@ 0x68
 8101fda:	f5b3 1f40 	cmp.w	r3, #3145728	@ 0x300000
 8101fde:	d02f      	beq.n	8102040 <HAL_RCCEx_PeriphCLKConfig+0x98>
 8101fe0:	f5b3 1f40 	cmp.w	r3, #3145728	@ 0x300000
 8101fe4:	d828      	bhi.n	8102038 <HAL_RCCEx_PeriphCLKConfig+0x90>
 8101fe6:	f5b3 1f00 	cmp.w	r3, #2097152	@ 0x200000
 8101fea:	d01a      	beq.n	8102022 <HAL_RCCEx_PeriphCLKConfig+0x7a>
 8101fec:	f5b3 1f00 	cmp.w	r3, #2097152	@ 0x200000
 8101ff0:	d822      	bhi.n	8102038 <HAL_RCCEx_PeriphCLKConfig+0x90>
 8101ff2:	2b00      	cmp	r3, #0
 8101ff4:	d003      	beq.n	8101ffe <HAL_RCCEx_PeriphCLKConfig+0x56>
 8101ff6:	f5b3 1f80 	cmp.w	r3, #1048576	@ 0x100000
 8101ffa:	d007      	beq.n	810200c <HAL_RCCEx_PeriphCLKConfig+0x64>
 8101ffc:	e01c      	b.n	8102038 <HAL_RCCEx_PeriphCLKConfig+0x90>
    {
      case RCC_SPDIFRXCLKSOURCE_PLL:      /* PLL is used as clock source for SPDIFRX*/
        /* Enable PLL1Q Clock output generated form System PLL . */
        __HAL_RCC_PLLCLKOUT_ENABLE(RCC_PLL1_DIVQ);
 8101ffe:	4bb8      	ldr	r3, [pc, #736]	@ (81022e0 <HAL_RCCEx_PeriphCLKConfig+0x338>)
 8102000:	6adb      	ldr	r3, [r3, #44]	@ 0x2c
 8102002:	4ab7      	ldr	r2, [pc, #732]	@ (81022e0 <HAL_RCCEx_PeriphCLKConfig+0x338>)
 8102004:	f443 3300 	orr.w	r3, r3, #131072	@ 0x20000
 8102008:	62d3      	str	r3, [r2, #44]	@ 0x2c

        /* SPDIFRX clock source configuration done later after clock selection check */
        break;
 810200a:	e01a      	b.n	8102042 <HAL_RCCEx_PeriphCLKConfig+0x9a>

      case RCC_SPDIFRXCLKSOURCE_PLL2: /* PLL2 is used as clock source for SPDIFRX*/

        ret = RCCEx_PLL2_Config(&(PeriphClkInit->PLL2), DIVIDER_R_UPDATE);
 810200c:	f8d7 3114 	ldr.w	r3, [r7, #276]	@ 0x114
 8102010:	3308      	adds	r3, #8
 8102012:	2102      	movs	r1, #2
 8102014:	4618      	mov	r0, r3
 8102016:	f001 f9d1 	bl	81033bc <RCCEx_PLL2_Config>
 810201a:	4603      	mov	r3, r0
 810201c:	f887 3127 	strb.w	r3, [r7, #295]	@ 0x127

        /* SPDIFRX clock source configuration done later after clock selection check */
        break;
 8102020:	e00f      	b.n	8102042 <HAL_RCCEx_PeriphCLKConfig+0x9a>

      case RCC_SPDIFRXCLKSOURCE_PLL3:  /* PLL3 is used as clock source for SPDIFRX*/
        ret = RCCEx_PLL3_Config(&(PeriphClkInit->PLL3), DIVIDER_R_UPDATE);
 8102022:	f8d7 3114 	ldr.w	r3, [r7, #276]	@ 0x114
 8102026:	3328      	adds	r3, #40	@ 0x28
 8102028:	2102      	movs	r1, #2
 810202a:	4618      	mov	r0, r3
 810202c:	f001 fa78 	bl	8103520 <RCCEx_PLL3_Config>
 8102030:	4603      	mov	r3, r0
 8102032:	f887 3127 	strb.w	r3, [r7, #295]	@ 0x127

        /* SPDIFRX clock source configuration done later after clock selection check */
        break;
 8102036:	e004      	b.n	8102042 <HAL_RCCEx_PeriphCLKConfig+0x9a>
        /* Internal OSC clock is used as source of SPDIFRX clock*/
        /* SPDIFRX clock source configuration done later after clock selection check */
        break;

      default:
        ret = HAL_ERROR;
 8102038:	2301      	movs	r3, #1
 810203a:	f887 3127 	strb.w	r3, [r7, #295]	@ 0x127
        break;
 810203e:	e000      	b.n	8102042 <HAL_RCCEx_PeriphCLKConfig+0x9a>
        break;
 8102040:	bf00      	nop
    }

    if (ret == HAL_OK)
 8102042:	f897 3127 	ldrb.w	r3, [r7, #295]	@ 0x127
 8102046:	2b00      	cmp	r3, #0
 8102048:	d10a      	bne.n	8102060 <HAL_RCCEx_PeriphCLKConfig+0xb8>
    {
      /* Set the source of SPDIFRX clock*/
      __HAL_RCC_SPDIFRX_CONFIG(PeriphClkInit->SpdifrxClockSelection);
 810204a:	4ba5      	ldr	r3, [pc, #660]	@ (81022e0 <HAL_RCCEx_PeriphCLKConfig+0x338>)
 810204c:	6d1b      	ldr	r3, [r3, #80]	@ 0x50
 810204e:	f423 1140 	bic.w	r1, r3, #3145728	@ 0x300000
 8102052:	f8d7 3114 	ldr.w	r3, [r7, #276]	@ 0x114
 8102056:	6e9b      	ldr	r3, [r3, #104]	@ 0x68
 8102058:	4aa1      	ldr	r2, [pc, #644]	@ (81022e0 <HAL_RCCEx_PeriphCLKConfig+0x338>)
 810205a:	430b      	orrs	r3, r1
 810205c:	6513      	str	r3, [r2, #80]	@ 0x50
 810205e:	e003      	b.n	8102068 <HAL_RCCEx_PeriphCLKConfig+0xc0>
    }
    else
    {
      /* set overall return value */
      status = ret;
 8102060:	f897 3127 	ldrb.w	r3, [r7, #295]	@ 0x127
 8102064:	f887 3126 	strb.w	r3, [r7, #294]	@ 0x126
    }
  }

  /*---------------------------- SAI1 configuration -------------------------------*/
  if (((PeriphClkInit->PeriphClockSelection) & RCC_PERIPHCLK_SAI1) == RCC_PERIPHCLK_SAI1)
 8102068:	f8d7 3114 	ldr.w	r3, [r7, #276]	@ 0x114
 810206c:	e9d3 2300 	ldrd	r2, r3, [r3]
 8102070:	f402 7880 	and.w	r8, r2, #256	@ 0x100
 8102074:	f04f 0900 	mov.w	r9, #0
 8102078:	ea58 0309 	orrs.w	r3, r8, r9
 810207c:	d047      	beq.n	810210e <HAL_RCCEx_PeriphCLKConfig+0x166>
  {
    switch (PeriphClkInit->Sai1ClockSelection)
 810207e:	f8d7 3114 	ldr.w	r3, [r7, #276]	@ 0x114
 8102082:	6d9b      	ldr	r3, [r3, #88]	@ 0x58
 8102084:	2b04      	cmp	r3, #4
 8102086:	d82a      	bhi.n	81020de <HAL_RCCEx_PeriphCLKConfig+0x136>
 8102088:	a201      	add	r2, pc, #4	@ (adr r2, 8102090 <HAL_RCCEx_PeriphCLKConfig+0xe8>)
 810208a:	f852 f023 	ldr.w	pc, [r2, r3, lsl #2]
 810208e:	bf00      	nop
 8102090:	081020a5 	.word	0x081020a5
 8102094:	081020b3 	.word	0x081020b3
 8102098:	081020c9 	.word	0x081020c9
 810209c:	081020e7 	.word	0x081020e7
 81020a0:	081020e7 	.word	0x081020e7
    {
      case RCC_SAI1CLKSOURCE_PLL:      /* PLL is used as clock source for SAI1*/
        /* Enable SAI Clock output generated form System PLL . */
        __HAL_RCC_PLLCLKOUT_ENABLE(RCC_PLL1_DIVQ);
 81020a4:	4b8e      	ldr	r3, [pc, #568]	@ (81022e0 <HAL_RCCEx_PeriphCLKConfig+0x338>)
 81020a6:	6adb      	ldr	r3, [r3, #44]	@ 0x2c
 81020a8:	4a8d      	ldr	r2, [pc, #564]	@ (81022e0 <HAL_RCCEx_PeriphCLKConfig+0x338>)
 81020aa:	f443 3300 	orr.w	r3, r3, #131072	@ 0x20000
 81020ae:	62d3      	str	r3, [r2, #44]	@ 0x2c

        /* SAI1 clock source configuration done later after clock selection check */
        break;
 81020b0:	e01a      	b.n	81020e8 <HAL_RCCEx_PeriphCLKConfig+0x140>

      case RCC_SAI1CLKSOURCE_PLL2: /* PLL2 is used as clock source for SAI1*/

        ret = RCCEx_PLL2_Config(&(PeriphClkInit->PLL2), DIVIDER_P_UPDATE);
 81020b2:	f8d7 3114 	ldr.w	r3, [r7, #276]	@ 0x114
 81020b6:	3308      	adds	r3, #8
 81020b8:	2100      	movs	r1, #0
 81020ba:	4618      	mov	r0, r3
 81020bc:	f001 f97e 	bl	81033bc <RCCEx_PLL2_Config>
 81020c0:	4603      	mov	r3, r0
 81020c2:	f887 3127 	strb.w	r3, [r7, #295]	@ 0x127

        /* SAI1 clock source configuration done later after clock selection check */
        break;
 81020c6:	e00f      	b.n	81020e8 <HAL_RCCEx_PeriphCLKConfig+0x140>

      case RCC_SAI1CLKSOURCE_PLL3:  /* PLL3 is used as clock source for SAI1*/
        ret = RCCEx_PLL3_Config(&(PeriphClkInit->PLL3), DIVIDER_P_UPDATE);
 81020c8:	f8d7 3114 	ldr.w	r3, [r7, #276]	@ 0x114
 81020cc:	3328      	adds	r3, #40	@ 0x28
 81020ce:	2100      	movs	r1, #0
 81020d0:	4618      	mov	r0, r3
 81020d2:	f001 fa25 	bl	8103520 <RCCEx_PLL3_Config>
 81020d6:	4603      	mov	r3, r0
 81020d8:	f887 3127 	strb.w	r3, [r7, #295]	@ 0x127

        /* SAI1 clock source configuration done later after clock selection check */
        break;
 81020dc:	e004      	b.n	81020e8 <HAL_RCCEx_PeriphCLKConfig+0x140>
        /* HSI, HSE, or CSI oscillator is used as source of SAI1 clock */
        /* SAI1 clock source configuration done later after clock selection check */
        break;

      default:
        ret = HAL_ERROR;
 81020de:	2301      	movs	r3, #1
 81020e0:	f887 3127 	strb.w	r3, [r7, #295]	@ 0x127
        break;
 81020e4:	e000      	b.n	81020e8 <HAL_RCCEx_PeriphCLKConfig+0x140>
        break;
 81020e6:	bf00      	nop
    }

    if (ret == HAL_OK)
 81020e8:	f897 3127 	ldrb.w	r3, [r7, #295]	@ 0x127
 81020ec:	2b00      	cmp	r3, #0
 81020ee:	d10a      	bne.n	8102106 <HAL_RCCEx_PeriphCLKConfig+0x15e>
    {
      /* Set the source of SAI1 clock*/
      __HAL_RCC_SAI1_CONFIG(PeriphClkInit->Sai1ClockSelection);
 81020f0:	4b7b      	ldr	r3, [pc, #492]	@ (81022e0 <HAL_RCCEx_PeriphCLKConfig+0x338>)
 81020f2:	6d1b      	ldr	r3, [r3, #80]	@ 0x50
 81020f4:	f023 0107 	bic.w	r1, r3, #7
 81020f8:	f8d7 3114 	ldr.w	r3, [r7, #276]	@ 0x114
 81020fc:	6d9b      	ldr	r3, [r3, #88]	@ 0x58
 81020fe:	4a78      	ldr	r2, [pc, #480]	@ (81022e0 <HAL_RCCEx_PeriphCLKConfig+0x338>)
 8102100:	430b      	orrs	r3, r1
 8102102:	6513      	str	r3, [r2, #80]	@ 0x50
 8102104:	e003      	b.n	810210e <HAL_RCCEx_PeriphCLKConfig+0x166>
    }
    else
    {
      /* set overall return value */
      status = ret;
 8102106:	f897 3127 	ldrb.w	r3, [r7, #295]	@ 0x127
 810210a:	f887 3126 	strb.w	r3, [r7, #294]	@ 0x126
    }
  }

#if defined(SAI3)
  /*---------------------------- SAI2/3 configuration -------------------------------*/
  if (((PeriphClkInit->PeriphClockSelection) & RCC_PERIPHCLK_SAI23) == RCC_PERIPHCLK_SAI23)
 810210e:	f8d7 3114 	ldr.w	r3, [r7, #276]	@ 0x114
 8102112:	e9d3 2300 	ldrd	r2, r3, [r3]
 8102116:	f402 7a00 	and.w	sl, r2, #512	@ 0x200
 810211a:	f04f 0b00 	mov.w	fp, #0
 810211e:	ea5a 030b 	orrs.w	r3, sl, fp
 8102122:	d04c      	beq.n	81021be <HAL_RCCEx_PeriphCLKConfig+0x216>
  {
    switch (PeriphClkInit->Sai23ClockSelection)
 8102124:	f8d7 3114 	ldr.w	r3, [r7, #276]	@ 0x114
 8102128:	6ddb      	ldr	r3, [r3, #92]	@ 0x5c
 810212a:	f5b3 7f80 	cmp.w	r3, #256	@ 0x100
 810212e:	d030      	beq.n	8102192 <HAL_RCCEx_PeriphCLKConfig+0x1ea>
 8102130:	f5b3 7f80 	cmp.w	r3, #256	@ 0x100
 8102134:	d829      	bhi.n	810218a <HAL_RCCEx_PeriphCLKConfig+0x1e2>
 8102136:	2bc0      	cmp	r3, #192	@ 0xc0
 8102138:	d02d      	beq.n	8102196 <HAL_RCCEx_PeriphCLKConfig+0x1ee>
 810213a:	2bc0      	cmp	r3, #192	@ 0xc0
 810213c:	d825      	bhi.n	810218a <HAL_RCCEx_PeriphCLKConfig+0x1e2>
 810213e:	2b80      	cmp	r3, #128	@ 0x80
 8102140:	d018      	beq.n	8102174 <HAL_RCCEx_PeriphCLKConfig+0x1cc>
 8102142:	2b80      	cmp	r3, #128	@ 0x80
 8102144:	d821      	bhi.n	810218a <HAL_RCCEx_PeriphCLKConfig+0x1e2>
 8102146:	2b00      	cmp	r3, #0
 8102148:	d002      	beq.n	8102150 <HAL_RCCEx_PeriphCLKConfig+0x1a8>
 810214a:	2b40      	cmp	r3, #64	@ 0x40
 810214c:	d007      	beq.n	810215e <HAL_RCCEx_PeriphCLKConfig+0x1b6>
 810214e:	e01c      	b.n	810218a <HAL_RCCEx_PeriphCLKConfig+0x1e2>
    {
      case RCC_SAI23CLKSOURCE_PLL:      /* PLL is used as clock source for SAI2/3 */
        /* Enable SAI Clock output generated form System PLL . */
        __HAL_RCC_PLLCLKOUT_ENABLE(RCC_PLL1_DIVQ);
 8102150:	4b63      	ldr	r3, [pc, #396]	@ (81022e0 <HAL_RCCEx_PeriphCLKConfig+0x338>)
 8102152:	6adb      	ldr	r3, [r3, #44]	@ 0x2c
 8102154:	4a62      	ldr	r2, [pc, #392]	@ (81022e0 <HAL_RCCEx_PeriphCLKConfig+0x338>)
 8102156:	f443 3300 	orr.w	r3, r3, #131072	@ 0x20000
 810215a:	62d3      	str	r3, [r2, #44]	@ 0x2c

        /* SAI2/3 clock source configuration done later after clock selection check */
        break;
 810215c:	e01c      	b.n	8102198 <HAL_RCCEx_PeriphCLKConfig+0x1f0>

      case RCC_SAI23CLKSOURCE_PLL2: /* PLL2 is used as clock source for SAI2/3 */

        ret = RCCEx_PLL2_Config(&(PeriphClkInit->PLL2), DIVIDER_P_UPDATE);
 810215e:	f8d7 3114 	ldr.w	r3, [r7, #276]	@ 0x114
 8102162:	3308      	adds	r3, #8
 8102164:	2100      	movs	r1, #0
 8102166:	4618      	mov	r0, r3
 8102168:	f001 f928 	bl	81033bc <RCCEx_PLL2_Config>
 810216c:	4603      	mov	r3, r0
 810216e:	f887 3127 	strb.w	r3, [r7, #295]	@ 0x127

        /* SAI2/3 clock source configuration done later after clock selection check */
        break;
 8102172:	e011      	b.n	8102198 <HAL_RCCEx_PeriphCLKConfig+0x1f0>

      case RCC_SAI23CLKSOURCE_PLL3:  /* PLL3 is used as clock source for SAI2/3 */
        ret = RCCEx_PLL3_Config(&(PeriphClkInit->PLL3), DIVIDER_P_UPDATE);
 8102174:	f8d7 3114 	ldr.w	r3, [r7, #276]	@ 0x114
 8102178:	3328      	adds	r3, #40	@ 0x28
 810217a:	2100      	movs	r1, #0
 810217c:	4618      	mov	r0, r3
 810217e:	f001 f9cf 	bl	8103520 <RCCEx_PLL3_Config>
 8102182:	4603      	mov	r3, r0
 8102184:	f887 3127 	strb.w	r3, [r7, #295]	@ 0x127

        /* SAI2/3 clock source configuration done later after clock selection check */
        break;
 8102188:	e006      	b.n	8102198 <HAL_RCCEx_PeriphCLKConfig+0x1f0>
        /* HSI, HSE, or CSI oscillator is used as source of SAI2/3 clock */
        /* SAI2/3 clock source configuration done later after clock selection check */
        break;

      default:
        ret = HAL_ERROR;
 810218a:	2301      	movs	r3, #1
 810218c:	f887 3127 	strb.w	r3, [r7, #295]	@ 0x127
        break;
 8102190:	e002      	b.n	8102198 <HAL_RCCEx_PeriphCLKConfig+0x1f0>
        break;
 8102192:	bf00      	nop
 8102194:	e000      	b.n	8102198 <HAL_RCCEx_PeriphCLKConfig+0x1f0>
        break;
 8102196:	bf00      	nop
    }

    if (ret == HAL_OK)
 8102198:	f897 3127 	ldrb.w	r3, [r7, #295]	@ 0x127
 810219c:	2b00      	cmp	r3, #0
 810219e:	d10a      	bne.n	81021b6 <HAL_RCCEx_PeriphCLKConfig+0x20e>
    {
      /* Set the source of SAI2/3 clock*/
      __HAL_RCC_SAI23_CONFIG(PeriphClkInit->Sai23ClockSelection);
 81021a0:	4b4f      	ldr	r3, [pc, #316]	@ (81022e0 <HAL_RCCEx_PeriphCLKConfig+0x338>)
 81021a2:	6d1b      	ldr	r3, [r3, #80]	@ 0x50
 81021a4:	f423 71e0 	bic.w	r1, r3, #448	@ 0x1c0
 81021a8:	f8d7 3114 	ldr.w	r3, [r7, #276]	@ 0x114
 81021ac:	6ddb      	ldr	r3, [r3, #92]	@ 0x5c
 81021ae:	4a4c      	ldr	r2, [pc, #304]	@ (81022e0 <HAL_RCCEx_PeriphCLKConfig+0x338>)
 81021b0:	430b      	orrs	r3, r1
 81021b2:	6513      	str	r3, [r2, #80]	@ 0x50
 81021b4:	e003      	b.n	81021be <HAL_RCCEx_PeriphCLKConfig+0x216>
    }
    else
    {
      /* set overall return value */
      status = ret;
 81021b6:	f897 3127 	ldrb.w	r3, [r7, #295]	@ 0x127
 81021ba:	f887 3126 	strb.w	r3, [r7, #294]	@ 0x126
  }
#endif  /*SAI2B*/

#if defined(SAI4)
  /*---------------------------- SAI4A configuration -------------------------------*/
  if (((PeriphClkInit->PeriphClockSelection) & RCC_PERIPHCLK_SAI4A) == RCC_PERIPHCLK_SAI4A)
 81021be:	f8d7 3114 	ldr.w	r3, [r7, #276]	@ 0x114
 81021c2:	e9d3 2300 	ldrd	r2, r3, [r3]
 81021c6:	f402 6380 	and.w	r3, r2, #1024	@ 0x400
 81021ca:	f8c7 3108 	str.w	r3, [r7, #264]	@ 0x108
 81021ce:	2300      	movs	r3, #0
 81021d0:	f8c7 310c 	str.w	r3, [r7, #268]	@ 0x10c
 81021d4:	e9d7 1242 	ldrd	r1, r2, [r7, #264]	@ 0x108
 81021d8:	460b      	mov	r3, r1
 81021da:	4313      	orrs	r3, r2
 81021dc:	d053      	beq.n	8102286 <HAL_RCCEx_PeriphCLKConfig+0x2de>
  {
    switch (PeriphClkInit->Sai4AClockSelection)
 81021de:	f8d7 3114 	ldr.w	r3, [r7, #276]	@ 0x114
 81021e2:	f8d3 30a8 	ldr.w	r3, [r3, #168]	@ 0xa8
 81021e6:	f5b3 0f00 	cmp.w	r3, #8388608	@ 0x800000
 81021ea:	d035      	beq.n	8102258 <HAL_RCCEx_PeriphCLKConfig+0x2b0>
 81021ec:	f5b3 0f00 	cmp.w	r3, #8388608	@ 0x800000
 81021f0:	d82e      	bhi.n	8102250 <HAL_RCCEx_PeriphCLKConfig+0x2a8>
 81021f2:	f5b3 0fc0 	cmp.w	r3, #6291456	@ 0x600000
 81021f6:	d031      	beq.n	810225c <HAL_RCCEx_PeriphCLKConfig+0x2b4>
 81021f8:	f5b3 0fc0 	cmp.w	r3, #6291456	@ 0x600000
 81021fc:	d828      	bhi.n	8102250 <HAL_RCCEx_PeriphCLKConfig+0x2a8>
 81021fe:	f5b3 0f80 	cmp.w	r3, #4194304	@ 0x400000
 8102202:	d01a      	beq.n	810223a <HAL_RCCEx_PeriphCLKConfig+0x292>
 8102204:	f5b3 0f80 	cmp.w	r3, #4194304	@ 0x400000
 8102208:	d822      	bhi.n	8102250 <HAL_RCCEx_PeriphCLKConfig+0x2a8>
 810220a:	2b00      	cmp	r3, #0
 810220c:	d003      	beq.n	8102216 <HAL_RCCEx_PeriphCLKConfig+0x26e>
 810220e:	f5b3 1f00 	cmp.w	r3, #2097152	@ 0x200000
 8102212:	d007      	beq.n	8102224 <HAL_RCCEx_PeriphCLKConfig+0x27c>
 8102214:	e01c      	b.n	8102250 <HAL_RCCEx_PeriphCLKConfig+0x2a8>
    {
      case RCC_SAI4ACLKSOURCE_PLL:      /* PLL is used as clock source for SAI2*/
        /* Enable SAI Clock output generated form System PLL . */
        __HAL_RCC_PLLCLKOUT_ENABLE(RCC_PLL1_DIVQ);
 8102216:	4b32      	ldr	r3, [pc, #200]	@ (81022e0 <HAL_RCCEx_PeriphCLKConfig+0x338>)
 8102218:	6adb      	ldr	r3, [r3, #44]	@ 0x2c
 810221a:	4a31      	ldr	r2, [pc, #196]	@ (81022e0 <HAL_RCCEx_PeriphCLKConfig+0x338>)
 810221c:	f443 3300 	orr.w	r3, r3, #131072	@ 0x20000
 8102220:	62d3      	str	r3, [r2, #44]	@ 0x2c

        /* SAI1 clock source configuration done later after clock selection check */
        break;
 8102222:	e01c      	b.n	810225e <HAL_RCCEx_PeriphCLKConfig+0x2b6>

      case RCC_SAI4ACLKSOURCE_PLL2: /* PLL2 is used as clock source for SAI2*/

        ret = RCCEx_PLL2_Config(&(PeriphClkInit->PLL2), DIVIDER_P_UPDATE);
 8102224:	f8d7 3114 	ldr.w	r3, [r7, #276]	@ 0x114
 8102228:	3308      	adds	r3, #8
 810222a:	2100      	movs	r1, #0
 810222c:	4618      	mov	r0, r3
 810222e:	f001 f8c5 	bl	81033bc <RCCEx_PLL2_Config>
 8102232:	4603      	mov	r3, r0
 8102234:	f887 3127 	strb.w	r3, [r7, #295]	@ 0x127

        /* SAI2 clock source configuration done later after clock selection check */
        break;
 8102238:	e011      	b.n	810225e <HAL_RCCEx_PeriphCLKConfig+0x2b6>

      case RCC_SAI4ACLKSOURCE_PLL3:  /* PLL3 is used as clock source for SAI2*/
        ret = RCCEx_PLL3_Config(&(PeriphClkInit->PLL3), DIVIDER_P_UPDATE);
 810223a:	f8d7 3114 	ldr.w	r3, [r7, #276]	@ 0x114
 810223e:	3328      	adds	r3, #40	@ 0x28
 8102240:	2100      	movs	r1, #0
 8102242:	4618      	mov	r0, r3
 8102244:	f001 f96c 	bl	8103520 <RCCEx_PLL3_Config>
 8102248:	4603      	mov	r3, r0
 810224a:	f887 3127 	strb.w	r3, [r7, #295]	@ 0x127

        /* SAI1 clock source configuration done later after clock selection check */
        break;
 810224e:	e006      	b.n	810225e <HAL_RCCEx_PeriphCLKConfig+0x2b6>
        /* SAI4A clock source configuration done later after clock selection check */
        break;
#endif /* RCC_VER_3_0 */

      default:
        ret = HAL_ERROR;
 8102250:	2301      	movs	r3, #1
 8102252:	f887 3127 	strb.w	r3, [r7, #295]	@ 0x127
        break;
 8102256:	e002      	b.n	810225e <HAL_RCCEx_PeriphCLKConfig+0x2b6>
        break;
 8102258:	bf00      	nop
 810225a:	e000      	b.n	810225e <HAL_RCCEx_PeriphCLKConfig+0x2b6>
        break;
 810225c:	bf00      	nop
    }

    if (ret == HAL_OK)
 810225e:	f897 3127 	ldrb.w	r3, [r7, #295]	@ 0x127
 8102262:	2b00      	cmp	r3, #0
 8102264:	d10b      	bne.n	810227e <HAL_RCCEx_PeriphCLKConfig+0x2d6>
    {
      /* Set the source of SAI4A clock*/
      __HAL_RCC_SAI4A_CONFIG(PeriphClkInit->Sai4AClockSelection);
 8102266:	4b1e      	ldr	r3, [pc, #120]	@ (81022e0 <HAL_RCCEx_PeriphCLKConfig+0x338>)
 8102268:	6d9b      	ldr	r3, [r3, #88]	@ 0x58
 810226a:	f423 0160 	bic.w	r1, r3, #14680064	@ 0xe00000
 810226e:	f8d7 3114 	ldr.w	r3, [r7, #276]	@ 0x114
 8102272:	f8d3 30a8 	ldr.w	r3, [r3, #168]	@ 0xa8
 8102276:	4a1a      	ldr	r2, [pc, #104]	@ (81022e0 <HAL_RCCEx_PeriphCLKConfig+0x338>)
 8102278:	430b      	orrs	r3, r1
 810227a:	6593      	str	r3, [r2, #88]	@ 0x58
 810227c:	e003      	b.n	8102286 <HAL_RCCEx_PeriphCLKConfig+0x2de>
    }
    else
    {
      /* set overall return value */
      status = ret;
 810227e:	f897 3127 	ldrb.w	r3, [r7, #295]	@ 0x127
 8102282:	f887 3126 	strb.w	r3, [r7, #294]	@ 0x126
    }
  }
  /*---------------------------- SAI4B configuration -------------------------------*/
  if (((PeriphClkInit->PeriphClockSelection) & RCC_PERIPHCLK_SAI4B) == RCC_PERIPHCLK_SAI4B)
 8102286:	f8d7 3114 	ldr.w	r3, [r7, #276]	@ 0x114
 810228a:	e9d3 2300 	ldrd	r2, r3, [r3]
 810228e:	f402 6300 	and.w	r3, r2, #2048	@ 0x800
 8102292:	f8c7 3100 	str.w	r3, [r7, #256]	@ 0x100
 8102296:	2300      	movs	r3, #0
 8102298:	f8c7 3104 	str.w	r3, [r7, #260]	@ 0x104
 810229c:	e9d7 1240 	ldrd	r1, r2, [r7, #256]	@ 0x100
 81022a0:	460b      	mov	r3, r1
 81022a2:	4313      	orrs	r3, r2
 81022a4:	d056      	beq.n	8102354 <HAL_RCCEx_PeriphCLKConfig+0x3ac>
  {
    switch (PeriphClkInit->Sai4BClockSelection)
 81022a6:	f8d7 3114 	ldr.w	r3, [r7, #276]	@ 0x114
 81022aa:	f8d3 30ac 	ldr.w	r3, [r3, #172]	@ 0xac
 81022ae:	f1b3 6f80 	cmp.w	r3, #67108864	@ 0x4000000
 81022b2:	d038      	beq.n	8102326 <HAL_RCCEx_PeriphCLKConfig+0x37e>
 81022b4:	f1b3 6f80 	cmp.w	r3, #67108864	@ 0x4000000
 81022b8:	d831      	bhi.n	810231e <HAL_RCCEx_PeriphCLKConfig+0x376>
 81022ba:	f1b3 7f40 	cmp.w	r3, #50331648	@ 0x3000000
 81022be:	d034      	beq.n	810232a <HAL_RCCEx_PeriphCLKConfig+0x382>
 81022c0:	f1b3 7f40 	cmp.w	r3, #50331648	@ 0x3000000
 81022c4:	d82b      	bhi.n	810231e <HAL_RCCEx_PeriphCLKConfig+0x376>
 81022c6:	f1b3 7f00 	cmp.w	r3, #33554432	@ 0x2000000
 81022ca:	d01d      	beq.n	8102308 <HAL_RCCEx_PeriphCLKConfig+0x360>
 81022cc:	f1b3 7f00 	cmp.w	r3, #33554432	@ 0x2000000
 81022d0:	d825      	bhi.n	810231e <HAL_RCCEx_PeriphCLKConfig+0x376>
 81022d2:	2b00      	cmp	r3, #0
 81022d4:	d006      	beq.n	81022e4 <HAL_RCCEx_PeriphCLKConfig+0x33c>
 81022d6:	f1b3 7f80 	cmp.w	r3, #16777216	@ 0x1000000
 81022da:	d00a      	beq.n	81022f2 <HAL_RCCEx_PeriphCLKConfig+0x34a>
 81022dc:	e01f      	b.n	810231e <HAL_RCCEx_PeriphCLKConfig+0x376>
 81022de:	bf00      	nop
 81022e0:	58024400 	.word	0x58024400
    {
      case RCC_SAI4BCLKSOURCE_PLL:      /* PLL is used as clock source for SAI2*/
        /* Enable SAI Clock output generated form System PLL . */
        __HAL_RCC_PLLCLKOUT_ENABLE(RCC_PLL1_DIVQ);
 81022e4:	4ba2      	ldr	r3, [pc, #648]	@ (8102570 <HAL_RCCEx_PeriphCLKConfig+0x5c8>)
 81022e6:	6adb      	ldr	r3, [r3, #44]	@ 0x2c
 81022e8:	4aa1      	ldr	r2, [pc, #644]	@ (8102570 <HAL_RCCEx_PeriphCLKConfig+0x5c8>)
 81022ea:	f443 3300 	orr.w	r3, r3, #131072	@ 0x20000
 81022ee:	62d3      	str	r3, [r2, #44]	@ 0x2c

        /* SAI1 clock source configuration done later after clock selection check */
        break;
 81022f0:	e01c      	b.n	810232c <HAL_RCCEx_PeriphCLKConfig+0x384>

      case RCC_SAI4BCLKSOURCE_PLL2: /* PLL2 is used as clock source for SAI2*/

        ret = RCCEx_PLL2_Config(&(PeriphClkInit->PLL2), DIVIDER_P_UPDATE);
 81022f2:	f8d7 3114 	ldr.w	r3, [r7, #276]	@ 0x114
 81022f6:	3308      	adds	r3, #8
 81022f8:	2100      	movs	r1, #0
 81022fa:	4618      	mov	r0, r3
 81022fc:	f001 f85e 	bl	81033bc <RCCEx_PLL2_Config>
 8102300:	4603      	mov	r3, r0
 8102302:	f887 3127 	strb.w	r3, [r7, #295]	@ 0x127

        /* SAI2 clock source configuration done later after clock selection check */
        break;
 8102306:	e011      	b.n	810232c <HAL_RCCEx_PeriphCLKConfig+0x384>

      case RCC_SAI4BCLKSOURCE_PLL3:  /* PLL3 is used as clock source for SAI2*/
        ret = RCCEx_PLL3_Config(&(PeriphClkInit->PLL3), DIVIDER_P_UPDATE);
 8102308:	f8d7 3114 	ldr.w	r3, [r7, #276]	@ 0x114
 810230c:	3328      	adds	r3, #40	@ 0x28
 810230e:	2100      	movs	r1, #0
 8102310:	4618      	mov	r0, r3
 8102312:	f001 f905 	bl	8103520 <RCCEx_PLL3_Config>
 8102316:	4603      	mov	r3, r0
 8102318:	f887 3127 	strb.w	r3, [r7, #295]	@ 0x127

        /* SAI1 clock source configuration done later after clock selection check */
        break;
 810231c:	e006      	b.n	810232c <HAL_RCCEx_PeriphCLKConfig+0x384>
        /* SAI4B clock source configuration done later after clock selection check */
        break;
#endif /* RCC_VER_3_0 */

      default:
        ret = HAL_ERROR;
 810231e:	2301      	movs	r3, #1
 8102320:	f887 3127 	strb.w	r3, [r7, #295]	@ 0x127
        break;
 8102324:	e002      	b.n	810232c <HAL_RCCEx_PeriphCLKConfig+0x384>
        break;
 8102326:	bf00      	nop
 8102328:	e000      	b.n	810232c <HAL_RCCEx_PeriphCLKConfig+0x384>
        break;
 810232a:	bf00      	nop
    }

    if (ret == HAL_OK)
 810232c:	f897 3127 	ldrb.w	r3, [r7, #295]	@ 0x127
 8102330:	2b00      	cmp	r3, #0
 8102332:	d10b      	bne.n	810234c <HAL_RCCEx_PeriphCLKConfig+0x3a4>
    {
      /* Set the source of SAI4B clock*/
      __HAL_RCC_SAI4B_CONFIG(PeriphClkInit->Sai4BClockSelection);
 8102334:	4b8e      	ldr	r3, [pc, #568]	@ (8102570 <HAL_RCCEx_PeriphCLKConfig+0x5c8>)
 8102336:	6d9b      	ldr	r3, [r3, #88]	@ 0x58
 8102338:	f023 61e0 	bic.w	r1, r3, #117440512	@ 0x7000000
 810233c:	f8d7 3114 	ldr.w	r3, [r7, #276]	@ 0x114
 8102340:	f8d3 30ac 	ldr.w	r3, [r3, #172]	@ 0xac
 8102344:	4a8a      	ldr	r2, [pc, #552]	@ (8102570 <HAL_RCCEx_PeriphCLKConfig+0x5c8>)
 8102346:	430b      	orrs	r3, r1
 8102348:	6593      	str	r3, [r2, #88]	@ 0x58
 810234a:	e003      	b.n	8102354 <HAL_RCCEx_PeriphCLKConfig+0x3ac>
    }
    else
    {
      /* set overall return value */
      status = ret;
 810234c:	f897 3127 	ldrb.w	r3, [r7, #295]	@ 0x127
 8102350:	f887 3126 	strb.w	r3, [r7, #294]	@ 0x126
  }
#endif  /*SAI4*/

#if defined(QUADSPI)
  /*---------------------------- QSPI configuration -------------------------------*/
  if (((PeriphClkInit->PeriphClockSelection) & RCC_PERIPHCLK_QSPI) == RCC_PERIPHCLK_QSPI)
 8102354:	f8d7 3114 	ldr.w	r3, [r7, #276]	@ 0x114
 8102358:	e9d3 2300 	ldrd	r2, r3, [r3]
 810235c:	f002 7300 	and.w	r3, r2, #33554432	@ 0x2000000
 8102360:	f8c7 30f8 	str.w	r3, [r7, #248]	@ 0xf8
 8102364:	2300      	movs	r3, #0
 8102366:	f8c7 30fc 	str.w	r3, [r7, #252]	@ 0xfc
 810236a:	e9d7 123e 	ldrd	r1, r2, [r7, #248]	@ 0xf8
 810236e:	460b      	mov	r3, r1
 8102370:	4313      	orrs	r3, r2
 8102372:	d03a      	beq.n	81023ea <HAL_RCCEx_PeriphCLKConfig+0x442>
  {
    switch (PeriphClkInit->QspiClockSelection)
 8102374:	f8d7 3114 	ldr.w	r3, [r7, #276]	@ 0x114
 8102378:	6cdb      	ldr	r3, [r3, #76]	@ 0x4c
 810237a:	2b30      	cmp	r3, #48	@ 0x30
 810237c:	d01f      	beq.n	81023be <HAL_RCCEx_PeriphCLKConfig+0x416>
 810237e:	2b30      	cmp	r3, #48	@ 0x30
 8102380:	d819      	bhi.n	81023b6 <HAL_RCCEx_PeriphCLKConfig+0x40e>
 8102382:	2b20      	cmp	r3, #32
 8102384:	d00c      	beq.n	81023a0 <HAL_RCCEx_PeriphCLKConfig+0x3f8>
 8102386:	2b20      	cmp	r3, #32
 8102388:	d815      	bhi.n	81023b6 <HAL_RCCEx_PeriphCLKConfig+0x40e>
 810238a:	2b00      	cmp	r3, #0
 810238c:	d019      	beq.n	81023c2 <HAL_RCCEx_PeriphCLKConfig+0x41a>
 810238e:	2b10      	cmp	r3, #16
 8102390:	d111      	bne.n	81023b6 <HAL_RCCEx_PeriphCLKConfig+0x40e>
    {
      case RCC_QSPICLKSOURCE_PLL:      /* PLL is used as clock source for QSPI*/
        /* Enable QSPI Clock output generated form System PLL . */
        __HAL_RCC_PLLCLKOUT_ENABLE(RCC_PLL1_DIVQ);
 8102392:	4b77      	ldr	r3, [pc, #476]	@ (8102570 <HAL_RCCEx_PeriphCLKConfig+0x5c8>)
 8102394:	6adb      	ldr	r3, [r3, #44]	@ 0x2c
 8102396:	4a76      	ldr	r2, [pc, #472]	@ (8102570 <HAL_RCCEx_PeriphCLKConfig+0x5c8>)
 8102398:	f443 3300 	orr.w	r3, r3, #131072	@ 0x20000
 810239c:	62d3      	str	r3, [r2, #44]	@ 0x2c

        /* QSPI clock source configuration done later after clock selection check */
        break;
 810239e:	e011      	b.n	81023c4 <HAL_RCCEx_PeriphCLKConfig+0x41c>

      case RCC_QSPICLKSOURCE_PLL2: /* PLL2 is used as clock source for QSPI*/

        ret = RCCEx_PLL2_Config(&(PeriphClkInit->PLL2), DIVIDER_R_UPDATE);
 81023a0:	f8d7 3114 	ldr.w	r3, [r7, #276]	@ 0x114
 81023a4:	3308      	adds	r3, #8
 81023a6:	2102      	movs	r1, #2
 81023a8:	4618      	mov	r0, r3
 81023aa:	f001 f807 	bl	81033bc <RCCEx_PLL2_Config>
 81023ae:	4603      	mov	r3, r0
 81023b0:	f887 3127 	strb.w	r3, [r7, #295]	@ 0x127

        /* QSPI clock source configuration done later after clock selection check */
        break;
 81023b4:	e006      	b.n	81023c4 <HAL_RCCEx_PeriphCLKConfig+0x41c>
      case RCC_QSPICLKSOURCE_D1HCLK:
        /* Domain1 HCLK  clock selected as QSPI kernel peripheral clock */
        break;

      default:
        ret = HAL_ERROR;
 81023b6:	2301      	movs	r3, #1
 81023b8:	f887 3127 	strb.w	r3, [r7, #295]	@ 0x127
        break;
 81023bc:	e002      	b.n	81023c4 <HAL_RCCEx_PeriphCLKConfig+0x41c>
        break;
 81023be:	bf00      	nop
 81023c0:	e000      	b.n	81023c4 <HAL_RCCEx_PeriphCLKConfig+0x41c>
        break;
 81023c2:	bf00      	nop
    }

    if (ret == HAL_OK)
 81023c4:	f897 3127 	ldrb.w	r3, [r7, #295]	@ 0x127
 81023c8:	2b00      	cmp	r3, #0
 81023ca:	d10a      	bne.n	81023e2 <HAL_RCCEx_PeriphCLKConfig+0x43a>
    {
      /* Set the source of QSPI clock*/
      __HAL_RCC_QSPI_CONFIG(PeriphClkInit->QspiClockSelection);
 81023cc:	4b68      	ldr	r3, [pc, #416]	@ (8102570 <HAL_RCCEx_PeriphCLKConfig+0x5c8>)
 81023ce:	6cdb      	ldr	r3, [r3, #76]	@ 0x4c
 81023d0:	f023 0130 	bic.w	r1, r3, #48	@ 0x30
 81023d4:	f8d7 3114 	ldr.w	r3, [r7, #276]	@ 0x114
 81023d8:	6cdb      	ldr	r3, [r3, #76]	@ 0x4c
 81023da:	4a65      	ldr	r2, [pc, #404]	@ (8102570 <HAL_RCCEx_PeriphCLKConfig+0x5c8>)
 81023dc:	430b      	orrs	r3, r1
 81023de:	64d3      	str	r3, [r2, #76]	@ 0x4c
 81023e0:	e003      	b.n	81023ea <HAL_RCCEx_PeriphCLKConfig+0x442>
    }
    else
    {
      /* set overall return value */
      status = ret;
 81023e2:	f897 3127 	ldrb.w	r3, [r7, #295]	@ 0x127
 81023e6:	f887 3126 	strb.w	r3, [r7, #294]	@ 0x126
    }
  }
#endif  /*OCTOSPI*/

  /*---------------------------- SPI1/2/3 configuration -------------------------------*/
  if (((PeriphClkInit->PeriphClockSelection) & RCC_PERIPHCLK_SPI123) == RCC_PERIPHCLK_SPI123)
 81023ea:	f8d7 3114 	ldr.w	r3, [r7, #276]	@ 0x114
 81023ee:	e9d3 2300 	ldrd	r2, r3, [r3]
 81023f2:	f402 5380 	and.w	r3, r2, #4096	@ 0x1000
 81023f6:	f8c7 30f0 	str.w	r3, [r7, #240]	@ 0xf0
 81023fa:	2300      	movs	r3, #0
 81023fc:	f8c7 30f4 	str.w	r3, [r7, #244]	@ 0xf4
 8102400:	e9d7 123c 	ldrd	r1, r2, [r7, #240]	@ 0xf0
 8102404:	460b      	mov	r3, r1
 8102406:	4313      	orrs	r3, r2
 8102408:	d051      	beq.n	81024ae <HAL_RCCEx_PeriphCLKConfig+0x506>
  {
    switch (PeriphClkInit->Spi123ClockSelection)
 810240a:	f8d7 3114 	ldr.w	r3, [r7, #276]	@ 0x114
 810240e:	6e1b      	ldr	r3, [r3, #96]	@ 0x60
 8102410:	f5b3 4f80 	cmp.w	r3, #16384	@ 0x4000
 8102414:	d035      	beq.n	8102482 <HAL_RCCEx_PeriphCLKConfig+0x4da>
 8102416:	f5b3 4f80 	cmp.w	r3, #16384	@ 0x4000
 810241a:	d82e      	bhi.n	810247a <HAL_RCCEx_PeriphCLKConfig+0x4d2>
 810241c:	f5b3 5f40 	cmp.w	r3, #12288	@ 0x3000
 8102420:	d031      	beq.n	8102486 <HAL_RCCEx_PeriphCLKConfig+0x4de>
 8102422:	f5b3 5f40 	cmp.w	r3, #12288	@ 0x3000
 8102426:	d828      	bhi.n	810247a <HAL_RCCEx_PeriphCLKConfig+0x4d2>
 8102428:	f5b3 5f00 	cmp.w	r3, #8192	@ 0x2000
 810242c:	d01a      	beq.n	8102464 <HAL_RCCEx_PeriphCLKConfig+0x4bc>
 810242e:	f5b3 5f00 	cmp.w	r3, #8192	@ 0x2000
 8102432:	d822      	bhi.n	810247a <HAL_RCCEx_PeriphCLKConfig+0x4d2>
 8102434:	2b00      	cmp	r3, #0
 8102436:	d003      	beq.n	8102440 <HAL_RCCEx_PeriphCLKConfig+0x498>
 8102438:	f5b3 5f80 	cmp.w	r3, #4096	@ 0x1000
 810243c:	d007      	beq.n	810244e <HAL_RCCEx_PeriphCLKConfig+0x4a6>
 810243e:	e01c      	b.n	810247a <HAL_RCCEx_PeriphCLKConfig+0x4d2>
    {
      case RCC_SPI123CLKSOURCE_PLL:      /* PLL is used as clock source for SPI1/2/3 */
        /* Enable SPI Clock output generated form System PLL . */
        __HAL_RCC_PLLCLKOUT_ENABLE(RCC_PLL1_DIVQ);
 8102440:	4b4b      	ldr	r3, [pc, #300]	@ (8102570 <HAL_RCCEx_PeriphCLKConfig+0x5c8>)
 8102442:	6adb      	ldr	r3, [r3, #44]	@ 0x2c
 8102444:	4a4a      	ldr	r2, [pc, #296]	@ (8102570 <HAL_RCCEx_PeriphCLKConfig+0x5c8>)
 8102446:	f443 3300 	orr.w	r3, r3, #131072	@ 0x20000
 810244a:	62d3      	str	r3, [r2, #44]	@ 0x2c

        /* SPI1/2/3 clock source configuration done later after clock selection check */
        break;
 810244c:	e01c      	b.n	8102488 <HAL_RCCEx_PeriphCLKConfig+0x4e0>

      case RCC_SPI123CLKSOURCE_PLL2: /* PLL2 is used as clock source for SPI1/2/3 */
        ret = RCCEx_PLL2_Config(&(PeriphClkInit->PLL2), DIVIDER_P_UPDATE);
 810244e:	f8d7 3114 	ldr.w	r3, [r7, #276]	@ 0x114
 8102452:	3308      	adds	r3, #8
 8102454:	2100      	movs	r1, #0
 8102456:	4618      	mov	r0, r3
 8102458:	f000 ffb0 	bl	81033bc <RCCEx_PLL2_Config>
 810245c:	4603      	mov	r3, r0
 810245e:	f887 3127 	strb.w	r3, [r7, #295]	@ 0x127

        /* SPI1/2/3 clock source configuration done later after clock selection check */
        break;
 8102462:	e011      	b.n	8102488 <HAL_RCCEx_PeriphCLKConfig+0x4e0>

      case RCC_SPI123CLKSOURCE_PLL3:  /* PLL3 is used as clock source for SPI1/2/3 */
        ret = RCCEx_PLL3_Config(&(PeriphClkInit->PLL3), DIVIDER_P_UPDATE);
 8102464:	f8d7 3114 	ldr.w	r3, [r7, #276]	@ 0x114
 8102468:	3328      	adds	r3, #40	@ 0x28
 810246a:	2100      	movs	r1, #0
 810246c:	4618      	mov	r0, r3
 810246e:	f001 f857 	bl	8103520 <RCCEx_PLL3_Config>
 8102472:	4603      	mov	r3, r0
 8102474:	f887 3127 	strb.w	r3, [r7, #295]	@ 0x127

        /* SPI1/2/3 clock source configuration done later after clock selection check */
        break;
 8102478:	e006      	b.n	8102488 <HAL_RCCEx_PeriphCLKConfig+0x4e0>
        /* HSI, HSE, or CSI oscillator is used as source of SPI1/2/3 clock */
        /* SPI1/2/3 clock source configuration done later after clock selection check */
        break;

      default:
        ret = HAL_ERROR;
 810247a:	2301      	movs	r3, #1
 810247c:	f887 3127 	strb.w	r3, [r7, #295]	@ 0x127
        break;
 8102480:	e002      	b.n	8102488 <HAL_RCCEx_PeriphCLKConfig+0x4e0>
        break;
 8102482:	bf00      	nop
 8102484:	e000      	b.n	8102488 <HAL_RCCEx_PeriphCLKConfig+0x4e0>
        break;
 8102486:	bf00      	nop
    }

    if (ret == HAL_OK)
 8102488:	f897 3127 	ldrb.w	r3, [r7, #295]	@ 0x127
 810248c:	2b00      	cmp	r3, #0
 810248e:	d10a      	bne.n	81024a6 <HAL_RCCEx_PeriphCLKConfig+0x4fe>
    {
      /* Set the source of SPI1/2/3 clock*/
      __HAL_RCC_SPI123_CONFIG(PeriphClkInit->Spi123ClockSelection);
 8102490:	4b37      	ldr	r3, [pc, #220]	@ (8102570 <HAL_RCCEx_PeriphCLKConfig+0x5c8>)
 8102492:	6d1b      	ldr	r3, [r3, #80]	@ 0x50
 8102494:	f423 41e0 	bic.w	r1, r3, #28672	@ 0x7000
 8102498:	f8d7 3114 	ldr.w	r3, [r7, #276]	@ 0x114
 810249c:	6e1b      	ldr	r3, [r3, #96]	@ 0x60
 810249e:	4a34      	ldr	r2, [pc, #208]	@ (8102570 <HAL_RCCEx_PeriphCLKConfig+0x5c8>)
 81024a0:	430b      	orrs	r3, r1
 81024a2:	6513      	str	r3, [r2, #80]	@ 0x50
 81024a4:	e003      	b.n	81024ae <HAL_RCCEx_PeriphCLKConfig+0x506>
    }
    else
    {
      /* set overall return value */
      status = ret;
 81024a6:	f897 3127 	ldrb.w	r3, [r7, #295]	@ 0x127
 81024aa:	f887 3126 	strb.w	r3, [r7, #294]	@ 0x126
    }
  }

  /*---------------------------- SPI4/5 configuration -------------------------------*/
  if (((PeriphClkInit->PeriphClockSelection) & RCC_PERIPHCLK_SPI45) == RCC_PERIPHCLK_SPI45)
 81024ae:	f8d7 3114 	ldr.w	r3, [r7, #276]	@ 0x114
 81024b2:	e9d3 2300 	ldrd	r2, r3, [r3]
 81024b6:	f402 5300 	and.w	r3, r2, #8192	@ 0x2000
 81024ba:	f8c7 30e8 	str.w	r3, [r7, #232]	@ 0xe8
 81024be:	2300      	movs	r3, #0
 81024c0:	f8c7 30ec 	str.w	r3, [r7, #236]	@ 0xec
 81024c4:	e9d7 123a 	ldrd	r1, r2, [r7, #232]	@ 0xe8
 81024c8:	460b      	mov	r3, r1
 81024ca:	4313      	orrs	r3, r2
 81024cc:	d056      	beq.n	810257c <HAL_RCCEx_PeriphCLKConfig+0x5d4>
  {
    switch (PeriphClkInit->Spi45ClockSelection)
 81024ce:	f8d7 3114 	ldr.w	r3, [r7, #276]	@ 0x114
 81024d2:	6e5b      	ldr	r3, [r3, #100]	@ 0x64
 81024d4:	f5b3 2fa0 	cmp.w	r3, #327680	@ 0x50000
 81024d8:	d033      	beq.n	8102542 <HAL_RCCEx_PeriphCLKConfig+0x59a>
 81024da:	f5b3 2fa0 	cmp.w	r3, #327680	@ 0x50000
 81024de:	d82c      	bhi.n	810253a <HAL_RCCEx_PeriphCLKConfig+0x592>
 81024e0:	f5b3 2f80 	cmp.w	r3, #262144	@ 0x40000
 81024e4:	d02f      	beq.n	8102546 <HAL_RCCEx_PeriphCLKConfig+0x59e>
 81024e6:	f5b3 2f80 	cmp.w	r3, #262144	@ 0x40000
 81024ea:	d826      	bhi.n	810253a <HAL_RCCEx_PeriphCLKConfig+0x592>
 81024ec:	f5b3 3f40 	cmp.w	r3, #196608	@ 0x30000
 81024f0:	d02b      	beq.n	810254a <HAL_RCCEx_PeriphCLKConfig+0x5a2>
 81024f2:	f5b3 3f40 	cmp.w	r3, #196608	@ 0x30000
 81024f6:	d820      	bhi.n	810253a <HAL_RCCEx_PeriphCLKConfig+0x592>
 81024f8:	f5b3 3f00 	cmp.w	r3, #131072	@ 0x20000
 81024fc:	d012      	beq.n	8102524 <HAL_RCCEx_PeriphCLKConfig+0x57c>
 81024fe:	f5b3 3f00 	cmp.w	r3, #131072	@ 0x20000
 8102502:	d81a      	bhi.n	810253a <HAL_RCCEx_PeriphCLKConfig+0x592>
 8102504:	2b00      	cmp	r3, #0
 8102506:	d022      	beq.n	810254e <HAL_RCCEx_PeriphCLKConfig+0x5a6>
 8102508:	f5b3 3f80 	cmp.w	r3, #65536	@ 0x10000
 810250c:	d115      	bne.n	810253a <HAL_RCCEx_PeriphCLKConfig+0x592>
        /* SPI4/5 clock source configuration done later after clock selection check */
        break;

      case RCC_SPI45CLKSOURCE_PLL2: /* PLL2 is used as clock source for SPI4/5 */

        ret = RCCEx_PLL2_Config(&(PeriphClkInit->PLL2), DIVIDER_Q_UPDATE);
 810250e:	f8d7 3114 	ldr.w	r3, [r7, #276]	@ 0x114
 8102512:	3308      	adds	r3, #8
 8102514:	2101      	movs	r1, #1
 8102516:	4618      	mov	r0, r3
 8102518:	f000 ff50 	bl	81033bc <RCCEx_PLL2_Config>
 810251c:	4603      	mov	r3, r0
 810251e:	f887 3127 	strb.w	r3, [r7, #295]	@ 0x127

        /* SPI4/5 clock source configuration done later after clock selection check */
        break;
 8102522:	e015      	b.n	8102550 <HAL_RCCEx_PeriphCLKConfig+0x5a8>
      case RCC_SPI45CLKSOURCE_PLL3:  /* PLL3 is used as clock source for SPI4/5 */
        ret = RCCEx_PLL3_Config(&(PeriphClkInit->PLL3), DIVIDER_Q_UPDATE);
 8102524:	f8d7 3114 	ldr.w	r3, [r7, #276]	@ 0x114
 8102528:	3328      	adds	r3, #40	@ 0x28
 810252a:	2101      	movs	r1, #1
 810252c:	4618      	mov	r0, r3
 810252e:	f000 fff7 	bl	8103520 <RCCEx_PLL3_Config>
 8102532:	4603      	mov	r3, r0
 8102534:	f887 3127 	strb.w	r3, [r7, #295]	@ 0x127
        /* SPI4/5 clock source configuration done later after clock selection check */
        break;
 8102538:	e00a      	b.n	8102550 <HAL_RCCEx_PeriphCLKConfig+0x5a8>
        /* HSE,  oscillator is used as source of SPI4/5 clock */
        /* SPI4/5 clock source configuration done later after clock selection check */
        break;

      default:
        ret = HAL_ERROR;
 810253a:	2301      	movs	r3, #1
 810253c:	f887 3127 	strb.w	r3, [r7, #295]	@ 0x127
        break;
 8102540:	e006      	b.n	8102550 <HAL_RCCEx_PeriphCLKConfig+0x5a8>
        break;
 8102542:	bf00      	nop
 8102544:	e004      	b.n	8102550 <HAL_RCCEx_PeriphCLKConfig+0x5a8>
        break;
 8102546:	bf00      	nop
 8102548:	e002      	b.n	8102550 <HAL_RCCEx_PeriphCLKConfig+0x5a8>
        break;
 810254a:	bf00      	nop
 810254c:	e000      	b.n	8102550 <HAL_RCCEx_PeriphCLKConfig+0x5a8>
        break;
 810254e:	bf00      	nop
    }

    if (ret == HAL_OK)
 8102550:	f897 3127 	ldrb.w	r3, [r7, #295]	@ 0x127
 8102554:	2b00      	cmp	r3, #0
 8102556:	d10d      	bne.n	8102574 <HAL_RCCEx_PeriphCLKConfig+0x5cc>
    {
      /* Set the source of SPI4/5 clock*/
      __HAL_RCC_SPI45_CONFIG(PeriphClkInit->Spi45ClockSelection);
 8102558:	4b05      	ldr	r3, [pc, #20]	@ (8102570 <HAL_RCCEx_PeriphCLKConfig+0x5c8>)
 810255a:	6d1b      	ldr	r3, [r3, #80]	@ 0x50
 810255c:	f423 21e0 	bic.w	r1, r3, #458752	@ 0x70000
 8102560:	f8d7 3114 	ldr.w	r3, [r7, #276]	@ 0x114
 8102564:	6e5b      	ldr	r3, [r3, #100]	@ 0x64
 8102566:	4a02      	ldr	r2, [pc, #8]	@ (8102570 <HAL_RCCEx_PeriphCLKConfig+0x5c8>)
 8102568:	430b      	orrs	r3, r1
 810256a:	6513      	str	r3, [r2, #80]	@ 0x50
 810256c:	e006      	b.n	810257c <HAL_RCCEx_PeriphCLKConfig+0x5d4>
 810256e:	bf00      	nop
 8102570:	58024400 	.word	0x58024400
    }
    else
    {
      /* set overall return value */
      status = ret;
 8102574:	f897 3127 	ldrb.w	r3, [r7, #295]	@ 0x127
 8102578:	f887 3126 	strb.w	r3, [r7, #294]	@ 0x126
    }
  }

  /*---------------------------- SPI6 configuration -------------------------------*/
  if (((PeriphClkInit->PeriphClockSelection) & RCC_PERIPHCLK_SPI6) == RCC_PERIPHCLK_SPI6)
 810257c:	f8d7 3114 	ldr.w	r3, [r7, #276]	@ 0x114
 8102580:	e9d3 2300 	ldrd	r2, r3, [r3]
 8102584:	f402 4380 	and.w	r3, r2, #16384	@ 0x4000
 8102588:	f8c7 30e0 	str.w	r3, [r7, #224]	@ 0xe0
 810258c:	2300      	movs	r3, #0
 810258e:	f8c7 30e4 	str.w	r3, [r7, #228]	@ 0xe4
 8102592:	e9d7 1238 	ldrd	r1, r2, [r7, #224]	@ 0xe0
 8102596:	460b      	mov	r3, r1
 8102598:	4313      	orrs	r3, r2
 810259a:	d055      	beq.n	8102648 <HAL_RCCEx_PeriphCLKConfig+0x6a0>
  {
    switch (PeriphClkInit->Spi6ClockSelection)
 810259c:	f8d7 3114 	ldr.w	r3, [r7, #276]	@ 0x114
 81025a0:	f8d3 30b0 	ldr.w	r3, [r3, #176]	@ 0xb0
 81025a4:	f1b3 4fa0 	cmp.w	r3, #1342177280	@ 0x50000000
 81025a8:	d033      	beq.n	8102612 <HAL_RCCEx_PeriphCLKConfig+0x66a>
 81025aa:	f1b3 4fa0 	cmp.w	r3, #1342177280	@ 0x50000000
 81025ae:	d82c      	bhi.n	810260a <HAL_RCCEx_PeriphCLKConfig+0x662>
 81025b0:	f1b3 4f80 	cmp.w	r3, #1073741824	@ 0x40000000
 81025b4:	d02f      	beq.n	8102616 <HAL_RCCEx_PeriphCLKConfig+0x66e>
 81025b6:	f1b3 4f80 	cmp.w	r3, #1073741824	@ 0x40000000
 81025ba:	d826      	bhi.n	810260a <HAL_RCCEx_PeriphCLKConfig+0x662>
 81025bc:	f1b3 5f40 	cmp.w	r3, #805306368	@ 0x30000000
 81025c0:	d02b      	beq.n	810261a <HAL_RCCEx_PeriphCLKConfig+0x672>
 81025c2:	f1b3 5f40 	cmp.w	r3, #805306368	@ 0x30000000
 81025c6:	d820      	bhi.n	810260a <HAL_RCCEx_PeriphCLKConfig+0x662>
 81025c8:	f1b3 5f00 	cmp.w	r3, #536870912	@ 0x20000000
 81025cc:	d012      	beq.n	81025f4 <HAL_RCCEx_PeriphCLKConfig+0x64c>
 81025ce:	f1b3 5f00 	cmp.w	r3, #536870912	@ 0x20000000
 81025d2:	d81a      	bhi.n	810260a <HAL_RCCEx_PeriphCLKConfig+0x662>
 81025d4:	2b00      	cmp	r3, #0
 81025d6:	d022      	beq.n	810261e <HAL_RCCEx_PeriphCLKConfig+0x676>
 81025d8:	f1b3 5f80 	cmp.w	r3, #268435456	@ 0x10000000
 81025dc:	d115      	bne.n	810260a <HAL_RCCEx_PeriphCLKConfig+0x662>
        /* SPI6 clock source configuration done later after clock selection check */
        break;

      case RCC_SPI6CLKSOURCE_PLL2: /* PLL2 is used as clock source for SPI6*/

        ret = RCCEx_PLL2_Config(&(PeriphClkInit->PLL2), DIVIDER_Q_UPDATE);
 81025de:	f8d7 3114 	ldr.w	r3, [r7, #276]	@ 0x114
 81025e2:	3308      	adds	r3, #8
 81025e4:	2101      	movs	r1, #1
 81025e6:	4618      	mov	r0, r3
 81025e8:	f000 fee8 	bl	81033bc <RCCEx_PLL2_Config>
 81025ec:	4603      	mov	r3, r0
 81025ee:	f887 3127 	strb.w	r3, [r7, #295]	@ 0x127

        /* SPI6 clock source configuration done later after clock selection check */
        break;
 81025f2:	e015      	b.n	8102620 <HAL_RCCEx_PeriphCLKConfig+0x678>
      case RCC_SPI6CLKSOURCE_PLL3:  /* PLL3 is used as clock source for SPI6*/
        ret = RCCEx_PLL3_Config(&(PeriphClkInit->PLL3), DIVIDER_Q_UPDATE);
 81025f4:	f8d7 3114 	ldr.w	r3, [r7, #276]	@ 0x114
 81025f8:	3328      	adds	r3, #40	@ 0x28
 81025fa:	2101      	movs	r1, #1
 81025fc:	4618      	mov	r0, r3
 81025fe:	f000 ff8f 	bl	8103520 <RCCEx_PLL3_Config>
 8102602:	4603      	mov	r3, r0
 8102604:	f887 3127 	strb.w	r3, [r7, #295]	@ 0x127
        /* SPI6 clock source configuration done later after clock selection check */
        break;
 8102608:	e00a      	b.n	8102620 <HAL_RCCEx_PeriphCLKConfig+0x678>
        /* SPI6 clock source configuration done later after clock selection check */
        break;
#endif

      default:
        ret = HAL_ERROR;
 810260a:	2301      	movs	r3, #1
 810260c:	f887 3127 	strb.w	r3, [r7, #295]	@ 0x127
        break;
 8102610:	e006      	b.n	8102620 <HAL_RCCEx_PeriphCLKConfig+0x678>
        break;
 8102612:	bf00      	nop
 8102614:	e004      	b.n	8102620 <HAL_RCCEx_PeriphCLKConfig+0x678>
        break;
 8102616:	bf00      	nop
 8102618:	e002      	b.n	8102620 <HAL_RCCEx_PeriphCLKConfig+0x678>
        break;
 810261a:	bf00      	nop
 810261c:	e000      	b.n	8102620 <HAL_RCCEx_PeriphCLKConfig+0x678>
        break;
 810261e:	bf00      	nop
    }

    if (ret == HAL_OK)
 8102620:	f897 3127 	ldrb.w	r3, [r7, #295]	@ 0x127
 8102624:	2b00      	cmp	r3, #0
 8102626:	d10b      	bne.n	8102640 <HAL_RCCEx_PeriphCLKConfig+0x698>
    {
      /* Set the source of SPI6 clock*/
      __HAL_RCC_SPI6_CONFIG(PeriphClkInit->Spi6ClockSelection);
 8102628:	4ba4      	ldr	r3, [pc, #656]	@ (81028bc <HAL_RCCEx_PeriphCLKConfig+0x914>)
 810262a:	6d9b      	ldr	r3, [r3, #88]	@ 0x58
 810262c:	f023 41e0 	bic.w	r1, r3, #1879048192	@ 0x70000000
 8102630:	f8d7 3114 	ldr.w	r3, [r7, #276]	@ 0x114
 8102634:	f8d3 30b0 	ldr.w	r3, [r3, #176]	@ 0xb0
 8102638:	4aa0      	ldr	r2, [pc, #640]	@ (81028bc <HAL_RCCEx_PeriphCLKConfig+0x914>)
 810263a:	430b      	orrs	r3, r1
 810263c:	6593      	str	r3, [r2, #88]	@ 0x58
 810263e:	e003      	b.n	8102648 <HAL_RCCEx_PeriphCLKConfig+0x6a0>
    }
    else
    {
      /* set overall return value */
      status = ret;
 8102640:	f897 3127 	ldrb.w	r3, [r7, #295]	@ 0x127
 8102644:	f887 3126 	strb.w	r3, [r7, #294]	@ 0x126
  }
#endif /*DSI*/

#if defined(FDCAN1) || defined(FDCAN2)
  /*---------------------------- FDCAN configuration -------------------------------*/
  if (((PeriphClkInit->PeriphClockSelection) & RCC_PERIPHCLK_FDCAN) == RCC_PERIPHCLK_FDCAN)
 8102648:	f8d7 3114 	ldr.w	r3, [r7, #276]	@ 0x114
 810264c:	e9d3 2300 	ldrd	r2, r3, [r3]
 8102650:	f402 4300 	and.w	r3, r2, #32768	@ 0x8000
 8102654:	f8c7 30d8 	str.w	r3, [r7, #216]	@ 0xd8
 8102658:	2300      	movs	r3, #0
 810265a:	f8c7 30dc 	str.w	r3, [r7, #220]	@ 0xdc
 810265e:	e9d7 1236 	ldrd	r1, r2, [r7, #216]	@ 0xd8
 8102662:	460b      	mov	r3, r1
 8102664:	4313      	orrs	r3, r2
 8102666:	d037      	beq.n	81026d8 <HAL_RCCEx_PeriphCLKConfig+0x730>
  {
    switch (PeriphClkInit->FdcanClockSelection)
 8102668:	f8d7 3114 	ldr.w	r3, [r7, #276]	@ 0x114
 810266c:	6f1b      	ldr	r3, [r3, #112]	@ 0x70
 810266e:	f1b3 5f00 	cmp.w	r3, #536870912	@ 0x20000000
 8102672:	d00e      	beq.n	8102692 <HAL_RCCEx_PeriphCLKConfig+0x6ea>
 8102674:	f1b3 5f00 	cmp.w	r3, #536870912	@ 0x20000000
 8102678:	d816      	bhi.n	81026a8 <HAL_RCCEx_PeriphCLKConfig+0x700>
 810267a:	2b00      	cmp	r3, #0
 810267c:	d018      	beq.n	81026b0 <HAL_RCCEx_PeriphCLKConfig+0x708>
 810267e:	f1b3 5f80 	cmp.w	r3, #268435456	@ 0x10000000
 8102682:	d111      	bne.n	81026a8 <HAL_RCCEx_PeriphCLKConfig+0x700>
    {
      case RCC_FDCANCLKSOURCE_PLL:      /* PLL is used as clock source for FDCAN*/
        /* Enable FDCAN Clock output generated form System PLL . */
        __HAL_RCC_PLLCLKOUT_ENABLE(RCC_PLL1_DIVQ);
 8102684:	4b8d      	ldr	r3, [pc, #564]	@ (81028bc <HAL_RCCEx_PeriphCLKConfig+0x914>)
 8102686:	6adb      	ldr	r3, [r3, #44]	@ 0x2c
 8102688:	4a8c      	ldr	r2, [pc, #560]	@ (81028bc <HAL_RCCEx_PeriphCLKConfig+0x914>)
 810268a:	f443 3300 	orr.w	r3, r3, #131072	@ 0x20000
 810268e:	62d3      	str	r3, [r2, #44]	@ 0x2c

        /* FDCAN clock source configuration done later after clock selection check */
        break;
 8102690:	e00f      	b.n	81026b2 <HAL_RCCEx_PeriphCLKConfig+0x70a>

      case RCC_FDCANCLKSOURCE_PLL2: /* PLL2 is used as clock source for FDCAN*/

        ret = RCCEx_PLL2_Config(&(PeriphClkInit->PLL2), DIVIDER_Q_UPDATE);
 8102692:	f8d7 3114 	ldr.w	r3, [r7, #276]	@ 0x114
 8102696:	3308      	adds	r3, #8
 8102698:	2101      	movs	r1, #1
 810269a:	4618      	mov	r0, r3
 810269c:	f000 fe8e 	bl	81033bc <RCCEx_PLL2_Config>
 81026a0:	4603      	mov	r3, r0
 81026a2:	f887 3127 	strb.w	r3, [r7, #295]	@ 0x127

        /* FDCAN clock source configuration done later after clock selection check */
        break;
 81026a6:	e004      	b.n	81026b2 <HAL_RCCEx_PeriphCLKConfig+0x70a>
        /* HSE is used as clock source for FDCAN*/
        /* FDCAN clock source configuration done later after clock selection check */
        break;

      default:
        ret = HAL_ERROR;
 81026a8:	2301      	movs	r3, #1
 81026aa:	f887 3127 	strb.w	r3, [r7, #295]	@ 0x127
        break;
 81026ae:	e000      	b.n	81026b2 <HAL_RCCEx_PeriphCLKConfig+0x70a>
        break;
 81026b0:	bf00      	nop
    }

    if (ret == HAL_OK)
 81026b2:	f897 3127 	ldrb.w	r3, [r7, #295]	@ 0x127
 81026b6:	2b00      	cmp	r3, #0
 81026b8:	d10a      	bne.n	81026d0 <HAL_RCCEx_PeriphCLKConfig+0x728>
    {
      /* Set the source of FDCAN clock*/
      __HAL_RCC_FDCAN_CONFIG(PeriphClkInit->FdcanClockSelection);
 81026ba:	4b80      	ldr	r3, [pc, #512]	@ (81028bc <HAL_RCCEx_PeriphCLKConfig+0x914>)
 81026bc:	6d1b      	ldr	r3, [r3, #80]	@ 0x50
 81026be:	f023 5140 	bic.w	r1, r3, #805306368	@ 0x30000000
 81026c2:	f8d7 3114 	ldr.w	r3, [r7, #276]	@ 0x114
 81026c6:	6f1b      	ldr	r3, [r3, #112]	@ 0x70
 81026c8:	4a7c      	ldr	r2, [pc, #496]	@ (81028bc <HAL_RCCEx_PeriphCLKConfig+0x914>)
 81026ca:	430b      	orrs	r3, r1
 81026cc:	6513      	str	r3, [r2, #80]	@ 0x50
 81026ce:	e003      	b.n	81026d8 <HAL_RCCEx_PeriphCLKConfig+0x730>
    }
    else
    {
      /* set overall return value */
      status = ret;
 81026d0:	f897 3127 	ldrb.w	r3, [r7, #295]	@ 0x127
 81026d4:	f887 3126 	strb.w	r3, [r7, #294]	@ 0x126
    }
  }
#endif /*FDCAN1 || FDCAN2*/

  /*---------------------------- FMC configuration -------------------------------*/
  if (((PeriphClkInit->PeriphClockSelection) & RCC_PERIPHCLK_FMC) == RCC_PERIPHCLK_FMC)
 81026d8:	f8d7 3114 	ldr.w	r3, [r7, #276]	@ 0x114
 81026dc:	e9d3 2300 	ldrd	r2, r3, [r3]
 81026e0:	f002 7380 	and.w	r3, r2, #16777216	@ 0x1000000
 81026e4:	f8c7 30d0 	str.w	r3, [r7, #208]	@ 0xd0
 81026e8:	2300      	movs	r3, #0
 81026ea:	f8c7 30d4 	str.w	r3, [r7, #212]	@ 0xd4
 81026ee:	e9d7 1234 	ldrd	r1, r2, [r7, #208]	@ 0xd0
 81026f2:	460b      	mov	r3, r1
 81026f4:	4313      	orrs	r3, r2
 81026f6:	d039      	beq.n	810276c <HAL_RCCEx_PeriphCLKConfig+0x7c4>
  {
    switch (PeriphClkInit->FmcClockSelection)
 81026f8:	f8d7 3114 	ldr.w	r3, [r7, #276]	@ 0x114
 81026fc:	6c9b      	ldr	r3, [r3, #72]	@ 0x48
 81026fe:	2b03      	cmp	r3, #3
 8102700:	d81c      	bhi.n	810273c <HAL_RCCEx_PeriphCLKConfig+0x794>
 8102702:	a201      	add	r2, pc, #4	@ (adr r2, 8102708 <HAL_RCCEx_PeriphCLKConfig+0x760>)
 8102704:	f852 f023 	ldr.w	pc, [r2, r3, lsl #2]
 8102708:	08102745 	.word	0x08102745
 810270c:	08102719 	.word	0x08102719
 8102710:	08102727 	.word	0x08102727
 8102714:	08102745 	.word	0x08102745
    {
      case RCC_FMCCLKSOURCE_PLL:      /* PLL is used as clock source for FMC*/
        /* Enable FMC Clock output generated form System PLL . */
        __HAL_RCC_PLLCLKOUT_ENABLE(RCC_PLL1_DIVQ);
 8102718:	4b68      	ldr	r3, [pc, #416]	@ (81028bc <HAL_RCCEx_PeriphCLKConfig+0x914>)
 810271a:	6adb      	ldr	r3, [r3, #44]	@ 0x2c
 810271c:	4a67      	ldr	r2, [pc, #412]	@ (81028bc <HAL_RCCEx_PeriphCLKConfig+0x914>)
 810271e:	f443 3300 	orr.w	r3, r3, #131072	@ 0x20000
 8102722:	62d3      	str	r3, [r2, #44]	@ 0x2c

        /* FMC clock source configuration done later after clock selection check */
        break;
 8102724:	e00f      	b.n	8102746 <HAL_RCCEx_PeriphCLKConfig+0x79e>

      case RCC_FMCCLKSOURCE_PLL2: /* PLL2 is used as clock source for FMC*/

        ret = RCCEx_PLL2_Config(&(PeriphClkInit->PLL2), DIVIDER_R_UPDATE);
 8102726:	f8d7 3114 	ldr.w	r3, [r7, #276]	@ 0x114
 810272a:	3308      	adds	r3, #8
 810272c:	2102      	movs	r1, #2
 810272e:	4618      	mov	r0, r3
 8102730:	f000 fe44 	bl	81033bc <RCCEx_PLL2_Config>
 8102734:	4603      	mov	r3, r0
 8102736:	f887 3127 	strb.w	r3, [r7, #295]	@ 0x127

        /* FMC clock source configuration done later after clock selection check */
        break;
 810273a:	e004      	b.n	8102746 <HAL_RCCEx_PeriphCLKConfig+0x79e>
      case RCC_FMCCLKSOURCE_HCLK:
        /* D1/CD HCLK  clock selected as FMC kernel peripheral clock */
        break;

      default:
        ret = HAL_ERROR;
 810273c:	2301      	movs	r3, #1
 810273e:	f887 3127 	strb.w	r3, [r7, #295]	@ 0x127
        break;
 8102742:	e000      	b.n	8102746 <HAL_RCCEx_PeriphCLKConfig+0x79e>
        break;
 8102744:	bf00      	nop
    }

    if (ret == HAL_OK)
 8102746:	f897 3127 	ldrb.w	r3, [r7, #295]	@ 0x127
 810274a:	2b00      	cmp	r3, #0
 810274c:	d10a      	bne.n	8102764 <HAL_RCCEx_PeriphCLKConfig+0x7bc>
    {
      /* Set the source of FMC clock*/
      __HAL_RCC_FMC_CONFIG(PeriphClkInit->FmcClockSelection);
 810274e:	4b5b      	ldr	r3, [pc, #364]	@ (81028bc <HAL_RCCEx_PeriphCLKConfig+0x914>)
 8102750:	6cdb      	ldr	r3, [r3, #76]	@ 0x4c
 8102752:	f023 0103 	bic.w	r1, r3, #3
 8102756:	f8d7 3114 	ldr.w	r3, [r7, #276]	@ 0x114
 810275a:	6c9b      	ldr	r3, [r3, #72]	@ 0x48
 810275c:	4a57      	ldr	r2, [pc, #348]	@ (81028bc <HAL_RCCEx_PeriphCLKConfig+0x914>)
 810275e:	430b      	orrs	r3, r1
 8102760:	64d3      	str	r3, [r2, #76]	@ 0x4c
 8102762:	e003      	b.n	810276c <HAL_RCCEx_PeriphCLKConfig+0x7c4>
    }
    else
    {
      /* set overall return value */
      status = ret;
 8102764:	f897 3127 	ldrb.w	r3, [r7, #295]	@ 0x127
 8102768:	f887 3126 	strb.w	r3, [r7, #294]	@ 0x126
    }
  }

  /*---------------------------- RTC configuration -------------------------------*/
  if (((PeriphClkInit->PeriphClockSelection) & RCC_PERIPHCLK_RTC) == RCC_PERIPHCLK_RTC)
 810276c:	f8d7 3114 	ldr.w	r3, [r7, #276]	@ 0x114
 8102770:	e9d3 2300 	ldrd	r2, r3, [r3]
 8102774:	f402 0380 	and.w	r3, r2, #4194304	@ 0x400000
 8102778:	f8c7 30c8 	str.w	r3, [r7, #200]	@ 0xc8
 810277c:	2300      	movs	r3, #0
 810277e:	f8c7 30cc 	str.w	r3, [r7, #204]	@ 0xcc
 8102782:	e9d7 1232 	ldrd	r1, r2, [r7, #200]	@ 0xc8
 8102786:	460b      	mov	r3, r1
 8102788:	4313      	orrs	r3, r2
 810278a:	f000 809f 	beq.w	81028cc <HAL_RCCEx_PeriphCLKConfig+0x924>
  {
    /* check for RTC Parameters used to output RTCCLK */
    assert_param(IS_RCC_RTCCLKSOURCE(PeriphClkInit->RTCClockSelection));

    /* Enable write access to Backup domain */
    SET_BIT(PWR->CR1, PWR_CR1_DBP);
 810278e:	4b4c      	ldr	r3, [pc, #304]	@ (81028c0 <HAL_RCCEx_PeriphCLKConfig+0x918>)
 8102790:	681b      	ldr	r3, [r3, #0]
 8102792:	4a4b      	ldr	r2, [pc, #300]	@ (81028c0 <HAL_RCCEx_PeriphCLKConfig+0x918>)
 8102794:	f443 7380 	orr.w	r3, r3, #256	@ 0x100
 8102798:	6013      	str	r3, [r2, #0]

    /* Wait for Backup domain Write protection disable */
    tickstart = HAL_GetTick();
 810279a:	f7fe fee5 	bl	8101568 <HAL_GetTick>
 810279e:	f8c7 0120 	str.w	r0, [r7, #288]	@ 0x120

    while ((PWR->CR1 & PWR_CR1_DBP) == 0U)
 81027a2:	e00b      	b.n	81027bc <HAL_RCCEx_PeriphCLKConfig+0x814>
    {
      if ((HAL_GetTick() - tickstart) > RCC_DBP_TIMEOUT_VALUE)
 81027a4:	f7fe fee0 	bl	8101568 <HAL_GetTick>
 81027a8:	4602      	mov	r2, r0
 81027aa:	f8d7 3120 	ldr.w	r3, [r7, #288]	@ 0x120
 81027ae:	1ad3      	subs	r3, r2, r3
 81027b0:	2b64      	cmp	r3, #100	@ 0x64
 81027b2:	d903      	bls.n	81027bc <HAL_RCCEx_PeriphCLKConfig+0x814>
      {
        ret = HAL_TIMEOUT;
 81027b4:	2303      	movs	r3, #3
 81027b6:	f887 3127 	strb.w	r3, [r7, #295]	@ 0x127
        break;
 81027ba:	e005      	b.n	81027c8 <HAL_RCCEx_PeriphCLKConfig+0x820>
    while ((PWR->CR1 & PWR_CR1_DBP) == 0U)
 81027bc:	4b40      	ldr	r3, [pc, #256]	@ (81028c0 <HAL_RCCEx_PeriphCLKConfig+0x918>)
 81027be:	681b      	ldr	r3, [r3, #0]
 81027c0:	f403 7380 	and.w	r3, r3, #256	@ 0x100
 81027c4:	2b00      	cmp	r3, #0
 81027c6:	d0ed      	beq.n	81027a4 <HAL_RCCEx_PeriphCLKConfig+0x7fc>
      }
    }

    if (ret == HAL_OK)
 81027c8:	f897 3127 	ldrb.w	r3, [r7, #295]	@ 0x127
 81027cc:	2b00      	cmp	r3, #0
 81027ce:	d179      	bne.n	81028c4 <HAL_RCCEx_PeriphCLKConfig+0x91c>
    {
      /* Reset the Backup domain only if the RTC Clock source selection is modified */
      if ((RCC->BDCR & RCC_BDCR_RTCSEL) != (PeriphClkInit->RTCClockSelection & RCC_BDCR_RTCSEL))
 81027d0:	4b3a      	ldr	r3, [pc, #232]	@ (81028bc <HAL_RCCEx_PeriphCLKConfig+0x914>)
 81027d2:	6f1a      	ldr	r2, [r3, #112]	@ 0x70
 81027d4:	f8d7 3114 	ldr.w	r3, [r7, #276]	@ 0x114
 81027d8:	f8d3 30b4 	ldr.w	r3, [r3, #180]	@ 0xb4
 81027dc:	4053      	eors	r3, r2
 81027de:	f403 7340 	and.w	r3, r3, #768	@ 0x300
 81027e2:	2b00      	cmp	r3, #0
 81027e4:	d015      	beq.n	8102812 <HAL_RCCEx_PeriphCLKConfig+0x86a>
      {
        /* Store the content of BDCR register before the reset of Backup Domain */
        tmpreg = (RCC->BDCR & ~(RCC_BDCR_RTCSEL));
 81027e6:	4b35      	ldr	r3, [pc, #212]	@ (81028bc <HAL_RCCEx_PeriphCLKConfig+0x914>)
 81027e8:	6f1b      	ldr	r3, [r3, #112]	@ 0x70
 81027ea:	f423 7340 	bic.w	r3, r3, #768	@ 0x300
 81027ee:	f8c7 311c 	str.w	r3, [r7, #284]	@ 0x11c
        /* RTC Clock selection can be changed only if the Backup Domain is reset */
        __HAL_RCC_BACKUPRESET_FORCE();
 81027f2:	4b32      	ldr	r3, [pc, #200]	@ (81028bc <HAL_RCCEx_PeriphCLKConfig+0x914>)
 81027f4:	6f1b      	ldr	r3, [r3, #112]	@ 0x70
 81027f6:	4a31      	ldr	r2, [pc, #196]	@ (81028bc <HAL_RCCEx_PeriphCLKConfig+0x914>)
 81027f8:	f443 3380 	orr.w	r3, r3, #65536	@ 0x10000
 81027fc:	6713      	str	r3, [r2, #112]	@ 0x70
        __HAL_RCC_BACKUPRESET_RELEASE();
 81027fe:	4b2f      	ldr	r3, [pc, #188]	@ (81028bc <HAL_RCCEx_PeriphCLKConfig+0x914>)
 8102800:	6f1b      	ldr	r3, [r3, #112]	@ 0x70
 8102802:	4a2e      	ldr	r2, [pc, #184]	@ (81028bc <HAL_RCCEx_PeriphCLKConfig+0x914>)
 8102804:	f423 3380 	bic.w	r3, r3, #65536	@ 0x10000
 8102808:	6713      	str	r3, [r2, #112]	@ 0x70
        /* Restore the Content of BDCR register */
        RCC->BDCR = tmpreg;
 810280a:	4a2c      	ldr	r2, [pc, #176]	@ (81028bc <HAL_RCCEx_PeriphCLKConfig+0x914>)
 810280c:	f8d7 311c 	ldr.w	r3, [r7, #284]	@ 0x11c
 8102810:	6713      	str	r3, [r2, #112]	@ 0x70
      }

      /* If LSE is selected as RTC clock source (and enabled prior to Backup Domain reset), wait for LSE reactivation */
      if (PeriphClkInit->RTCClockSelection == RCC_RTCCLKSOURCE_LSE)
 8102812:	f8d7 3114 	ldr.w	r3, [r7, #276]	@ 0x114
 8102816:	f8d3 30b4 	ldr.w	r3, [r3, #180]	@ 0xb4
 810281a:	f5b3 7f80 	cmp.w	r3, #256	@ 0x100
 810281e:	d118      	bne.n	8102852 <HAL_RCCEx_PeriphCLKConfig+0x8aa>
      {
        /* Get Start Tick*/
        tickstart = HAL_GetTick();
 8102820:	f7fe fea2 	bl	8101568 <HAL_GetTick>
 8102824:	f8c7 0120 	str.w	r0, [r7, #288]	@ 0x120

        /* Wait till LSE is ready */
        while (__HAL_RCC_GET_FLAG(RCC_FLAG_LSERDY) == 0U)
 8102828:	e00d      	b.n	8102846 <HAL_RCCEx_PeriphCLKConfig+0x89e>
        {
          if ((HAL_GetTick() - tickstart) > RCC_LSE_TIMEOUT_VALUE)
 810282a:	f7fe fe9d 	bl	8101568 <HAL_GetTick>
 810282e:	4602      	mov	r2, r0
 8102830:	f8d7 3120 	ldr.w	r3, [r7, #288]	@ 0x120
 8102834:	1ad2      	subs	r2, r2, r3
 8102836:	f241 3388 	movw	r3, #5000	@ 0x1388
 810283a:	429a      	cmp	r2, r3
 810283c:	d903      	bls.n	8102846 <HAL_RCCEx_PeriphCLKConfig+0x89e>
          {
            ret = HAL_TIMEOUT;
 810283e:	2303      	movs	r3, #3
 8102840:	f887 3127 	strb.w	r3, [r7, #295]	@ 0x127
            break;
 8102844:	e005      	b.n	8102852 <HAL_RCCEx_PeriphCLKConfig+0x8aa>
        while (__HAL_RCC_GET_FLAG(RCC_FLAG_LSERDY) == 0U)
 8102846:	4b1d      	ldr	r3, [pc, #116]	@ (81028bc <HAL_RCCEx_PeriphCLKConfig+0x914>)
 8102848:	6f1b      	ldr	r3, [r3, #112]	@ 0x70
 810284a:	f003 0302 	and.w	r3, r3, #2
 810284e:	2b00      	cmp	r3, #0
 8102850:	d0eb      	beq.n	810282a <HAL_RCCEx_PeriphCLKConfig+0x882>
          }
        }
      }

      if (ret == HAL_OK)
 8102852:	f897 3127 	ldrb.w	r3, [r7, #295]	@ 0x127
 8102856:	2b00      	cmp	r3, #0
 8102858:	d12b      	bne.n	81028b2 <HAL_RCCEx_PeriphCLKConfig+0x90a>
      {
        __HAL_RCC_RTC_CONFIG(PeriphClkInit->RTCClockSelection);
 810285a:	f8d7 3114 	ldr.w	r3, [r7, #276]	@ 0x114
 810285e:	f8d3 30b4 	ldr.w	r3, [r3, #180]	@ 0xb4
 8102862:	f403 7340 	and.w	r3, r3, #768	@ 0x300
 8102866:	f5b3 7f40 	cmp.w	r3, #768	@ 0x300
 810286a:	d110      	bne.n	810288e <HAL_RCCEx_PeriphCLKConfig+0x8e6>
 810286c:	4b13      	ldr	r3, [pc, #76]	@ (81028bc <HAL_RCCEx_PeriphCLKConfig+0x914>)
 810286e:	691b      	ldr	r3, [r3, #16]
 8102870:	f423 517c 	bic.w	r1, r3, #16128	@ 0x3f00
 8102874:	f8d7 3114 	ldr.w	r3, [r7, #276]	@ 0x114
 8102878:	f8d3 30b4 	ldr.w	r3, [r3, #180]	@ 0xb4
 810287c:	091b      	lsrs	r3, r3, #4
 810287e:	f023 437f 	bic.w	r3, r3, #4278190080	@ 0xff000000
 8102882:	f023 0330 	bic.w	r3, r3, #48	@ 0x30
 8102886:	4a0d      	ldr	r2, [pc, #52]	@ (81028bc <HAL_RCCEx_PeriphCLKConfig+0x914>)
 8102888:	430b      	orrs	r3, r1
 810288a:	6113      	str	r3, [r2, #16]
 810288c:	e005      	b.n	810289a <HAL_RCCEx_PeriphCLKConfig+0x8f2>
 810288e:	4b0b      	ldr	r3, [pc, #44]	@ (81028bc <HAL_RCCEx_PeriphCLKConfig+0x914>)
 8102890:	691b      	ldr	r3, [r3, #16]
 8102892:	4a0a      	ldr	r2, [pc, #40]	@ (81028bc <HAL_RCCEx_PeriphCLKConfig+0x914>)
 8102894:	f423 537c 	bic.w	r3, r3, #16128	@ 0x3f00
 8102898:	6113      	str	r3, [r2, #16]
 810289a:	4b08      	ldr	r3, [pc, #32]	@ (81028bc <HAL_RCCEx_PeriphCLKConfig+0x914>)
 810289c:	6f19      	ldr	r1, [r3, #112]	@ 0x70
 810289e:	f8d7 3114 	ldr.w	r3, [r7, #276]	@ 0x114
 81028a2:	f8d3 30b4 	ldr.w	r3, [r3, #180]	@ 0xb4
 81028a6:	f3c3 030b 	ubfx	r3, r3, #0, #12
 81028aa:	4a04      	ldr	r2, [pc, #16]	@ (81028bc <HAL_RCCEx_PeriphCLKConfig+0x914>)
 81028ac:	430b      	orrs	r3, r1
 81028ae:	6713      	str	r3, [r2, #112]	@ 0x70
 81028b0:	e00c      	b.n	81028cc <HAL_RCCEx_PeriphCLKConfig+0x924>
      }
      else
      {
        /* set overall return value */
        status = ret;
 81028b2:	f897 3127 	ldrb.w	r3, [r7, #295]	@ 0x127
 81028b6:	f887 3126 	strb.w	r3, [r7, #294]	@ 0x126
 81028ba:	e007      	b.n	81028cc <HAL_RCCEx_PeriphCLKConfig+0x924>
 81028bc:	58024400 	.word	0x58024400
 81028c0:	58024800 	.word	0x58024800
      }
    }
    else
    {
      /* set overall return value */
      status = ret;
 81028c4:	f897 3127 	ldrb.w	r3, [r7, #295]	@ 0x127
 81028c8:	f887 3126 	strb.w	r3, [r7, #294]	@ 0x126
    }
  }


  /*-------------------------- USART1/6 configuration --------------------------*/
  if (((PeriphClkInit->PeriphClockSelection) & RCC_PERIPHCLK_USART16) == RCC_PERIPHCLK_USART16)
 81028cc:	f8d7 3114 	ldr.w	r3, [r7, #276]	@ 0x114
 81028d0:	e9d3 2300 	ldrd	r2, r3, [r3]
 81028d4:	f002 0301 	and.w	r3, r2, #1
 81028d8:	f8c7 30c0 	str.w	r3, [r7, #192]	@ 0xc0
 81028dc:	2300      	movs	r3, #0
 81028de:	f8c7 30c4 	str.w	r3, [r7, #196]	@ 0xc4
 81028e2:	e9d7 1230 	ldrd	r1, r2, [r7, #192]	@ 0xc0
 81028e6:	460b      	mov	r3, r1
 81028e8:	4313      	orrs	r3, r2
 81028ea:	f000 8089 	beq.w	8102a00 <HAL_RCCEx_PeriphCLKConfig+0xa58>
  {
    switch (PeriphClkInit->Usart16ClockSelection)
 81028ee:	f8d7 3114 	ldr.w	r3, [r7, #276]	@ 0x114
 81028f2:	6fdb      	ldr	r3, [r3, #124]	@ 0x7c
 81028f4:	2b28      	cmp	r3, #40	@ 0x28
 81028f6:	d86b      	bhi.n	81029d0 <HAL_RCCEx_PeriphCLKConfig+0xa28>
 81028f8:	a201      	add	r2, pc, #4	@ (adr r2, 8102900 <HAL_RCCEx_PeriphCLKConfig+0x958>)
 81028fa:	f852 f023 	ldr.w	pc, [r2, r3, lsl #2]
 81028fe:	bf00      	nop
 8102900:	081029d9 	.word	0x081029d9
 8102904:	081029d1 	.word	0x081029d1
 8102908:	081029d1 	.word	0x081029d1
 810290c:	081029d1 	.word	0x081029d1
 8102910:	081029d1 	.word	0x081029d1
 8102914:	081029d1 	.word	0x081029d1
 8102918:	081029d1 	.word	0x081029d1
 810291c:	081029d1 	.word	0x081029d1
 8102920:	081029a5 	.word	0x081029a5
 8102924:	081029d1 	.word	0x081029d1
 8102928:	081029d1 	.word	0x081029d1
 810292c:	081029d1 	.word	0x081029d1
 8102930:	081029d1 	.word	0x081029d1
 8102934:	081029d1 	.word	0x081029d1
 8102938:	081029d1 	.word	0x081029d1
 810293c:	081029d1 	.word	0x081029d1
 8102940:	081029bb 	.word	0x081029bb
 8102944:	081029d1 	.word	0x081029d1
 8102948:	081029d1 	.word	0x081029d1
 810294c:	081029d1 	.word	0x081029d1
 8102950:	081029d1 	.word	0x081029d1
 8102954:	081029d1 	.word	0x081029d1
 8102958:	081029d1 	.word	0x081029d1
 810295c:	081029d1 	.word	0x081029d1
 8102960:	081029d9 	.word	0x081029d9
 8102964:	081029d1 	.word	0x081029d1
 8102968:	081029d1 	.word	0x081029d1
 810296c:	081029d1 	.word	0x081029d1
 8102970:	081029d1 	.word	0x081029d1
 8102974:	081029d1 	.word	0x081029d1
 8102978:	081029d1 	.word	0x081029d1
 810297c:	081029d1 	.word	0x081029d1
 8102980:	081029d9 	.word	0x081029d9
 8102984:	081029d1 	.word	0x081029d1
 8102988:	081029d1 	.word	0x081029d1
 810298c:	081029d1 	.word	0x081029d1
 8102990:	081029d1 	.word	0x081029d1
 8102994:	081029d1 	.word	0x081029d1
 8102998:	081029d1 	.word	0x081029d1
 810299c:	081029d1 	.word	0x081029d1
 81029a0:	081029d9 	.word	0x081029d9
      case RCC_USART16CLKSOURCE_PCLK2: /* CD/D2 PCLK2 as clock source for USART1/6 */
        /* USART1/6 clock source configuration done later after clock selection check */
        break;

      case RCC_USART16CLKSOURCE_PLL2: /* PLL2 is used as clock source for USART1/6 */
        ret = RCCEx_PLL2_Config(&(PeriphClkInit->PLL2), DIVIDER_Q_UPDATE);
 81029a4:	f8d7 3114 	ldr.w	r3, [r7, #276]	@ 0x114
 81029a8:	3308      	adds	r3, #8
 81029aa:	2101      	movs	r1, #1
 81029ac:	4618      	mov	r0, r3
 81029ae:	f000 fd05 	bl	81033bc <RCCEx_PLL2_Config>
 81029b2:	4603      	mov	r3, r0
 81029b4:	f887 3127 	strb.w	r3, [r7, #295]	@ 0x127
        /* USART1/6 clock source configuration done later after clock selection check */
        break;
 81029b8:	e00f      	b.n	81029da <HAL_RCCEx_PeriphCLKConfig+0xa32>

      case RCC_USART16CLKSOURCE_PLL3: /* PLL3 is used as clock source for USART1/6 */
        ret = RCCEx_PLL3_Config(&(PeriphClkInit->PLL3), DIVIDER_Q_UPDATE);
 81029ba:	f8d7 3114 	ldr.w	r3, [r7, #276]	@ 0x114
 81029be:	3328      	adds	r3, #40	@ 0x28
 81029c0:	2101      	movs	r1, #1
 81029c2:	4618      	mov	r0, r3
 81029c4:	f000 fdac 	bl	8103520 <RCCEx_PLL3_Config>
 81029c8:	4603      	mov	r3, r0
 81029ca:	f887 3127 	strb.w	r3, [r7, #295]	@ 0x127
        /* USART1/6 clock source configuration done later after clock selection check */
        break;
 81029ce:	e004      	b.n	81029da <HAL_RCCEx_PeriphCLKConfig+0xa32>
        /* LSE,  oscillator is used as source of USART1/6 clock */
        /* USART1/6 clock source configuration done later after clock selection check */
        break;

      default:
        ret = HAL_ERROR;
 81029d0:	2301      	movs	r3, #1
 81029d2:	f887 3127 	strb.w	r3, [r7, #295]	@ 0x127
        break;
 81029d6:	e000      	b.n	81029da <HAL_RCCEx_PeriphCLKConfig+0xa32>
        break;
 81029d8:	bf00      	nop
    }

    if (ret == HAL_OK)
 81029da:	f897 3127 	ldrb.w	r3, [r7, #295]	@ 0x127
 81029de:	2b00      	cmp	r3, #0
 81029e0:	d10a      	bne.n	81029f8 <HAL_RCCEx_PeriphCLKConfig+0xa50>
    {
      /* Set the source of USART1/6 clock */
      __HAL_RCC_USART16_CONFIG(PeriphClkInit->Usart16ClockSelection);
 81029e2:	4bbf      	ldr	r3, [pc, #764]	@ (8102ce0 <HAL_RCCEx_PeriphCLKConfig+0xd38>)
 81029e4:	6d5b      	ldr	r3, [r3, #84]	@ 0x54
 81029e6:	f023 0138 	bic.w	r1, r3, #56	@ 0x38
 81029ea:	f8d7 3114 	ldr.w	r3, [r7, #276]	@ 0x114
 81029ee:	6fdb      	ldr	r3, [r3, #124]	@ 0x7c
 81029f0:	4abb      	ldr	r2, [pc, #748]	@ (8102ce0 <HAL_RCCEx_PeriphCLKConfig+0xd38>)
 81029f2:	430b      	orrs	r3, r1
 81029f4:	6553      	str	r3, [r2, #84]	@ 0x54
 81029f6:	e003      	b.n	8102a00 <HAL_RCCEx_PeriphCLKConfig+0xa58>
    }
    else
    {
      /* set overall return value */
      status = ret;
 81029f8:	f897 3127 	ldrb.w	r3, [r7, #295]	@ 0x127
 81029fc:	f887 3126 	strb.w	r3, [r7, #294]	@ 0x126
    }
  }

  /*-------------------------- USART2/3/4/5/7/8 Configuration --------------------------*/
  if (((PeriphClkInit->PeriphClockSelection) & RCC_PERIPHCLK_USART234578) == RCC_PERIPHCLK_USART234578)
 8102a00:	f8d7 3114 	ldr.w	r3, [r7, #276]	@ 0x114
 8102a04:	e9d3 2300 	ldrd	r2, r3, [r3]
 8102a08:	f002 0302 	and.w	r3, r2, #2
 8102a0c:	f8c7 30b8 	str.w	r3, [r7, #184]	@ 0xb8
 8102a10:	2300      	movs	r3, #0
 8102a12:	f8c7 30bc 	str.w	r3, [r7, #188]	@ 0xbc
 8102a16:	e9d7 122e 	ldrd	r1, r2, [r7, #184]	@ 0xb8
 8102a1a:	460b      	mov	r3, r1
 8102a1c:	4313      	orrs	r3, r2
 8102a1e:	d041      	beq.n	8102aa4 <HAL_RCCEx_PeriphCLKConfig+0xafc>
  {
    switch (PeriphClkInit->Usart234578ClockSelection)
 8102a20:	f8d7 3114 	ldr.w	r3, [r7, #276]	@ 0x114
 8102a24:	6f9b      	ldr	r3, [r3, #120]	@ 0x78
 8102a26:	2b05      	cmp	r3, #5
 8102a28:	d824      	bhi.n	8102a74 <HAL_RCCEx_PeriphCLKConfig+0xacc>
 8102a2a:	a201      	add	r2, pc, #4	@ (adr r2, 8102a30 <HAL_RCCEx_PeriphCLKConfig+0xa88>)
 8102a2c:	f852 f023 	ldr.w	pc, [r2, r3, lsl #2]
 8102a30:	08102a7d 	.word	0x08102a7d
 8102a34:	08102a49 	.word	0x08102a49
 8102a38:	08102a5f 	.word	0x08102a5f
 8102a3c:	08102a7d 	.word	0x08102a7d
 8102a40:	08102a7d 	.word	0x08102a7d
 8102a44:	08102a7d 	.word	0x08102a7d
      case RCC_USART234578CLKSOURCE_PCLK1: /* CD/D2 PCLK1 as clock source for USART2/3/4/5/7/8 */
        /* USART2/3/4/5/7/8 clock source configuration done later after clock selection check */
        break;

      case RCC_USART234578CLKSOURCE_PLL2: /* PLL2 is used as clock source for USART2/3/4/5/7/8 */
        ret = RCCEx_PLL2_Config(&(PeriphClkInit->PLL2), DIVIDER_Q_UPDATE);
 8102a48:	f8d7 3114 	ldr.w	r3, [r7, #276]	@ 0x114
 8102a4c:	3308      	adds	r3, #8
 8102a4e:	2101      	movs	r1, #1
 8102a50:	4618      	mov	r0, r3
 8102a52:	f000 fcb3 	bl	81033bc <RCCEx_PLL2_Config>
 8102a56:	4603      	mov	r3, r0
 8102a58:	f887 3127 	strb.w	r3, [r7, #295]	@ 0x127
        /* USART2/3/4/5/7/8 clock source configuration done later after clock selection check */
        break;
 8102a5c:	e00f      	b.n	8102a7e <HAL_RCCEx_PeriphCLKConfig+0xad6>

      case RCC_USART234578CLKSOURCE_PLL3: /* PLL3 is used as clock source for USART2/3/4/5/7/8 */
        ret = RCCEx_PLL3_Config(&(PeriphClkInit->PLL3), DIVIDER_Q_UPDATE);
 8102a5e:	f8d7 3114 	ldr.w	r3, [r7, #276]	@ 0x114
 8102a62:	3328      	adds	r3, #40	@ 0x28
 8102a64:	2101      	movs	r1, #1
 8102a66:	4618      	mov	r0, r3
 8102a68:	f000 fd5a 	bl	8103520 <RCCEx_PLL3_Config>
 8102a6c:	4603      	mov	r3, r0
 8102a6e:	f887 3127 	strb.w	r3, [r7, #295]	@ 0x127
        /* USART2/3/4/5/7/8 clock source configuration done later after clock selection check */
        break;
 8102a72:	e004      	b.n	8102a7e <HAL_RCCEx_PeriphCLKConfig+0xad6>
        /* LSE,  oscillator is used as source of USART2/3/4/5/7/8 clock */
        /* USART2/3/4/5/7/8 clock source configuration done later after clock selection check */
        break;

      default:
        ret = HAL_ERROR;
 8102a74:	2301      	movs	r3, #1
 8102a76:	f887 3127 	strb.w	r3, [r7, #295]	@ 0x127
        break;
 8102a7a:	e000      	b.n	8102a7e <HAL_RCCEx_PeriphCLKConfig+0xad6>
        break;
 8102a7c:	bf00      	nop
    }

    if (ret == HAL_OK)
 8102a7e:	f897 3127 	ldrb.w	r3, [r7, #295]	@ 0x127
 8102a82:	2b00      	cmp	r3, #0
 8102a84:	d10a      	bne.n	8102a9c <HAL_RCCEx_PeriphCLKConfig+0xaf4>
    {
      /* Set the source of USART2/3/4/5/7/8 clock */
      __HAL_RCC_USART234578_CONFIG(PeriphClkInit->Usart234578ClockSelection);
 8102a86:	4b96      	ldr	r3, [pc, #600]	@ (8102ce0 <HAL_RCCEx_PeriphCLKConfig+0xd38>)
 8102a88:	6d5b      	ldr	r3, [r3, #84]	@ 0x54
 8102a8a:	f023 0107 	bic.w	r1, r3, #7
 8102a8e:	f8d7 3114 	ldr.w	r3, [r7, #276]	@ 0x114
 8102a92:	6f9b      	ldr	r3, [r3, #120]	@ 0x78
 8102a94:	4a92      	ldr	r2, [pc, #584]	@ (8102ce0 <HAL_RCCEx_PeriphCLKConfig+0xd38>)
 8102a96:	430b      	orrs	r3, r1
 8102a98:	6553      	str	r3, [r2, #84]	@ 0x54
 8102a9a:	e003      	b.n	8102aa4 <HAL_RCCEx_PeriphCLKConfig+0xafc>
    }
    else
    {
      /* set overall return value */
      status = ret;
 8102a9c:	f897 3127 	ldrb.w	r3, [r7, #295]	@ 0x127
 8102aa0:	f887 3126 	strb.w	r3, [r7, #294]	@ 0x126
    }
  }

  /*-------------------------- LPUART1 Configuration -------------------------*/
  if (((PeriphClkInit->PeriphClockSelection) & RCC_PERIPHCLK_LPUART1) == RCC_PERIPHCLK_LPUART1)
 8102aa4:	f8d7 3114 	ldr.w	r3, [r7, #276]	@ 0x114
 8102aa8:	e9d3 2300 	ldrd	r2, r3, [r3]
 8102aac:	f002 0304 	and.w	r3, r2, #4
 8102ab0:	f8c7 30b0 	str.w	r3, [r7, #176]	@ 0xb0
 8102ab4:	2300      	movs	r3, #0
 8102ab6:	f8c7 30b4 	str.w	r3, [r7, #180]	@ 0xb4
 8102aba:	e9d7 122c 	ldrd	r1, r2, [r7, #176]	@ 0xb0
 8102abe:	460b      	mov	r3, r1
 8102ac0:	4313      	orrs	r3, r2
 8102ac2:	d044      	beq.n	8102b4e <HAL_RCCEx_PeriphCLKConfig+0xba6>
  {
    switch (PeriphClkInit->Lpuart1ClockSelection)
 8102ac4:	f8d7 3114 	ldr.w	r3, [r7, #276]	@ 0x114
 8102ac8:	f8d3 3094 	ldr.w	r3, [r3, #148]	@ 0x94
 8102acc:	2b05      	cmp	r3, #5
 8102ace:	d825      	bhi.n	8102b1c <HAL_RCCEx_PeriphCLKConfig+0xb74>
 8102ad0:	a201      	add	r2, pc, #4	@ (adr r2, 8102ad8 <HAL_RCCEx_PeriphCLKConfig+0xb30>)
 8102ad2:	f852 f023 	ldr.w	pc, [r2, r3, lsl #2]
 8102ad6:	bf00      	nop
 8102ad8:	08102b25 	.word	0x08102b25
 8102adc:	08102af1 	.word	0x08102af1
 8102ae0:	08102b07 	.word	0x08102b07
 8102ae4:	08102b25 	.word	0x08102b25
 8102ae8:	08102b25 	.word	0x08102b25
 8102aec:	08102b25 	.word	0x08102b25
      case RCC_LPUART1CLKSOURCE_PCLK4: /* SRD/D3 PCLK1 (PCLK4) as clock source for LPUART1 */
        /* LPUART1 clock source configuration done later after clock selection check */
        break;

      case RCC_LPUART1CLKSOURCE_PLL2: /* PLL2 is used as clock source for LPUART1 */
        ret = RCCEx_PLL2_Config(&(PeriphClkInit->PLL2), DIVIDER_Q_UPDATE);
 8102af0:	f8d7 3114 	ldr.w	r3, [r7, #276]	@ 0x114
 8102af4:	3308      	adds	r3, #8
 8102af6:	2101      	movs	r1, #1
 8102af8:	4618      	mov	r0, r3
 8102afa:	f000 fc5f 	bl	81033bc <RCCEx_PLL2_Config>
 8102afe:	4603      	mov	r3, r0
 8102b00:	f887 3127 	strb.w	r3, [r7, #295]	@ 0x127
        /* LPUART1 clock source configuration done later after clock selection check */
        break;
 8102b04:	e00f      	b.n	8102b26 <HAL_RCCEx_PeriphCLKConfig+0xb7e>

      case RCC_LPUART1CLKSOURCE_PLL3: /* PLL3 is used as clock source for LPUART1 */
        ret = RCCEx_PLL3_Config(&(PeriphClkInit->PLL3), DIVIDER_Q_UPDATE);
 8102b06:	f8d7 3114 	ldr.w	r3, [r7, #276]	@ 0x114
 8102b0a:	3328      	adds	r3, #40	@ 0x28
 8102b0c:	2101      	movs	r1, #1
 8102b0e:	4618      	mov	r0, r3
 8102b10:	f000 fd06 	bl	8103520 <RCCEx_PLL3_Config>
 8102b14:	4603      	mov	r3, r0
 8102b16:	f887 3127 	strb.w	r3, [r7, #295]	@ 0x127
        /* LPUART1 clock source configuration done later after clock selection check */
        break;
 8102b1a:	e004      	b.n	8102b26 <HAL_RCCEx_PeriphCLKConfig+0xb7e>
        /* LSE,  oscillator is used as source of LPUART1 clock */
        /* LPUART1 clock source configuration done later after clock selection check */
        break;

      default:
        ret = HAL_ERROR;
 8102b1c:	2301      	movs	r3, #1
 8102b1e:	f887 3127 	strb.w	r3, [r7, #295]	@ 0x127
        break;
 8102b22:	e000      	b.n	8102b26 <HAL_RCCEx_PeriphCLKConfig+0xb7e>
        break;
 8102b24:	bf00      	nop
    }

    if (ret == HAL_OK)
 8102b26:	f897 3127 	ldrb.w	r3, [r7, #295]	@ 0x127
 8102b2a:	2b00      	cmp	r3, #0
 8102b2c:	d10b      	bne.n	8102b46 <HAL_RCCEx_PeriphCLKConfig+0xb9e>
    {
      /* Set the source of LPUART1 clock */
      __HAL_RCC_LPUART1_CONFIG(PeriphClkInit->Lpuart1ClockSelection);
 8102b2e:	4b6c      	ldr	r3, [pc, #432]	@ (8102ce0 <HAL_RCCEx_PeriphCLKConfig+0xd38>)
 8102b30:	6d9b      	ldr	r3, [r3, #88]	@ 0x58
 8102b32:	f023 0107 	bic.w	r1, r3, #7
 8102b36:	f8d7 3114 	ldr.w	r3, [r7, #276]	@ 0x114
 8102b3a:	f8d3 3094 	ldr.w	r3, [r3, #148]	@ 0x94
 8102b3e:	4a68      	ldr	r2, [pc, #416]	@ (8102ce0 <HAL_RCCEx_PeriphCLKConfig+0xd38>)
 8102b40:	430b      	orrs	r3, r1
 8102b42:	6593      	str	r3, [r2, #88]	@ 0x58
 8102b44:	e003      	b.n	8102b4e <HAL_RCCEx_PeriphCLKConfig+0xba6>
    }
    else
    {
      /* set overall return value */
      status = ret;
 8102b46:	f897 3127 	ldrb.w	r3, [r7, #295]	@ 0x127
 8102b4a:	f887 3126 	strb.w	r3, [r7, #294]	@ 0x126
    }
  }

  /*---------------------------- LPTIM1 configuration -------------------------------*/
  if (((PeriphClkInit->PeriphClockSelection) & RCC_PERIPHCLK_LPTIM1) == RCC_PERIPHCLK_LPTIM1)
 8102b4e:	f8d7 3114 	ldr.w	r3, [r7, #276]	@ 0x114
 8102b52:	e9d3 2300 	ldrd	r2, r3, [r3]
 8102b56:	f002 0320 	and.w	r3, r2, #32
 8102b5a:	f8c7 30a8 	str.w	r3, [r7, #168]	@ 0xa8
 8102b5e:	2300      	movs	r3, #0
 8102b60:	f8c7 30ac 	str.w	r3, [r7, #172]	@ 0xac
 8102b64:	e9d7 122a 	ldrd	r1, r2, [r7, #168]	@ 0xa8
 8102b68:	460b      	mov	r3, r1
 8102b6a:	4313      	orrs	r3, r2
 8102b6c:	d055      	beq.n	8102c1a <HAL_RCCEx_PeriphCLKConfig+0xc72>
  {
    switch (PeriphClkInit->Lptim1ClockSelection)
 8102b6e:	f8d7 3114 	ldr.w	r3, [r7, #276]	@ 0x114
 8102b72:	f8d3 3090 	ldr.w	r3, [r3, #144]	@ 0x90
 8102b76:	f1b3 4fa0 	cmp.w	r3, #1342177280	@ 0x50000000
 8102b7a:	d033      	beq.n	8102be4 <HAL_RCCEx_PeriphCLKConfig+0xc3c>
 8102b7c:	f1b3 4fa0 	cmp.w	r3, #1342177280	@ 0x50000000
 8102b80:	d82c      	bhi.n	8102bdc <HAL_RCCEx_PeriphCLKConfig+0xc34>
 8102b82:	f1b3 4f80 	cmp.w	r3, #1073741824	@ 0x40000000
 8102b86:	d02f      	beq.n	8102be8 <HAL_RCCEx_PeriphCLKConfig+0xc40>
 8102b88:	f1b3 4f80 	cmp.w	r3, #1073741824	@ 0x40000000
 8102b8c:	d826      	bhi.n	8102bdc <HAL_RCCEx_PeriphCLKConfig+0xc34>
 8102b8e:	f1b3 5f40 	cmp.w	r3, #805306368	@ 0x30000000
 8102b92:	d02b      	beq.n	8102bec <HAL_RCCEx_PeriphCLKConfig+0xc44>
 8102b94:	f1b3 5f40 	cmp.w	r3, #805306368	@ 0x30000000
 8102b98:	d820      	bhi.n	8102bdc <HAL_RCCEx_PeriphCLKConfig+0xc34>
 8102b9a:	f1b3 5f00 	cmp.w	r3, #536870912	@ 0x20000000
 8102b9e:	d012      	beq.n	8102bc6 <HAL_RCCEx_PeriphCLKConfig+0xc1e>
 8102ba0:	f1b3 5f00 	cmp.w	r3, #536870912	@ 0x20000000
 8102ba4:	d81a      	bhi.n	8102bdc <HAL_RCCEx_PeriphCLKConfig+0xc34>
 8102ba6:	2b00      	cmp	r3, #0
 8102ba8:	d022      	beq.n	8102bf0 <HAL_RCCEx_PeriphCLKConfig+0xc48>
 8102baa:	f1b3 5f80 	cmp.w	r3, #268435456	@ 0x10000000
 8102bae:	d115      	bne.n	8102bdc <HAL_RCCEx_PeriphCLKConfig+0xc34>
        /* LPTIM1 clock source configuration done later after clock selection check */
        break;

      case RCC_LPTIM1CLKSOURCE_PLL2: /* PLL2 is used as clock source for LPTIM1*/

        ret = RCCEx_PLL2_Config(&(PeriphClkInit->PLL2), DIVIDER_P_UPDATE);
 8102bb0:	f8d7 3114 	ldr.w	r3, [r7, #276]	@ 0x114
 8102bb4:	3308      	adds	r3, #8
 8102bb6:	2100      	movs	r1, #0
 8102bb8:	4618      	mov	r0, r3
 8102bba:	f000 fbff 	bl	81033bc <RCCEx_PLL2_Config>
 8102bbe:	4603      	mov	r3, r0
 8102bc0:	f887 3127 	strb.w	r3, [r7, #295]	@ 0x127

        /* LPTIM1 clock source configuration done later after clock selection check */
        break;
 8102bc4:	e015      	b.n	8102bf2 <HAL_RCCEx_PeriphCLKConfig+0xc4a>

      case RCC_LPTIM1CLKSOURCE_PLL3:  /* PLL3 is used as clock source for LPTIM1*/
        ret = RCCEx_PLL3_Config(&(PeriphClkInit->PLL3), DIVIDER_R_UPDATE);
 8102bc6:	f8d7 3114 	ldr.w	r3, [r7, #276]	@ 0x114
 8102bca:	3328      	adds	r3, #40	@ 0x28
 8102bcc:	2102      	movs	r1, #2
 8102bce:	4618      	mov	r0, r3
 8102bd0:	f000 fca6 	bl	8103520 <RCCEx_PLL3_Config>
 8102bd4:	4603      	mov	r3, r0
 8102bd6:	f887 3127 	strb.w	r3, [r7, #295]	@ 0x127

        /* LPTIM1 clock source configuration done later after clock selection check */
        break;
 8102bda:	e00a      	b.n	8102bf2 <HAL_RCCEx_PeriphCLKConfig+0xc4a>
        /* HSI, HSE, or CSI oscillator is used as source of LPTIM1 clock */
        /* LPTIM1 clock source configuration done later after clock selection check */
        break;

      default:
        ret = HAL_ERROR;
 8102bdc:	2301      	movs	r3, #1
 8102bde:	f887 3127 	strb.w	r3, [r7, #295]	@ 0x127
        break;
 8102be2:	e006      	b.n	8102bf2 <HAL_RCCEx_PeriphCLKConfig+0xc4a>
        break;
 8102be4:	bf00      	nop
 8102be6:	e004      	b.n	8102bf2 <HAL_RCCEx_PeriphCLKConfig+0xc4a>
        break;
 8102be8:	bf00      	nop
 8102bea:	e002      	b.n	8102bf2 <HAL_RCCEx_PeriphCLKConfig+0xc4a>
        break;
 8102bec:	bf00      	nop
 8102bee:	e000      	b.n	8102bf2 <HAL_RCCEx_PeriphCLKConfig+0xc4a>
        break;
 8102bf0:	bf00      	nop
    }

    if (ret == HAL_OK)
 8102bf2:	f897 3127 	ldrb.w	r3, [r7, #295]	@ 0x127
 8102bf6:	2b00      	cmp	r3, #0
 8102bf8:	d10b      	bne.n	8102c12 <HAL_RCCEx_PeriphCLKConfig+0xc6a>
    {
      /* Set the source of LPTIM1 clock*/
      __HAL_RCC_LPTIM1_CONFIG(PeriphClkInit->Lptim1ClockSelection);
 8102bfa:	4b39      	ldr	r3, [pc, #228]	@ (8102ce0 <HAL_RCCEx_PeriphCLKConfig+0xd38>)
 8102bfc:	6d5b      	ldr	r3, [r3, #84]	@ 0x54
 8102bfe:	f023 41e0 	bic.w	r1, r3, #1879048192	@ 0x70000000
 8102c02:	f8d7 3114 	ldr.w	r3, [r7, #276]	@ 0x114
 8102c06:	f8d3 3090 	ldr.w	r3, [r3, #144]	@ 0x90
 8102c0a:	4a35      	ldr	r2, [pc, #212]	@ (8102ce0 <HAL_RCCEx_PeriphCLKConfig+0xd38>)
 8102c0c:	430b      	orrs	r3, r1
 8102c0e:	6553      	str	r3, [r2, #84]	@ 0x54
 8102c10:	e003      	b.n	8102c1a <HAL_RCCEx_PeriphCLKConfig+0xc72>
    }
    else
    {
      /* set overall return value */
      status = ret;
 8102c12:	f897 3127 	ldrb.w	r3, [r7, #295]	@ 0x127
 8102c16:	f887 3126 	strb.w	r3, [r7, #294]	@ 0x126
    }
  }

  /*---------------------------- LPTIM2 configuration -------------------------------*/
  if (((PeriphClkInit->PeriphClockSelection) & RCC_PERIPHCLK_LPTIM2) == RCC_PERIPHCLK_LPTIM2)
 8102c1a:	f8d7 3114 	ldr.w	r3, [r7, #276]	@ 0x114
 8102c1e:	e9d3 2300 	ldrd	r2, r3, [r3]
 8102c22:	f002 0340 	and.w	r3, r2, #64	@ 0x40
 8102c26:	f8c7 30a0 	str.w	r3, [r7, #160]	@ 0xa0
 8102c2a:	2300      	movs	r3, #0
 8102c2c:	f8c7 30a4 	str.w	r3, [r7, #164]	@ 0xa4
 8102c30:	e9d7 1228 	ldrd	r1, r2, [r7, #160]	@ 0xa0
 8102c34:	460b      	mov	r3, r1
 8102c36:	4313      	orrs	r3, r2
 8102c38:	d058      	beq.n	8102cec <HAL_RCCEx_PeriphCLKConfig+0xd44>
  {
    switch (PeriphClkInit->Lptim2ClockSelection)
 8102c3a:	f8d7 3114 	ldr.w	r3, [r7, #276]	@ 0x114
 8102c3e:	f8d3 309c 	ldr.w	r3, [r3, #156]	@ 0x9c
 8102c42:	f5b3 5fa0 	cmp.w	r3, #5120	@ 0x1400
 8102c46:	d033      	beq.n	8102cb0 <HAL_RCCEx_PeriphCLKConfig+0xd08>
 8102c48:	f5b3 5fa0 	cmp.w	r3, #5120	@ 0x1400
 8102c4c:	d82c      	bhi.n	8102ca8 <HAL_RCCEx_PeriphCLKConfig+0xd00>
 8102c4e:	f5b3 5f80 	cmp.w	r3, #4096	@ 0x1000
 8102c52:	d02f      	beq.n	8102cb4 <HAL_RCCEx_PeriphCLKConfig+0xd0c>
 8102c54:	f5b3 5f80 	cmp.w	r3, #4096	@ 0x1000
 8102c58:	d826      	bhi.n	8102ca8 <HAL_RCCEx_PeriphCLKConfig+0xd00>
 8102c5a:	f5b3 6f40 	cmp.w	r3, #3072	@ 0xc00
 8102c5e:	d02b      	beq.n	8102cb8 <HAL_RCCEx_PeriphCLKConfig+0xd10>
 8102c60:	f5b3 6f40 	cmp.w	r3, #3072	@ 0xc00
 8102c64:	d820      	bhi.n	8102ca8 <HAL_RCCEx_PeriphCLKConfig+0xd00>
 8102c66:	f5b3 6f00 	cmp.w	r3, #2048	@ 0x800
 8102c6a:	d012      	beq.n	8102c92 <HAL_RCCEx_PeriphCLKConfig+0xcea>
 8102c6c:	f5b3 6f00 	cmp.w	r3, #2048	@ 0x800
 8102c70:	d81a      	bhi.n	8102ca8 <HAL_RCCEx_PeriphCLKConfig+0xd00>
 8102c72:	2b00      	cmp	r3, #0
 8102c74:	d022      	beq.n	8102cbc <HAL_RCCEx_PeriphCLKConfig+0xd14>
 8102c76:	f5b3 6f80 	cmp.w	r3, #1024	@ 0x400
 8102c7a:	d115      	bne.n	8102ca8 <HAL_RCCEx_PeriphCLKConfig+0xd00>
        /* LPTIM2 clock source configuration done later after clock selection check */
        break;

      case RCC_LPTIM2CLKSOURCE_PLL2: /* PLL2 is used as clock source for LPTIM2*/

        ret = RCCEx_PLL2_Config(&(PeriphClkInit->PLL2), DIVIDER_P_UPDATE);
 8102c7c:	f8d7 3114 	ldr.w	r3, [r7, #276]	@ 0x114
 8102c80:	3308      	adds	r3, #8
 8102c82:	2100      	movs	r1, #0
 8102c84:	4618      	mov	r0, r3
 8102c86:	f000 fb99 	bl	81033bc <RCCEx_PLL2_Config>
 8102c8a:	4603      	mov	r3, r0
 8102c8c:	f887 3127 	strb.w	r3, [r7, #295]	@ 0x127

        /* LPTIM2 clock source configuration done later after clock selection check */
        break;
 8102c90:	e015      	b.n	8102cbe <HAL_RCCEx_PeriphCLKConfig+0xd16>

      case RCC_LPTIM2CLKSOURCE_PLL3:  /* PLL3 is used as clock source for LPTIM2*/
        ret = RCCEx_PLL3_Config(&(PeriphClkInit->PLL3), DIVIDER_R_UPDATE);
 8102c92:	f8d7 3114 	ldr.w	r3, [r7, #276]	@ 0x114
 8102c96:	3328      	adds	r3, #40	@ 0x28
 8102c98:	2102      	movs	r1, #2
 8102c9a:	4618      	mov	r0, r3
 8102c9c:	f000 fc40 	bl	8103520 <RCCEx_PLL3_Config>
 8102ca0:	4603      	mov	r3, r0
 8102ca2:	f887 3127 	strb.w	r3, [r7, #295]	@ 0x127

        /* LPTIM2 clock source configuration done later after clock selection check */
        break;
 8102ca6:	e00a      	b.n	8102cbe <HAL_RCCEx_PeriphCLKConfig+0xd16>
        /* HSI, HSE, or CSI oscillator is used as source of LPTIM2 clock */
        /* LPTIM2 clock source configuration done later after clock selection check */
        break;

      default:
        ret = HAL_ERROR;
 8102ca8:	2301      	movs	r3, #1
 8102caa:	f887 3127 	strb.w	r3, [r7, #295]	@ 0x127
        break;
 8102cae:	e006      	b.n	8102cbe <HAL_RCCEx_PeriphCLKConfig+0xd16>
        break;
 8102cb0:	bf00      	nop
 8102cb2:	e004      	b.n	8102cbe <HAL_RCCEx_PeriphCLKConfig+0xd16>
        break;
 8102cb4:	bf00      	nop
 8102cb6:	e002      	b.n	8102cbe <HAL_RCCEx_PeriphCLKConfig+0xd16>
        break;
 8102cb8:	bf00      	nop
 8102cba:	e000      	b.n	8102cbe <HAL_RCCEx_PeriphCLKConfig+0xd16>
        break;
 8102cbc:	bf00      	nop
    }

    if (ret == HAL_OK)
 8102cbe:	f897 3127 	ldrb.w	r3, [r7, #295]	@ 0x127
 8102cc2:	2b00      	cmp	r3, #0
 8102cc4:	d10e      	bne.n	8102ce4 <HAL_RCCEx_PeriphCLKConfig+0xd3c>
    {
      /* Set the source of LPTIM2 clock*/
      __HAL_RCC_LPTIM2_CONFIG(PeriphClkInit->Lptim2ClockSelection);
 8102cc6:	4b06      	ldr	r3, [pc, #24]	@ (8102ce0 <HAL_RCCEx_PeriphCLKConfig+0xd38>)
 8102cc8:	6d9b      	ldr	r3, [r3, #88]	@ 0x58
 8102cca:	f423 51e0 	bic.w	r1, r3, #7168	@ 0x1c00
 8102cce:	f8d7 3114 	ldr.w	r3, [r7, #276]	@ 0x114
 8102cd2:	f8d3 309c 	ldr.w	r3, [r3, #156]	@ 0x9c
 8102cd6:	4a02      	ldr	r2, [pc, #8]	@ (8102ce0 <HAL_RCCEx_PeriphCLKConfig+0xd38>)
 8102cd8:	430b      	orrs	r3, r1
 8102cda:	6593      	str	r3, [r2, #88]	@ 0x58
 8102cdc:	e006      	b.n	8102cec <HAL_RCCEx_PeriphCLKConfig+0xd44>
 8102cde:	bf00      	nop
 8102ce0:	58024400 	.word	0x58024400
    }
    else
    {
      /* set overall return value */
      status = ret;
 8102ce4:	f897 3127 	ldrb.w	r3, [r7, #295]	@ 0x127
 8102ce8:	f887 3126 	strb.w	r3, [r7, #294]	@ 0x126
    }
  }

  /*---------------------------- LPTIM345 configuration -------------------------------*/
  if (((PeriphClkInit->PeriphClockSelection) & RCC_PERIPHCLK_LPTIM345) == RCC_PERIPHCLK_LPTIM345)
 8102cec:	f8d7 3114 	ldr.w	r3, [r7, #276]	@ 0x114
 8102cf0:	e9d3 2300 	ldrd	r2, r3, [r3]
 8102cf4:	f002 0380 	and.w	r3, r2, #128	@ 0x80
 8102cf8:	f8c7 3098 	str.w	r3, [r7, #152]	@ 0x98
 8102cfc:	2300      	movs	r3, #0
 8102cfe:	f8c7 309c 	str.w	r3, [r7, #156]	@ 0x9c
 8102d02:	e9d7 1226 	ldrd	r1, r2, [r7, #152]	@ 0x98
 8102d06:	460b      	mov	r3, r1
 8102d08:	4313      	orrs	r3, r2
 8102d0a:	d055      	beq.n	8102db8 <HAL_RCCEx_PeriphCLKConfig+0xe10>
  {
    switch (PeriphClkInit->Lptim345ClockSelection)
 8102d0c:	f8d7 3114 	ldr.w	r3, [r7, #276]	@ 0x114
 8102d10:	f8d3 30a0 	ldr.w	r3, [r3, #160]	@ 0xa0
 8102d14:	f5b3 4f20 	cmp.w	r3, #40960	@ 0xa000
 8102d18:	d033      	beq.n	8102d82 <HAL_RCCEx_PeriphCLKConfig+0xdda>
 8102d1a:	f5b3 4f20 	cmp.w	r3, #40960	@ 0xa000
 8102d1e:	d82c      	bhi.n	8102d7a <HAL_RCCEx_PeriphCLKConfig+0xdd2>
 8102d20:	f5b3 4f00 	cmp.w	r3, #32768	@ 0x8000
 8102d24:	d02f      	beq.n	8102d86 <HAL_RCCEx_PeriphCLKConfig+0xdde>
 8102d26:	f5b3 4f00 	cmp.w	r3, #32768	@ 0x8000
 8102d2a:	d826      	bhi.n	8102d7a <HAL_RCCEx_PeriphCLKConfig+0xdd2>
 8102d2c:	f5b3 4fc0 	cmp.w	r3, #24576	@ 0x6000
 8102d30:	d02b      	beq.n	8102d8a <HAL_RCCEx_PeriphCLKConfig+0xde2>
 8102d32:	f5b3 4fc0 	cmp.w	r3, #24576	@ 0x6000
 8102d36:	d820      	bhi.n	8102d7a <HAL_RCCEx_PeriphCLKConfig+0xdd2>
 8102d38:	f5b3 4f80 	cmp.w	r3, #16384	@ 0x4000
 8102d3c:	d012      	beq.n	8102d64 <HAL_RCCEx_PeriphCLKConfig+0xdbc>
 8102d3e:	f5b3 4f80 	cmp.w	r3, #16384	@ 0x4000
 8102d42:	d81a      	bhi.n	8102d7a <HAL_RCCEx_PeriphCLKConfig+0xdd2>
 8102d44:	2b00      	cmp	r3, #0
 8102d46:	d022      	beq.n	8102d8e <HAL_RCCEx_PeriphCLKConfig+0xde6>
 8102d48:	f5b3 5f00 	cmp.w	r3, #8192	@ 0x2000
 8102d4c:	d115      	bne.n	8102d7a <HAL_RCCEx_PeriphCLKConfig+0xdd2>
      case RCC_LPTIM345CLKSOURCE_PCLK4:      /* SRD/D3 PCLK1 (PCLK4) as clock source for LPTIM3/4/5 */
        /* LPTIM3/4/5 clock source configuration done later after clock selection check */
        break;

      case RCC_LPTIM345CLKSOURCE_PLL2: /* PLL2 is used as clock source for LPTIM3/4/5 */
        ret = RCCEx_PLL2_Config(&(PeriphClkInit->PLL2), DIVIDER_P_UPDATE);
 8102d4e:	f8d7 3114 	ldr.w	r3, [r7, #276]	@ 0x114
 8102d52:	3308      	adds	r3, #8
 8102d54:	2100      	movs	r1, #0
 8102d56:	4618      	mov	r0, r3
 8102d58:	f000 fb30 	bl	81033bc <RCCEx_PLL2_Config>
 8102d5c:	4603      	mov	r3, r0
 8102d5e:	f887 3127 	strb.w	r3, [r7, #295]	@ 0x127

        /* LPTIM3/4/5 clock source configuration done later after clock selection check */
        break;
 8102d62:	e015      	b.n	8102d90 <HAL_RCCEx_PeriphCLKConfig+0xde8>

      case RCC_LPTIM345CLKSOURCE_PLL3:  /* PLL3 is used as clock source for LPTIM3/4/5 */
        ret = RCCEx_PLL3_Config(&(PeriphClkInit->PLL3), DIVIDER_R_UPDATE);
 8102d64:	f8d7 3114 	ldr.w	r3, [r7, #276]	@ 0x114
 8102d68:	3328      	adds	r3, #40	@ 0x28
 8102d6a:	2102      	movs	r1, #2
 8102d6c:	4618      	mov	r0, r3
 8102d6e:	f000 fbd7 	bl	8103520 <RCCEx_PLL3_Config>
 8102d72:	4603      	mov	r3, r0
 8102d74:	f887 3127 	strb.w	r3, [r7, #295]	@ 0x127

        /* LPTIM3/4/5 clock source configuration done later after clock selection check */
        break;
 8102d78:	e00a      	b.n	8102d90 <HAL_RCCEx_PeriphCLKConfig+0xde8>
        /* HSI, HSE, or CSI oscillator is used as source of LPTIM3/4/5 clock */
        /* LPTIM3/4/5 clock source configuration done later after clock selection check */
        break;

      default:
        ret = HAL_ERROR;
 8102d7a:	2301      	movs	r3, #1
 8102d7c:	f887 3127 	strb.w	r3, [r7, #295]	@ 0x127
        break;
 8102d80:	e006      	b.n	8102d90 <HAL_RCCEx_PeriphCLKConfig+0xde8>
        break;
 8102d82:	bf00      	nop
 8102d84:	e004      	b.n	8102d90 <HAL_RCCEx_PeriphCLKConfig+0xde8>
        break;
 8102d86:	bf00      	nop
 8102d88:	e002      	b.n	8102d90 <HAL_RCCEx_PeriphCLKConfig+0xde8>
        break;
 8102d8a:	bf00      	nop
 8102d8c:	e000      	b.n	8102d90 <HAL_RCCEx_PeriphCLKConfig+0xde8>
        break;
 8102d8e:	bf00      	nop
    }

    if (ret == HAL_OK)
 8102d90:	f897 3127 	ldrb.w	r3, [r7, #295]	@ 0x127
 8102d94:	2b00      	cmp	r3, #0
 8102d96:	d10b      	bne.n	8102db0 <HAL_RCCEx_PeriphCLKConfig+0xe08>
    {
      /* Set the source of LPTIM3/4/5 clock */
      __HAL_RCC_LPTIM345_CONFIG(PeriphClkInit->Lptim345ClockSelection);
 8102d98:	4ba1      	ldr	r3, [pc, #644]	@ (8103020 <HAL_RCCEx_PeriphCLKConfig+0x1078>)
 8102d9a:	6d9b      	ldr	r3, [r3, #88]	@ 0x58
 8102d9c:	f423 4160 	bic.w	r1, r3, #57344	@ 0xe000
 8102da0:	f8d7 3114 	ldr.w	r3, [r7, #276]	@ 0x114
 8102da4:	f8d3 30a0 	ldr.w	r3, [r3, #160]	@ 0xa0
 8102da8:	4a9d      	ldr	r2, [pc, #628]	@ (8103020 <HAL_RCCEx_PeriphCLKConfig+0x1078>)
 8102daa:	430b      	orrs	r3, r1
 8102dac:	6593      	str	r3, [r2, #88]	@ 0x58
 8102dae:	e003      	b.n	8102db8 <HAL_RCCEx_PeriphCLKConfig+0xe10>
    }
    else
    {
      /* set overall return value */
      status = ret;
 8102db0:	f897 3127 	ldrb.w	r3, [r7, #295]	@ 0x127
 8102db4:	f887 3126 	strb.w	r3, [r7, #294]	@ 0x126

    __HAL_RCC_I2C1235_CONFIG(PeriphClkInit->I2c1235ClockSelection);

  }
#else
  if (((PeriphClkInit->PeriphClockSelection) & RCC_PERIPHCLK_I2C123) == RCC_PERIPHCLK_I2C123)
 8102db8:	f8d7 3114 	ldr.w	r3, [r7, #276]	@ 0x114
 8102dbc:	e9d3 2300 	ldrd	r2, r3, [r3]
 8102dc0:	f002 0308 	and.w	r3, r2, #8
 8102dc4:	f8c7 3090 	str.w	r3, [r7, #144]	@ 0x90
 8102dc8:	2300      	movs	r3, #0
 8102dca:	f8c7 3094 	str.w	r3, [r7, #148]	@ 0x94
 8102dce:	e9d7 1224 	ldrd	r1, r2, [r7, #144]	@ 0x90
 8102dd2:	460b      	mov	r3, r1
 8102dd4:	4313      	orrs	r3, r2
 8102dd6:	d01e      	beq.n	8102e16 <HAL_RCCEx_PeriphCLKConfig+0xe6e>
  {
    /* Check the parameters */
    assert_param(IS_RCC_I2C123CLKSOURCE(PeriphClkInit->I2c123ClockSelection));

    if ((PeriphClkInit->I2c123ClockSelection) == RCC_I2C123CLKSOURCE_PLL3)
 8102dd8:	f8d7 3114 	ldr.w	r3, [r7, #276]	@ 0x114
 8102ddc:	f8d3 3084 	ldr.w	r3, [r3, #132]	@ 0x84
 8102de0:	f5b3 5f80 	cmp.w	r3, #4096	@ 0x1000
 8102de4:	d10c      	bne.n	8102e00 <HAL_RCCEx_PeriphCLKConfig+0xe58>
    {
      if (RCCEx_PLL3_Config(&(PeriphClkInit->PLL3), DIVIDER_R_UPDATE) != HAL_OK)
 8102de6:	f8d7 3114 	ldr.w	r3, [r7, #276]	@ 0x114
 8102dea:	3328      	adds	r3, #40	@ 0x28
 8102dec:	2102      	movs	r1, #2
 8102dee:	4618      	mov	r0, r3
 8102df0:	f000 fb96 	bl	8103520 <RCCEx_PLL3_Config>
 8102df4:	4603      	mov	r3, r0
 8102df6:	2b00      	cmp	r3, #0
 8102df8:	d002      	beq.n	8102e00 <HAL_RCCEx_PeriphCLKConfig+0xe58>
      {
        status = HAL_ERROR;
 8102dfa:	2301      	movs	r3, #1
 8102dfc:	f887 3126 	strb.w	r3, [r7, #294]	@ 0x126
      }
    }

    __HAL_RCC_I2C123_CONFIG(PeriphClkInit->I2c123ClockSelection);
 8102e00:	4b87      	ldr	r3, [pc, #540]	@ (8103020 <HAL_RCCEx_PeriphCLKConfig+0x1078>)
 8102e02:	6d5b      	ldr	r3, [r3, #84]	@ 0x54
 8102e04:	f423 5140 	bic.w	r1, r3, #12288	@ 0x3000
 8102e08:	f8d7 3114 	ldr.w	r3, [r7, #276]	@ 0x114
 8102e0c:	f8d3 3084 	ldr.w	r3, [r3, #132]	@ 0x84
 8102e10:	4a83      	ldr	r2, [pc, #524]	@ (8103020 <HAL_RCCEx_PeriphCLKConfig+0x1078>)
 8102e12:	430b      	orrs	r3, r1
 8102e14:	6553      	str	r3, [r2, #84]	@ 0x54

  }
#endif /* I2C5 */

  /*------------------------------ I2C4 Configuration ------------------------*/
  if (((PeriphClkInit->PeriphClockSelection) & RCC_PERIPHCLK_I2C4) == RCC_PERIPHCLK_I2C4)
 8102e16:	f8d7 3114 	ldr.w	r3, [r7, #276]	@ 0x114
 8102e1a:	e9d3 2300 	ldrd	r2, r3, [r3]
 8102e1e:	f002 0310 	and.w	r3, r2, #16
 8102e22:	f8c7 3088 	str.w	r3, [r7, #136]	@ 0x88
 8102e26:	2300      	movs	r3, #0
 8102e28:	f8c7 308c 	str.w	r3, [r7, #140]	@ 0x8c
 8102e2c:	e9d7 1222 	ldrd	r1, r2, [r7, #136]	@ 0x88
 8102e30:	460b      	mov	r3, r1
 8102e32:	4313      	orrs	r3, r2
 8102e34:	d01e      	beq.n	8102e74 <HAL_RCCEx_PeriphCLKConfig+0xecc>
  {
    /* Check the parameters */
    assert_param(IS_RCC_I2C4CLKSOURCE(PeriphClkInit->I2c4ClockSelection));

    if ((PeriphClkInit->I2c4ClockSelection) == RCC_I2C4CLKSOURCE_PLL3)
 8102e36:	f8d7 3114 	ldr.w	r3, [r7, #276]	@ 0x114
 8102e3a:	f8d3 3098 	ldr.w	r3, [r3, #152]	@ 0x98
 8102e3e:	f5b3 7f80 	cmp.w	r3, #256	@ 0x100
 8102e42:	d10c      	bne.n	8102e5e <HAL_RCCEx_PeriphCLKConfig+0xeb6>
    {
      if (RCCEx_PLL3_Config(&(PeriphClkInit->PLL3), DIVIDER_R_UPDATE) != HAL_OK)
 8102e44:	f8d7 3114 	ldr.w	r3, [r7, #276]	@ 0x114
 8102e48:	3328      	adds	r3, #40	@ 0x28
 8102e4a:	2102      	movs	r1, #2
 8102e4c:	4618      	mov	r0, r3
 8102e4e:	f000 fb67 	bl	8103520 <RCCEx_PLL3_Config>
 8102e52:	4603      	mov	r3, r0
 8102e54:	2b00      	cmp	r3, #0
 8102e56:	d002      	beq.n	8102e5e <HAL_RCCEx_PeriphCLKConfig+0xeb6>
      {
        status = HAL_ERROR;
 8102e58:	2301      	movs	r3, #1
 8102e5a:	f887 3126 	strb.w	r3, [r7, #294]	@ 0x126
      }
    }

    __HAL_RCC_I2C4_CONFIG(PeriphClkInit->I2c4ClockSelection);
 8102e5e:	4b70      	ldr	r3, [pc, #448]	@ (8103020 <HAL_RCCEx_PeriphCLKConfig+0x1078>)
 8102e60:	6d9b      	ldr	r3, [r3, #88]	@ 0x58
 8102e62:	f423 7140 	bic.w	r1, r3, #768	@ 0x300
 8102e66:	f8d7 3114 	ldr.w	r3, [r7, #276]	@ 0x114
 8102e6a:	f8d3 3098 	ldr.w	r3, [r3, #152]	@ 0x98
 8102e6e:	4a6c      	ldr	r2, [pc, #432]	@ (8103020 <HAL_RCCEx_PeriphCLKConfig+0x1078>)
 8102e70:	430b      	orrs	r3, r1
 8102e72:	6593      	str	r3, [r2, #88]	@ 0x58

  }

  /*---------------------------- ADC configuration -------------------------------*/
  if (((PeriphClkInit->PeriphClockSelection) & RCC_PERIPHCLK_ADC) == RCC_PERIPHCLK_ADC)
 8102e74:	f8d7 3114 	ldr.w	r3, [r7, #276]	@ 0x114
 8102e78:	e9d3 2300 	ldrd	r2, r3, [r3]
 8102e7c:	f402 2300 	and.w	r3, r2, #524288	@ 0x80000
 8102e80:	f8c7 3080 	str.w	r3, [r7, #128]	@ 0x80
 8102e84:	2300      	movs	r3, #0
 8102e86:	f8c7 3084 	str.w	r3, [r7, #132]	@ 0x84
 8102e8a:	e9d7 1220 	ldrd	r1, r2, [r7, #128]	@ 0x80
 8102e8e:	460b      	mov	r3, r1
 8102e90:	4313      	orrs	r3, r2
 8102e92:	d03e      	beq.n	8102f12 <HAL_RCCEx_PeriphCLKConfig+0xf6a>
  {
    switch (PeriphClkInit->AdcClockSelection)
 8102e94:	f8d7 3114 	ldr.w	r3, [r7, #276]	@ 0x114
 8102e98:	f8d3 30a4 	ldr.w	r3, [r3, #164]	@ 0xa4
 8102e9c:	f5b3 3f00 	cmp.w	r3, #131072	@ 0x20000
 8102ea0:	d022      	beq.n	8102ee8 <HAL_RCCEx_PeriphCLKConfig+0xf40>
 8102ea2:	f5b3 3f00 	cmp.w	r3, #131072	@ 0x20000
 8102ea6:	d81b      	bhi.n	8102ee0 <HAL_RCCEx_PeriphCLKConfig+0xf38>
 8102ea8:	2b00      	cmp	r3, #0
 8102eaa:	d003      	beq.n	8102eb4 <HAL_RCCEx_PeriphCLKConfig+0xf0c>
 8102eac:	f5b3 3f80 	cmp.w	r3, #65536	@ 0x10000
 8102eb0:	d00b      	beq.n	8102eca <HAL_RCCEx_PeriphCLKConfig+0xf22>
 8102eb2:	e015      	b.n	8102ee0 <HAL_RCCEx_PeriphCLKConfig+0xf38>
    {

      case RCC_ADCCLKSOURCE_PLL2: /* PLL2 is used as clock source for ADC*/

        ret = RCCEx_PLL2_Config(&(PeriphClkInit->PLL2), DIVIDER_P_UPDATE);
 8102eb4:	f8d7 3114 	ldr.w	r3, [r7, #276]	@ 0x114
 8102eb8:	3308      	adds	r3, #8
 8102eba:	2100      	movs	r1, #0
 8102ebc:	4618      	mov	r0, r3
 8102ebe:	f000 fa7d 	bl	81033bc <RCCEx_PLL2_Config>
 8102ec2:	4603      	mov	r3, r0
 8102ec4:	f887 3127 	strb.w	r3, [r7, #295]	@ 0x127

        /* ADC clock source configuration done later after clock selection check */
        break;
 8102ec8:	e00f      	b.n	8102eea <HAL_RCCEx_PeriphCLKConfig+0xf42>

      case RCC_ADCCLKSOURCE_PLL3:  /* PLL3 is used as clock source for ADC*/
        ret = RCCEx_PLL3_Config(&(PeriphClkInit->PLL3), DIVIDER_R_UPDATE);
 8102eca:	f8d7 3114 	ldr.w	r3, [r7, #276]	@ 0x114
 8102ece:	3328      	adds	r3, #40	@ 0x28
 8102ed0:	2102      	movs	r1, #2
 8102ed2:	4618      	mov	r0, r3
 8102ed4:	f000 fb24 	bl	8103520 <RCCEx_PLL3_Config>
 8102ed8:	4603      	mov	r3, r0
 8102eda:	f887 3127 	strb.w	r3, [r7, #295]	@ 0x127

        /* ADC clock source configuration done later after clock selection check */
        break;
 8102ede:	e004      	b.n	8102eea <HAL_RCCEx_PeriphCLKConfig+0xf42>
        /* HSI, HSE, or CSI oscillator is used as source of ADC clock */
        /* ADC clock source configuration done later after clock selection check */
        break;

      default:
        ret = HAL_ERROR;
 8102ee0:	2301      	movs	r3, #1
 8102ee2:	f887 3127 	strb.w	r3, [r7, #295]	@ 0x127
        break;
 8102ee6:	e000      	b.n	8102eea <HAL_RCCEx_PeriphCLKConfig+0xf42>
        break;
 8102ee8:	bf00      	nop
    }

    if (ret == HAL_OK)
 8102eea:	f897 3127 	ldrb.w	r3, [r7, #295]	@ 0x127
 8102eee:	2b00      	cmp	r3, #0
 8102ef0:	d10b      	bne.n	8102f0a <HAL_RCCEx_PeriphCLKConfig+0xf62>
    {
      /* Set the source of ADC clock*/
      __HAL_RCC_ADC_CONFIG(PeriphClkInit->AdcClockSelection);
 8102ef2:	4b4b      	ldr	r3, [pc, #300]	@ (8103020 <HAL_RCCEx_PeriphCLKConfig+0x1078>)
 8102ef4:	6d9b      	ldr	r3, [r3, #88]	@ 0x58
 8102ef6:	f423 3140 	bic.w	r1, r3, #196608	@ 0x30000
 8102efa:	f8d7 3114 	ldr.w	r3, [r7, #276]	@ 0x114
 8102efe:	f8d3 30a4 	ldr.w	r3, [r3, #164]	@ 0xa4
 8102f02:	4a47      	ldr	r2, [pc, #284]	@ (8103020 <HAL_RCCEx_PeriphCLKConfig+0x1078>)
 8102f04:	430b      	orrs	r3, r1
 8102f06:	6593      	str	r3, [r2, #88]	@ 0x58
 8102f08:	e003      	b.n	8102f12 <HAL_RCCEx_PeriphCLKConfig+0xf6a>
    }
    else
    {
      /* set overall return value */
      status = ret;
 8102f0a:	f897 3127 	ldrb.w	r3, [r7, #295]	@ 0x127
 8102f0e:	f887 3126 	strb.w	r3, [r7, #294]	@ 0x126
    }
  }

  /*------------------------------ USB Configuration -------------------------*/
  if (((PeriphClkInit->PeriphClockSelection) & RCC_PERIPHCLK_USB) == RCC_PERIPHCLK_USB)
 8102f12:	f8d7 3114 	ldr.w	r3, [r7, #276]	@ 0x114
 8102f16:	e9d3 2300 	ldrd	r2, r3, [r3]
 8102f1a:	f402 2380 	and.w	r3, r2, #262144	@ 0x40000
 8102f1e:	67bb      	str	r3, [r7, #120]	@ 0x78
 8102f20:	2300      	movs	r3, #0
 8102f22:	67fb      	str	r3, [r7, #124]	@ 0x7c
 8102f24:	e9d7 121e 	ldrd	r1, r2, [r7, #120]	@ 0x78
 8102f28:	460b      	mov	r3, r1
 8102f2a:	4313      	orrs	r3, r2
 8102f2c:	d03b      	beq.n	8102fa6 <HAL_RCCEx_PeriphCLKConfig+0xffe>
  {

    switch (PeriphClkInit->UsbClockSelection)
 8102f2e:	f8d7 3114 	ldr.w	r3, [r7, #276]	@ 0x114
 8102f32:	f8d3 3088 	ldr.w	r3, [r3, #136]	@ 0x88
 8102f36:	f5b3 1f40 	cmp.w	r3, #3145728	@ 0x300000
 8102f3a:	d01f      	beq.n	8102f7c <HAL_RCCEx_PeriphCLKConfig+0xfd4>
 8102f3c:	f5b3 1f40 	cmp.w	r3, #3145728	@ 0x300000
 8102f40:	d818      	bhi.n	8102f74 <HAL_RCCEx_PeriphCLKConfig+0xfcc>
 8102f42:	f5b3 1f80 	cmp.w	r3, #1048576	@ 0x100000
 8102f46:	d003      	beq.n	8102f50 <HAL_RCCEx_PeriphCLKConfig+0xfa8>
 8102f48:	f5b3 1f00 	cmp.w	r3, #2097152	@ 0x200000
 8102f4c:	d007      	beq.n	8102f5e <HAL_RCCEx_PeriphCLKConfig+0xfb6>
 8102f4e:	e011      	b.n	8102f74 <HAL_RCCEx_PeriphCLKConfig+0xfcc>
    {
      case RCC_USBCLKSOURCE_PLL:      /* PLL is used as clock source for USB*/
        /* Enable USB Clock output generated form System USB . */
        __HAL_RCC_PLLCLKOUT_ENABLE(RCC_PLL1_DIVQ);
 8102f50:	4b33      	ldr	r3, [pc, #204]	@ (8103020 <HAL_RCCEx_PeriphCLKConfig+0x1078>)
 8102f52:	6adb      	ldr	r3, [r3, #44]	@ 0x2c
 8102f54:	4a32      	ldr	r2, [pc, #200]	@ (8103020 <HAL_RCCEx_PeriphCLKConfig+0x1078>)
 8102f56:	f443 3300 	orr.w	r3, r3, #131072	@ 0x20000
 8102f5a:	62d3      	str	r3, [r2, #44]	@ 0x2c

        /* USB clock source configuration done later after clock selection check */
        break;
 8102f5c:	e00f      	b.n	8102f7e <HAL_RCCEx_PeriphCLKConfig+0xfd6>

      case RCC_USBCLKSOURCE_PLL3: /* PLL3 is used as clock source for USB*/

        ret = RCCEx_PLL3_Config(&(PeriphClkInit->PLL3), DIVIDER_Q_UPDATE);
 8102f5e:	f8d7 3114 	ldr.w	r3, [r7, #276]	@ 0x114
 8102f62:	3328      	adds	r3, #40	@ 0x28
 8102f64:	2101      	movs	r1, #1
 8102f66:	4618      	mov	r0, r3
 8102f68:	f000 fada 	bl	8103520 <RCCEx_PLL3_Config>
 8102f6c:	4603      	mov	r3, r0
 8102f6e:	f887 3127 	strb.w	r3, [r7, #295]	@ 0x127

        /* USB clock source configuration done later after clock selection check */
        break;
 8102f72:	e004      	b.n	8102f7e <HAL_RCCEx_PeriphCLKConfig+0xfd6>
        /* HSI48 oscillator is used as source of USB clock */
        /* USB clock source configuration done later after clock selection check */
        break;

      default:
        ret = HAL_ERROR;
 8102f74:	2301      	movs	r3, #1
 8102f76:	f887 3127 	strb.w	r3, [r7, #295]	@ 0x127
        break;
 8102f7a:	e000      	b.n	8102f7e <HAL_RCCEx_PeriphCLKConfig+0xfd6>
        break;
 8102f7c:	bf00      	nop
    }

    if (ret == HAL_OK)
 8102f7e:	f897 3127 	ldrb.w	r3, [r7, #295]	@ 0x127
 8102f82:	2b00      	cmp	r3, #0
 8102f84:	d10b      	bne.n	8102f9e <HAL_RCCEx_PeriphCLKConfig+0xff6>
    {
      /* Set the source of USB clock*/
      __HAL_RCC_USB_CONFIG(PeriphClkInit->UsbClockSelection);
 8102f86:	4b26      	ldr	r3, [pc, #152]	@ (8103020 <HAL_RCCEx_PeriphCLKConfig+0x1078>)
 8102f88:	6d5b      	ldr	r3, [r3, #84]	@ 0x54
 8102f8a:	f423 1140 	bic.w	r1, r3, #3145728	@ 0x300000
 8102f8e:	f8d7 3114 	ldr.w	r3, [r7, #276]	@ 0x114
 8102f92:	f8d3 3088 	ldr.w	r3, [r3, #136]	@ 0x88
 8102f96:	4a22      	ldr	r2, [pc, #136]	@ (8103020 <HAL_RCCEx_PeriphCLKConfig+0x1078>)
 8102f98:	430b      	orrs	r3, r1
 8102f9a:	6553      	str	r3, [r2, #84]	@ 0x54
 8102f9c:	e003      	b.n	8102fa6 <HAL_RCCEx_PeriphCLKConfig+0xffe>
    }
    else
    {
      /* set overall return value */
      status = ret;
 8102f9e:	f897 3127 	ldrb.w	r3, [r7, #295]	@ 0x127
 8102fa2:	f887 3126 	strb.w	r3, [r7, #294]	@ 0x126
    }

  }

  /*------------------------------------- SDMMC Configuration ------------------------------------*/
  if (((PeriphClkInit->PeriphClockSelection) & RCC_PERIPHCLK_SDMMC) == RCC_PERIPHCLK_SDMMC)
 8102fa6:	f8d7 3114 	ldr.w	r3, [r7, #276]	@ 0x114
 8102faa:	e9d3 2300 	ldrd	r2, r3, [r3]
 8102fae:	f402 3380 	and.w	r3, r2, #65536	@ 0x10000
 8102fb2:	673b      	str	r3, [r7, #112]	@ 0x70
 8102fb4:	2300      	movs	r3, #0
 8102fb6:	677b      	str	r3, [r7, #116]	@ 0x74
 8102fb8:	e9d7 121c 	ldrd	r1, r2, [r7, #112]	@ 0x70
 8102fbc:	460b      	mov	r3, r1
 8102fbe:	4313      	orrs	r3, r2
 8102fc0:	d034      	beq.n	810302c <HAL_RCCEx_PeriphCLKConfig+0x1084>
  {
    /* Check the parameters */
    assert_param(IS_RCC_SDMMC(PeriphClkInit->SdmmcClockSelection));

    switch (PeriphClkInit->SdmmcClockSelection)
 8102fc2:	f8d7 3114 	ldr.w	r3, [r7, #276]	@ 0x114
 8102fc6:	6d1b      	ldr	r3, [r3, #80]	@ 0x50
 8102fc8:	2b00      	cmp	r3, #0
 8102fca:	d003      	beq.n	8102fd4 <HAL_RCCEx_PeriphCLKConfig+0x102c>
 8102fcc:	f5b3 3f80 	cmp.w	r3, #65536	@ 0x10000
 8102fd0:	d007      	beq.n	8102fe2 <HAL_RCCEx_PeriphCLKConfig+0x103a>
 8102fd2:	e011      	b.n	8102ff8 <HAL_RCCEx_PeriphCLKConfig+0x1050>
    {
      case RCC_SDMMCCLKSOURCE_PLL:      /* PLL is used as clock source for SDMMC*/
        /* Enable SDMMC Clock output generated form System PLL . */
        __HAL_RCC_PLLCLKOUT_ENABLE(RCC_PLL1_DIVQ);
 8102fd4:	4b12      	ldr	r3, [pc, #72]	@ (8103020 <HAL_RCCEx_PeriphCLKConfig+0x1078>)
 8102fd6:	6adb      	ldr	r3, [r3, #44]	@ 0x2c
 8102fd8:	4a11      	ldr	r2, [pc, #68]	@ (8103020 <HAL_RCCEx_PeriphCLKConfig+0x1078>)
 8102fda:	f443 3300 	orr.w	r3, r3, #131072	@ 0x20000
 8102fde:	62d3      	str	r3, [r2, #44]	@ 0x2c

        /* SDMMC clock source configuration done later after clock selection check */
        break;
 8102fe0:	e00e      	b.n	8103000 <HAL_RCCEx_PeriphCLKConfig+0x1058>

      case RCC_SDMMCCLKSOURCE_PLL2: /* PLL2 is used as clock source for SDMMC*/

        ret = RCCEx_PLL2_Config(&(PeriphClkInit->PLL2), DIVIDER_R_UPDATE);
 8102fe2:	f8d7 3114 	ldr.w	r3, [r7, #276]	@ 0x114
 8102fe6:	3308      	adds	r3, #8
 8102fe8:	2102      	movs	r1, #2
 8102fea:	4618      	mov	r0, r3
 8102fec:	f000 f9e6 	bl	81033bc <RCCEx_PLL2_Config>
 8102ff0:	4603      	mov	r3, r0
 8102ff2:	f887 3127 	strb.w	r3, [r7, #295]	@ 0x127

        /* SDMMC clock source configuration done later after clock selection check */
        break;
 8102ff6:	e003      	b.n	8103000 <HAL_RCCEx_PeriphCLKConfig+0x1058>

      default:
        ret = HAL_ERROR;
 8102ff8:	2301      	movs	r3, #1
 8102ffa:	f887 3127 	strb.w	r3, [r7, #295]	@ 0x127
        break;
 8102ffe:	bf00      	nop
    }

    if (ret == HAL_OK)
 8103000:	f897 3127 	ldrb.w	r3, [r7, #295]	@ 0x127
 8103004:	2b00      	cmp	r3, #0
 8103006:	d10d      	bne.n	8103024 <HAL_RCCEx_PeriphCLKConfig+0x107c>
    {
      /* Set the source of SDMMC clock*/
      __HAL_RCC_SDMMC_CONFIG(PeriphClkInit->SdmmcClockSelection);
 8103008:	4b05      	ldr	r3, [pc, #20]	@ (8103020 <HAL_RCCEx_PeriphCLKConfig+0x1078>)
 810300a:	6cdb      	ldr	r3, [r3, #76]	@ 0x4c
 810300c:	f423 3180 	bic.w	r1, r3, #65536	@ 0x10000
 8103010:	f8d7 3114 	ldr.w	r3, [r7, #276]	@ 0x114
 8103014:	6d1b      	ldr	r3, [r3, #80]	@ 0x50
 8103016:	4a02      	ldr	r2, [pc, #8]	@ (8103020 <HAL_RCCEx_PeriphCLKConfig+0x1078>)
 8103018:	430b      	orrs	r3, r1
 810301a:	64d3      	str	r3, [r2, #76]	@ 0x4c
 810301c:	e006      	b.n	810302c <HAL_RCCEx_PeriphCLKConfig+0x1084>
 810301e:	bf00      	nop
 8103020:	58024400 	.word	0x58024400
    }
    else
    {
      /* set overall return value */
      status = ret;
 8103024:	f897 3127 	ldrb.w	r3, [r7, #295]	@ 0x127
 8103028:	f887 3126 	strb.w	r3, [r7, #294]	@ 0x126
    }
  }

#if defined(LTDC)
  /*-------------------------------------- LTDC Configuration -----------------------------------*/
  if (((PeriphClkInit->PeriphClockSelection) & RCC_PERIPHCLK_LTDC) == RCC_PERIPHCLK_LTDC)
 810302c:	f8d7 3114 	ldr.w	r3, [r7, #276]	@ 0x114
 8103030:	e9d3 2300 	ldrd	r2, r3, [r3]
 8103034:	f002 5300 	and.w	r3, r2, #536870912	@ 0x20000000
 8103038:	66bb      	str	r3, [r7, #104]	@ 0x68
 810303a:	2300      	movs	r3, #0
 810303c:	66fb      	str	r3, [r7, #108]	@ 0x6c
 810303e:	e9d7 121a 	ldrd	r1, r2, [r7, #104]	@ 0x68
 8103042:	460b      	mov	r3, r1
 8103044:	4313      	orrs	r3, r2
 8103046:	d00c      	beq.n	8103062 <HAL_RCCEx_PeriphCLKConfig+0x10ba>
  {
    if (RCCEx_PLL3_Config(&(PeriphClkInit->PLL3), DIVIDER_R_UPDATE) != HAL_OK)
 8103048:	f8d7 3114 	ldr.w	r3, [r7, #276]	@ 0x114
 810304c:	3328      	adds	r3, #40	@ 0x28
 810304e:	2102      	movs	r1, #2
 8103050:	4618      	mov	r0, r3
 8103052:	f000 fa65 	bl	8103520 <RCCEx_PLL3_Config>
 8103056:	4603      	mov	r3, r0
 8103058:	2b00      	cmp	r3, #0
 810305a:	d002      	beq.n	8103062 <HAL_RCCEx_PeriphCLKConfig+0x10ba>
    {
      status = HAL_ERROR;
 810305c:	2301      	movs	r3, #1
 810305e:	f887 3126 	strb.w	r3, [r7, #294]	@ 0x126
    }
  }
#endif /* LTDC */

  /*------------------------------ RNG Configuration -------------------------*/
  if (((PeriphClkInit->PeriphClockSelection) & RCC_PERIPHCLK_RNG) == RCC_PERIPHCLK_RNG)
 8103062:	f8d7 3114 	ldr.w	r3, [r7, #276]	@ 0x114
 8103066:	e9d3 2300 	ldrd	r2, r3, [r3]
 810306a:	f402 3300 	and.w	r3, r2, #131072	@ 0x20000
 810306e:	663b      	str	r3, [r7, #96]	@ 0x60
 8103070:	2300      	movs	r3, #0
 8103072:	667b      	str	r3, [r7, #100]	@ 0x64
 8103074:	e9d7 1218 	ldrd	r1, r2, [r7, #96]	@ 0x60
 8103078:	460b      	mov	r3, r1
 810307a:	4313      	orrs	r3, r2
 810307c:	d038      	beq.n	81030f0 <HAL_RCCEx_PeriphCLKConfig+0x1148>
  {

    switch (PeriphClkInit->RngClockSelection)
 810307e:	f8d7 3114 	ldr.w	r3, [r7, #276]	@ 0x114
 8103082:	f8d3 3080 	ldr.w	r3, [r3, #128]	@ 0x80
 8103086:	f5b3 7f40 	cmp.w	r3, #768	@ 0x300
 810308a:	d018      	beq.n	81030be <HAL_RCCEx_PeriphCLKConfig+0x1116>
 810308c:	f5b3 7f40 	cmp.w	r3, #768	@ 0x300
 8103090:	d811      	bhi.n	81030b6 <HAL_RCCEx_PeriphCLKConfig+0x110e>
 8103092:	f5b3 7f00 	cmp.w	r3, #512	@ 0x200
 8103096:	d014      	beq.n	81030c2 <HAL_RCCEx_PeriphCLKConfig+0x111a>
 8103098:	f5b3 7f00 	cmp.w	r3, #512	@ 0x200
 810309c:	d80b      	bhi.n	81030b6 <HAL_RCCEx_PeriphCLKConfig+0x110e>
 810309e:	2b00      	cmp	r3, #0
 81030a0:	d011      	beq.n	81030c6 <HAL_RCCEx_PeriphCLKConfig+0x111e>
 81030a2:	f5b3 7f80 	cmp.w	r3, #256	@ 0x100
 81030a6:	d106      	bne.n	81030b6 <HAL_RCCEx_PeriphCLKConfig+0x110e>
    {
      case RCC_RNGCLKSOURCE_PLL:     /* PLL is used as clock source for RNG*/
        /* Enable RNG Clock output generated form System RNG . */
        __HAL_RCC_PLLCLKOUT_ENABLE(RCC_PLL1_DIVQ);
 81030a8:	4bc3      	ldr	r3, [pc, #780]	@ (81033b8 <HAL_RCCEx_PeriphCLKConfig+0x1410>)
 81030aa:	6adb      	ldr	r3, [r3, #44]	@ 0x2c
 81030ac:	4ac2      	ldr	r2, [pc, #776]	@ (81033b8 <HAL_RCCEx_PeriphCLKConfig+0x1410>)
 81030ae:	f443 3300 	orr.w	r3, r3, #131072	@ 0x20000
 81030b2:	62d3      	str	r3, [r2, #44]	@ 0x2c

        /* RNG clock source configuration done later after clock selection check */
        break;
 81030b4:	e008      	b.n	81030c8 <HAL_RCCEx_PeriphCLKConfig+0x1120>
        /* HSI48 oscillator is used as source of RNG clock */
        /* RNG clock source configuration done later after clock selection check */
        break;

      default:
        ret = HAL_ERROR;
 81030b6:	2301      	movs	r3, #1
 81030b8:	f887 3127 	strb.w	r3, [r7, #295]	@ 0x127
        break;
 81030bc:	e004      	b.n	81030c8 <HAL_RCCEx_PeriphCLKConfig+0x1120>
        break;
 81030be:	bf00      	nop
 81030c0:	e002      	b.n	81030c8 <HAL_RCCEx_PeriphCLKConfig+0x1120>
        break;
 81030c2:	bf00      	nop
 81030c4:	e000      	b.n	81030c8 <HAL_RCCEx_PeriphCLKConfig+0x1120>
        break;
 81030c6:	bf00      	nop
    }

    if (ret == HAL_OK)
 81030c8:	f897 3127 	ldrb.w	r3, [r7, #295]	@ 0x127
 81030cc:	2b00      	cmp	r3, #0
 81030ce:	d10b      	bne.n	81030e8 <HAL_RCCEx_PeriphCLKConfig+0x1140>
    {
      /* Set the source of RNG clock*/
      __HAL_RCC_RNG_CONFIG(PeriphClkInit->RngClockSelection);
 81030d0:	4bb9      	ldr	r3, [pc, #740]	@ (81033b8 <HAL_RCCEx_PeriphCLKConfig+0x1410>)
 81030d2:	6d5b      	ldr	r3, [r3, #84]	@ 0x54
 81030d4:	f423 7140 	bic.w	r1, r3, #768	@ 0x300
 81030d8:	f8d7 3114 	ldr.w	r3, [r7, #276]	@ 0x114
 81030dc:	f8d3 3080 	ldr.w	r3, [r3, #128]	@ 0x80
 81030e0:	4ab5      	ldr	r2, [pc, #724]	@ (81033b8 <HAL_RCCEx_PeriphCLKConfig+0x1410>)
 81030e2:	430b      	orrs	r3, r1
 81030e4:	6553      	str	r3, [r2, #84]	@ 0x54
 81030e6:	e003      	b.n	81030f0 <HAL_RCCEx_PeriphCLKConfig+0x1148>
    }
    else
    {
      /* set overall return value */
      status = ret;
 81030e8:	f897 3127 	ldrb.w	r3, [r7, #295]	@ 0x127
 81030ec:	f887 3126 	strb.w	r3, [r7, #294]	@ 0x126
    }

  }

  /*------------------------------ SWPMI1 Configuration ------------------------*/
  if (((PeriphClkInit->PeriphClockSelection) & RCC_PERIPHCLK_SWPMI1) == RCC_PERIPHCLK_SWPMI1)
 81030f0:	f8d7 3114 	ldr.w	r3, [r7, #276]	@ 0x114
 81030f4:	e9d3 2300 	ldrd	r2, r3, [r3]
 81030f8:	f402 1380 	and.w	r3, r2, #1048576	@ 0x100000
 81030fc:	65bb      	str	r3, [r7, #88]	@ 0x58
 81030fe:	2300      	movs	r3, #0
 8103100:	65fb      	str	r3, [r7, #92]	@ 0x5c
 8103102:	e9d7 1216 	ldrd	r1, r2, [r7, #88]	@ 0x58
 8103106:	460b      	mov	r3, r1
 8103108:	4313      	orrs	r3, r2
 810310a:	d009      	beq.n	8103120 <HAL_RCCEx_PeriphCLKConfig+0x1178>
  {
    /* Check the parameters */
    assert_param(IS_RCC_SWPMI1CLKSOURCE(PeriphClkInit->Swpmi1ClockSelection));

    /* Configure the SWPMI1 interface clock source */
    __HAL_RCC_SWPMI1_CONFIG(PeriphClkInit->Swpmi1ClockSelection);
 810310c:	4baa      	ldr	r3, [pc, #680]	@ (81033b8 <HAL_RCCEx_PeriphCLKConfig+0x1410>)
 810310e:	6d1b      	ldr	r3, [r3, #80]	@ 0x50
 8103110:	f023 4100 	bic.w	r1, r3, #2147483648	@ 0x80000000
 8103114:	f8d7 3114 	ldr.w	r3, [r7, #276]	@ 0x114
 8103118:	6f5b      	ldr	r3, [r3, #116]	@ 0x74
 810311a:	4aa7      	ldr	r2, [pc, #668]	@ (81033b8 <HAL_RCCEx_PeriphCLKConfig+0x1410>)
 810311c:	430b      	orrs	r3, r1
 810311e:	6513      	str	r3, [r2, #80]	@ 0x50
  }
#if defined(HRTIM1)
  /*------------------------------ HRTIM1 clock Configuration ----------------*/
  if (((PeriphClkInit->PeriphClockSelection) & RCC_PERIPHCLK_HRTIM1) == RCC_PERIPHCLK_HRTIM1)
 8103120:	f8d7 3114 	ldr.w	r3, [r7, #276]	@ 0x114
 8103124:	e9d3 2300 	ldrd	r2, r3, [r3]
 8103128:	f002 5380 	and.w	r3, r2, #268435456	@ 0x10000000
 810312c:	653b      	str	r3, [r7, #80]	@ 0x50
 810312e:	2300      	movs	r3, #0
 8103130:	657b      	str	r3, [r7, #84]	@ 0x54
 8103132:	e9d7 1214 	ldrd	r1, r2, [r7, #80]	@ 0x50
 8103136:	460b      	mov	r3, r1
 8103138:	4313      	orrs	r3, r2
 810313a:	d00a      	beq.n	8103152 <HAL_RCCEx_PeriphCLKConfig+0x11aa>
  {
    /* Check the parameters */
    assert_param(IS_RCC_HRTIM1CLKSOURCE(PeriphClkInit->Hrtim1ClockSelection));

    /* Configure the HRTIM1 clock source */
    __HAL_RCC_HRTIM1_CONFIG(PeriphClkInit->Hrtim1ClockSelection);
 810313c:	4b9e      	ldr	r3, [pc, #632]	@ (81033b8 <HAL_RCCEx_PeriphCLKConfig+0x1410>)
 810313e:	691b      	ldr	r3, [r3, #16]
 8103140:	f423 4180 	bic.w	r1, r3, #16384	@ 0x4000
 8103144:	f8d7 3114 	ldr.w	r3, [r7, #276]	@ 0x114
 8103148:	f8d3 30b8 	ldr.w	r3, [r3, #184]	@ 0xb8
 810314c:	4a9a      	ldr	r2, [pc, #616]	@ (81033b8 <HAL_RCCEx_PeriphCLKConfig+0x1410>)
 810314e:	430b      	orrs	r3, r1
 8103150:	6113      	str	r3, [r2, #16]
  }
#endif  /*HRTIM1*/
  /*------------------------------ DFSDM1 Configuration ------------------------*/
  if (((PeriphClkInit->PeriphClockSelection) & RCC_PERIPHCLK_DFSDM1) == RCC_PERIPHCLK_DFSDM1)
 8103152:	f8d7 3114 	ldr.w	r3, [r7, #276]	@ 0x114
 8103156:	e9d3 2300 	ldrd	r2, r3, [r3]
 810315a:	f402 1300 	and.w	r3, r2, #2097152	@ 0x200000
 810315e:	64bb      	str	r3, [r7, #72]	@ 0x48
 8103160:	2300      	movs	r3, #0
 8103162:	64fb      	str	r3, [r7, #76]	@ 0x4c
 8103164:	e9d7 1212 	ldrd	r1, r2, [r7, #72]	@ 0x48
 8103168:	460b      	mov	r3, r1
 810316a:	4313      	orrs	r3, r2
 810316c:	d009      	beq.n	8103182 <HAL_RCCEx_PeriphCLKConfig+0x11da>
  {
    /* Check the parameters */
    assert_param(IS_RCC_DFSDM1CLKSOURCE(PeriphClkInit->Dfsdm1ClockSelection));

    /* Configure the DFSDM1 interface clock source */
    __HAL_RCC_DFSDM1_CONFIG(PeriphClkInit->Dfsdm1ClockSelection);
 810316e:	4b92      	ldr	r3, [pc, #584]	@ (81033b8 <HAL_RCCEx_PeriphCLKConfig+0x1410>)
 8103170:	6d1b      	ldr	r3, [r3, #80]	@ 0x50
 8103172:	f023 7180 	bic.w	r1, r3, #16777216	@ 0x1000000
 8103176:	f8d7 3114 	ldr.w	r3, [r7, #276]	@ 0x114
 810317a:	6edb      	ldr	r3, [r3, #108]	@ 0x6c
 810317c:	4a8e      	ldr	r2, [pc, #568]	@ (81033b8 <HAL_RCCEx_PeriphCLKConfig+0x1410>)
 810317e:	430b      	orrs	r3, r1
 8103180:	6513      	str	r3, [r2, #80]	@ 0x50
    __HAL_RCC_DFSDM2_CONFIG(PeriphClkInit->Dfsdm2ClockSelection);
  }
#endif  /* DFSDM2 */

  /*------------------------------------ TIM configuration --------------------------------------*/
  if (((PeriphClkInit->PeriphClockSelection) & RCC_PERIPHCLK_TIM) == RCC_PERIPHCLK_TIM)
 8103182:	f8d7 3114 	ldr.w	r3, [r7, #276]	@ 0x114
 8103186:	e9d3 2300 	ldrd	r2, r3, [r3]
 810318a:	f002 4380 	and.w	r3, r2, #1073741824	@ 0x40000000
 810318e:	643b      	str	r3, [r7, #64]	@ 0x40
 8103190:	2300      	movs	r3, #0
 8103192:	647b      	str	r3, [r7, #68]	@ 0x44
 8103194:	e9d7 1210 	ldrd	r1, r2, [r7, #64]	@ 0x40
 8103198:	460b      	mov	r3, r1
 810319a:	4313      	orrs	r3, r2
 810319c:	d00e      	beq.n	81031bc <HAL_RCCEx_PeriphCLKConfig+0x1214>
  {
    /* Check the parameters */
    assert_param(IS_RCC_TIMPRES(PeriphClkInit->TIMPresSelection));

    /* Configure Timer Prescaler */
    __HAL_RCC_TIMCLKPRESCALER(PeriphClkInit->TIMPresSelection);
 810319e:	4b86      	ldr	r3, [pc, #536]	@ (81033b8 <HAL_RCCEx_PeriphCLKConfig+0x1410>)
 81031a0:	691b      	ldr	r3, [r3, #16]
 81031a2:	4a85      	ldr	r2, [pc, #532]	@ (81033b8 <HAL_RCCEx_PeriphCLKConfig+0x1410>)
 81031a4:	f423 4300 	bic.w	r3, r3, #32768	@ 0x8000
 81031a8:	6113      	str	r3, [r2, #16]
 81031aa:	4b83      	ldr	r3, [pc, #524]	@ (81033b8 <HAL_RCCEx_PeriphCLKConfig+0x1410>)
 81031ac:	6919      	ldr	r1, [r3, #16]
 81031ae:	f8d7 3114 	ldr.w	r3, [r7, #276]	@ 0x114
 81031b2:	f8d3 30bc 	ldr.w	r3, [r3, #188]	@ 0xbc
 81031b6:	4a80      	ldr	r2, [pc, #512]	@ (81033b8 <HAL_RCCEx_PeriphCLKConfig+0x1410>)
 81031b8:	430b      	orrs	r3, r1
 81031ba:	6113      	str	r3, [r2, #16]
  }

  /*------------------------------------ CKPER configuration --------------------------------------*/
  if (((PeriphClkInit->PeriphClockSelection) & RCC_PERIPHCLK_CKPER) == RCC_PERIPHCLK_CKPER)
 81031bc:	f8d7 3114 	ldr.w	r3, [r7, #276]	@ 0x114
 81031c0:	e9d3 2300 	ldrd	r2, r3, [r3]
 81031c4:	f002 4300 	and.w	r3, r2, #2147483648	@ 0x80000000
 81031c8:	63bb      	str	r3, [r7, #56]	@ 0x38
 81031ca:	2300      	movs	r3, #0
 81031cc:	63fb      	str	r3, [r7, #60]	@ 0x3c
 81031ce:	e9d7 120e 	ldrd	r1, r2, [r7, #56]	@ 0x38
 81031d2:	460b      	mov	r3, r1
 81031d4:	4313      	orrs	r3, r2
 81031d6:	d009      	beq.n	81031ec <HAL_RCCEx_PeriphCLKConfig+0x1244>
  {
    /* Check the parameters */
    assert_param(IS_RCC_CLKPSOURCE(PeriphClkInit->CkperClockSelection));

    /* Configure the CKPER clock source */
    __HAL_RCC_CLKP_CONFIG(PeriphClkInit->CkperClockSelection);
 81031d8:	4b77      	ldr	r3, [pc, #476]	@ (81033b8 <HAL_RCCEx_PeriphCLKConfig+0x1410>)
 81031da:	6cdb      	ldr	r3, [r3, #76]	@ 0x4c
 81031dc:	f023 5140 	bic.w	r1, r3, #805306368	@ 0x30000000
 81031e0:	f8d7 3114 	ldr.w	r3, [r7, #276]	@ 0x114
 81031e4:	6d5b      	ldr	r3, [r3, #84]	@ 0x54
 81031e6:	4a74      	ldr	r2, [pc, #464]	@ (81033b8 <HAL_RCCEx_PeriphCLKConfig+0x1410>)
 81031e8:	430b      	orrs	r3, r1
 81031ea:	64d3      	str	r3, [r2, #76]	@ 0x4c
  }

  /*------------------------------ CEC Configuration ------------------------*/
  if (((PeriphClkInit->PeriphClockSelection) & RCC_PERIPHCLK_CEC) == RCC_PERIPHCLK_CEC)
 81031ec:	f8d7 3114 	ldr.w	r3, [r7, #276]	@ 0x114
 81031f0:	e9d3 2300 	ldrd	r2, r3, [r3]
 81031f4:	f402 0300 	and.w	r3, r2, #8388608	@ 0x800000
 81031f8:	633b      	str	r3, [r7, #48]	@ 0x30
 81031fa:	2300      	movs	r3, #0
 81031fc:	637b      	str	r3, [r7, #52]	@ 0x34
 81031fe:	e9d7 120c 	ldrd	r1, r2, [r7, #48]	@ 0x30
 8103202:	460b      	mov	r3, r1
 8103204:	4313      	orrs	r3, r2
 8103206:	d00a      	beq.n	810321e <HAL_RCCEx_PeriphCLKConfig+0x1276>
  {
    /* Check the parameters */
    assert_param(IS_RCC_CECCLKSOURCE(PeriphClkInit->CecClockSelection));

    /* Configure the CEC interface clock source */
    __HAL_RCC_CEC_CONFIG(PeriphClkInit->CecClockSelection);
 8103208:	4b6b      	ldr	r3, [pc, #428]	@ (81033b8 <HAL_RCCEx_PeriphCLKConfig+0x1410>)
 810320a:	6d5b      	ldr	r3, [r3, #84]	@ 0x54
 810320c:	f423 0140 	bic.w	r1, r3, #12582912	@ 0xc00000
 8103210:	f8d7 3114 	ldr.w	r3, [r7, #276]	@ 0x114
 8103214:	f8d3 308c 	ldr.w	r3, [r3, #140]	@ 0x8c
 8103218:	4a67      	ldr	r2, [pc, #412]	@ (81033b8 <HAL_RCCEx_PeriphCLKConfig+0x1410>)
 810321a:	430b      	orrs	r3, r1
 810321c:	6553      	str	r3, [r2, #84]	@ 0x54
  }

  /*---------------------------- PLL2 configuration -------------------------------*/
  if (((PeriphClkInit->PeriphClockSelection) & RCC_PERIPHCLK_PLL2_DIVP) == RCC_PERIPHCLK_PLL2_DIVP)
 810321e:	f8d7 3114 	ldr.w	r3, [r7, #276]	@ 0x114
 8103222:	e9d3 2300 	ldrd	r2, r3, [r3]
 8103226:	2100      	movs	r1, #0
 8103228:	62b9      	str	r1, [r7, #40]	@ 0x28
 810322a:	f003 0301 	and.w	r3, r3, #1
 810322e:	62fb      	str	r3, [r7, #44]	@ 0x2c
 8103230:	e9d7 120a 	ldrd	r1, r2, [r7, #40]	@ 0x28
 8103234:	460b      	mov	r3, r1
 8103236:	4313      	orrs	r3, r2
 8103238:	d011      	beq.n	810325e <HAL_RCCEx_PeriphCLKConfig+0x12b6>
  {
    ret = RCCEx_PLL2_Config(&(PeriphClkInit->PLL2), DIVIDER_P_UPDATE);
 810323a:	f8d7 3114 	ldr.w	r3, [r7, #276]	@ 0x114
 810323e:	3308      	adds	r3, #8
 8103240:	2100      	movs	r1, #0
 8103242:	4618      	mov	r0, r3
 8103244:	f000 f8ba 	bl	81033bc <RCCEx_PLL2_Config>
 8103248:	4603      	mov	r3, r0
 810324a:	f887 3127 	strb.w	r3, [r7, #295]	@ 0x127
    
    if (ret == HAL_OK)
 810324e:	f897 3127 	ldrb.w	r3, [r7, #295]	@ 0x127
 8103252:	2b00      	cmp	r3, #0
 8103254:	d003      	beq.n	810325e <HAL_RCCEx_PeriphCLKConfig+0x12b6>
      /*Nothing to do*/
    }
    else
    {
      /* set overall return value */
      status = ret;
 8103256:	f897 3127 	ldrb.w	r3, [r7, #295]	@ 0x127
 810325a:	f887 3126 	strb.w	r3, [r7, #294]	@ 0x126
    } 
  }
  
  
  if (((PeriphClkInit->PeriphClockSelection) & RCC_PERIPHCLK_PLL2_DIVQ) == RCC_PERIPHCLK_PLL2_DIVQ)
 810325e:	f8d7 3114 	ldr.w	r3, [r7, #276]	@ 0x114
 8103262:	e9d3 2300 	ldrd	r2, r3, [r3]
 8103266:	2100      	movs	r1, #0
 8103268:	6239      	str	r1, [r7, #32]
 810326a:	f003 0302 	and.w	r3, r3, #2
 810326e:	627b      	str	r3, [r7, #36]	@ 0x24
 8103270:	e9d7 1208 	ldrd	r1, r2, [r7, #32]
 8103274:	460b      	mov	r3, r1
 8103276:	4313      	orrs	r3, r2
 8103278:	d011      	beq.n	810329e <HAL_RCCEx_PeriphCLKConfig+0x12f6>
  {
    ret = RCCEx_PLL2_Config(&(PeriphClkInit->PLL2), DIVIDER_Q_UPDATE);
 810327a:	f8d7 3114 	ldr.w	r3, [r7, #276]	@ 0x114
 810327e:	3308      	adds	r3, #8
 8103280:	2101      	movs	r1, #1
 8103282:	4618      	mov	r0, r3
 8103284:	f000 f89a 	bl	81033bc <RCCEx_PLL2_Config>
 8103288:	4603      	mov	r3, r0
 810328a:	f887 3127 	strb.w	r3, [r7, #295]	@ 0x127
    
    if (ret == HAL_OK)
 810328e:	f897 3127 	ldrb.w	r3, [r7, #295]	@ 0x127
 8103292:	2b00      	cmp	r3, #0
 8103294:	d003      	beq.n	810329e <HAL_RCCEx_PeriphCLKConfig+0x12f6>
      /*Nothing to do*/
    }
    else
    {
      /* set overall return value */
      status = ret;
 8103296:	f897 3127 	ldrb.w	r3, [r7, #295]	@ 0x127
 810329a:	f887 3126 	strb.w	r3, [r7, #294]	@ 0x126
    }
  }
  
  
  if (((PeriphClkInit->PeriphClockSelection) & RCC_PERIPHCLK_PLL2_DIVR) == RCC_PERIPHCLK_PLL2_DIVR)
 810329e:	f8d7 3114 	ldr.w	r3, [r7, #276]	@ 0x114
 81032a2:	e9d3 2300 	ldrd	r2, r3, [r3]
 81032a6:	2100      	movs	r1, #0
 81032a8:	61b9      	str	r1, [r7, #24]
 81032aa:	f003 0304 	and.w	r3, r3, #4
 81032ae:	61fb      	str	r3, [r7, #28]
 81032b0:	e9d7 1206 	ldrd	r1, r2, [r7, #24]
 81032b4:	460b      	mov	r3, r1
 81032b6:	4313      	orrs	r3, r2
 81032b8:	d011      	beq.n	81032de <HAL_RCCEx_PeriphCLKConfig+0x1336>
  {
    ret = RCCEx_PLL2_Config(&(PeriphClkInit->PLL2), DIVIDER_R_UPDATE);
 81032ba:	f8d7 3114 	ldr.w	r3, [r7, #276]	@ 0x114
 81032be:	3308      	adds	r3, #8
 81032c0:	2102      	movs	r1, #2
 81032c2:	4618      	mov	r0, r3
 81032c4:	f000 f87a 	bl	81033bc <RCCEx_PLL2_Config>
 81032c8:	4603      	mov	r3, r0
 81032ca:	f887 3127 	strb.w	r3, [r7, #295]	@ 0x127
    
    if (ret == HAL_OK)
 81032ce:	f897 3127 	ldrb.w	r3, [r7, #295]	@ 0x127
 81032d2:	2b00      	cmp	r3, #0
 81032d4:	d003      	beq.n	81032de <HAL_RCCEx_PeriphCLKConfig+0x1336>
      /*Nothing to do*/
    }
    else
    {
      /* set overall return value */
      status = ret;
 81032d6:	f897 3127 	ldrb.w	r3, [r7, #295]	@ 0x127
 81032da:	f887 3126 	strb.w	r3, [r7, #294]	@ 0x126
    }
  }
  

  /*---------------------------- PLL3 configuration -------------------------------*/
  if (((PeriphClkInit->PeriphClockSelection) & RCC_PERIPHCLK_PLL3_DIVP) == RCC_PERIPHCLK_PLL3_DIVP)
 81032de:	f8d7 3114 	ldr.w	r3, [r7, #276]	@ 0x114
 81032e2:	e9d3 2300 	ldrd	r2, r3, [r3]
 81032e6:	2100      	movs	r1, #0
 81032e8:	6139      	str	r1, [r7, #16]
 81032ea:	f003 0308 	and.w	r3, r3, #8
 81032ee:	617b      	str	r3, [r7, #20]
 81032f0:	e9d7 1204 	ldrd	r1, r2, [r7, #16]
 81032f4:	460b      	mov	r3, r1
 81032f6:	4313      	orrs	r3, r2
 81032f8:	d011      	beq.n	810331e <HAL_RCCEx_PeriphCLKConfig+0x1376>
  {
    ret = RCCEx_PLL3_Config(&(PeriphClkInit->PLL3), DIVIDER_P_UPDATE);
 81032fa:	f8d7 3114 	ldr.w	r3, [r7, #276]	@ 0x114
 81032fe:	3328      	adds	r3, #40	@ 0x28
 8103300:	2100      	movs	r1, #0
 8103302:	4618      	mov	r0, r3
 8103304:	f000 f90c 	bl	8103520 <RCCEx_PLL3_Config>
 8103308:	4603      	mov	r3, r0
 810330a:	f887 3127 	strb.w	r3, [r7, #295]	@ 0x127
  
    if (ret == HAL_OK)
 810330e:	f897 3127 	ldrb.w	r3, [r7, #295]	@ 0x127
 8103312:	2b00      	cmp	r3, #0
 8103314:	d003      	beq.n	810331e <HAL_RCCEx_PeriphCLKConfig+0x1376>
      /*Nothing to do*/
    }
    else
    {
      /* set overall return value */
      status = ret;
 8103316:	f897 3127 	ldrb.w	r3, [r7, #295]	@ 0x127
 810331a:	f887 3126 	strb.w	r3, [r7, #294]	@ 0x126
    }
  }
  
  
  if (((PeriphClkInit->PeriphClockSelection) & RCC_PERIPHCLK_PLL3_DIVQ) == RCC_PERIPHCLK_PLL3_DIVQ)
 810331e:	f8d7 3114 	ldr.w	r3, [r7, #276]	@ 0x114
 8103322:	e9d3 2300 	ldrd	r2, r3, [r3]
 8103326:	2100      	movs	r1, #0
 8103328:	60b9      	str	r1, [r7, #8]
 810332a:	f003 0310 	and.w	r3, r3, #16
 810332e:	60fb      	str	r3, [r7, #12]
 8103330:	e9d7 1202 	ldrd	r1, r2, [r7, #8]
 8103334:	460b      	mov	r3, r1
 8103336:	4313      	orrs	r3, r2
 8103338:	d011      	beq.n	810335e <HAL_RCCEx_PeriphCLKConfig+0x13b6>
  {
    ret = RCCEx_PLL3_Config(&(PeriphClkInit->PLL3), DIVIDER_Q_UPDATE);
 810333a:	f8d7 3114 	ldr.w	r3, [r7, #276]	@ 0x114
 810333e:	3328      	adds	r3, #40	@ 0x28
 8103340:	2101      	movs	r1, #1
 8103342:	4618      	mov	r0, r3
 8103344:	f000 f8ec 	bl	8103520 <RCCEx_PLL3_Config>
 8103348:	4603      	mov	r3, r0
 810334a:	f887 3127 	strb.w	r3, [r7, #295]	@ 0x127
    
    if (ret == HAL_OK)
 810334e:	f897 3127 	ldrb.w	r3, [r7, #295]	@ 0x127
 8103352:	2b00      	cmp	r3, #0
 8103354:	d003      	beq.n	810335e <HAL_RCCEx_PeriphCLKConfig+0x13b6>
      /*Nothing to do*/
    }
    else
    {
      /* set overall return value */
      status = ret;
 8103356:	f897 3127 	ldrb.w	r3, [r7, #295]	@ 0x127
 810335a:	f887 3126 	strb.w	r3, [r7, #294]	@ 0x126
    }
  }
  
  
  if (((PeriphClkInit->PeriphClockSelection) & RCC_PERIPHCLK_PLL3_DIVR) == RCC_PERIPHCLK_PLL3_DIVR)
 810335e:	f8d7 3114 	ldr.w	r3, [r7, #276]	@ 0x114
 8103362:	e9d3 2300 	ldrd	r2, r3, [r3]
 8103366:	2100      	movs	r1, #0
 8103368:	6039      	str	r1, [r7, #0]
 810336a:	f003 0320 	and.w	r3, r3, #32
 810336e:	607b      	str	r3, [r7, #4]
 8103370:	e9d7 1200 	ldrd	r1, r2, [r7]
 8103374:	460b      	mov	r3, r1
 8103376:	4313      	orrs	r3, r2
 8103378:	d011      	beq.n	810339e <HAL_RCCEx_PeriphCLKConfig+0x13f6>
  {
    ret = RCCEx_PLL3_Config(&(PeriphClkInit->PLL3), DIVIDER_R_UPDATE);
 810337a:	f8d7 3114 	ldr.w	r3, [r7, #276]	@ 0x114
 810337e:	3328      	adds	r3, #40	@ 0x28
 8103380:	2102      	movs	r1, #2
 8103382:	4618      	mov	r0, r3
 8103384:	f000 f8cc 	bl	8103520 <RCCEx_PLL3_Config>
 8103388:	4603      	mov	r3, r0
 810338a:	f887 3127 	strb.w	r3, [r7, #295]	@ 0x127
    
    if (ret == HAL_OK)
 810338e:	f897 3127 	ldrb.w	r3, [r7, #295]	@ 0x127
 8103392:	2b00      	cmp	r3, #0
 8103394:	d003      	beq.n	810339e <HAL_RCCEx_PeriphCLKConfig+0x13f6>
      /*Nothing to do*/
    }
    else
    {
      /* set overall return value */
      status = ret;
 8103396:	f897 3127 	ldrb.w	r3, [r7, #295]	@ 0x127
 810339a:	f887 3126 	strb.w	r3, [r7, #294]	@ 0x126
    } 
  }

  if (status == HAL_OK)
 810339e:	f897 3126 	ldrb.w	r3, [r7, #294]	@ 0x126
 81033a2:	2b00      	cmp	r3, #0
 81033a4:	d101      	bne.n	81033aa <HAL_RCCEx_PeriphCLKConfig+0x1402>
  {
    return HAL_OK;
 81033a6:	2300      	movs	r3, #0
 81033a8:	e000      	b.n	81033ac <HAL_RCCEx_PeriphCLKConfig+0x1404>
  }
  return HAL_ERROR;
 81033aa:	2301      	movs	r3, #1
}
 81033ac:	4618      	mov	r0, r3
 81033ae:	f507 7794 	add.w	r7, r7, #296	@ 0x128
 81033b2:	46bd      	mov	sp, r7
 81033b4:	e8bd 8fb0 	ldmia.w	sp!, {r4, r5, r7, r8, r9, sl, fp, pc}
 81033b8:	58024400 	.word	0x58024400

081033bc <RCCEx_PLL2_Config>:
  * @note   PLL2 is temporary disabled to apply new parameters
  *
  * @retval HAL status
  */
static HAL_StatusTypeDef RCCEx_PLL2_Config(RCC_PLL2InitTypeDef *pll2, uint32_t Divider)
{
 81033bc:	b580      	push	{r7, lr}
 81033be:	b084      	sub	sp, #16
 81033c0:	af00      	add	r7, sp, #0
 81033c2:	6078      	str	r0, [r7, #4]
 81033c4:	6039      	str	r1, [r7, #0]

  uint32_t tickstart;
  HAL_StatusTypeDef status = HAL_OK;
 81033c6:	2300      	movs	r3, #0
 81033c8:	73fb      	strb	r3, [r7, #15]
  assert_param(IS_RCC_PLL2RGE_VALUE(pll2->PLL2RGE));
  assert_param(IS_RCC_PLL2VCO_VALUE(pll2->PLL2VCOSEL));
  assert_param(IS_RCC_PLLFRACN_VALUE(pll2->PLL2FRACN));

  /* Check that PLL2 OSC clock source is already set */
  if (__HAL_RCC_GET_PLL_OSCSOURCE() == RCC_PLLSOURCE_NONE)
 81033ca:	4b54      	ldr	r3, [pc, #336]	@ (810351c <RCCEx_PLL2_Config+0x160>)
 81033cc:	6a9b      	ldr	r3, [r3, #40]	@ 0x28
 81033ce:	f003 0303 	and.w	r3, r3, #3
 81033d2:	2b03      	cmp	r3, #3
 81033d4:	d101      	bne.n	81033da <RCCEx_PLL2_Config+0x1e>
  {
    return HAL_ERROR;
 81033d6:	2301      	movs	r3, #1
 81033d8:	e09b      	b.n	8103512 <RCCEx_PLL2_Config+0x156>


  else
  {
    /* Disable  PLL2. */
    __HAL_RCC_PLL2_DISABLE();
 81033da:	4b50      	ldr	r3, [pc, #320]	@ (810351c <RCCEx_PLL2_Config+0x160>)
 81033dc:	681b      	ldr	r3, [r3, #0]
 81033de:	4a4f      	ldr	r2, [pc, #316]	@ (810351c <RCCEx_PLL2_Config+0x160>)
 81033e0:	f023 6380 	bic.w	r3, r3, #67108864	@ 0x4000000
 81033e4:	6013      	str	r3, [r2, #0]

    /* Get Start Tick*/
    tickstart = HAL_GetTick();
 81033e6:	f7fe f8bf 	bl	8101568 <HAL_GetTick>
 81033ea:	60b8      	str	r0, [r7, #8]

    /* Wait till PLL is disabled */
    while (__HAL_RCC_GET_FLAG(RCC_FLAG_PLL2RDY) != 0U)
 81033ec:	e008      	b.n	8103400 <RCCEx_PLL2_Config+0x44>
    {
      if ((HAL_GetTick() - tickstart) > PLL2_TIMEOUT_VALUE)
 81033ee:	f7fe f8bb 	bl	8101568 <HAL_GetTick>
 81033f2:	4602      	mov	r2, r0
 81033f4:	68bb      	ldr	r3, [r7, #8]
 81033f6:	1ad3      	subs	r3, r2, r3
 81033f8:	2b02      	cmp	r3, #2
 81033fa:	d901      	bls.n	8103400 <RCCEx_PLL2_Config+0x44>
      {
        return HAL_TIMEOUT;
 81033fc:	2303      	movs	r3, #3
 81033fe:	e088      	b.n	8103512 <RCCEx_PLL2_Config+0x156>
    while (__HAL_RCC_GET_FLAG(RCC_FLAG_PLL2RDY) != 0U)
 8103400:	4b46      	ldr	r3, [pc, #280]	@ (810351c <RCCEx_PLL2_Config+0x160>)
 8103402:	681b      	ldr	r3, [r3, #0]
 8103404:	f003 6300 	and.w	r3, r3, #134217728	@ 0x8000000
 8103408:	2b00      	cmp	r3, #0
 810340a:	d1f0      	bne.n	81033ee <RCCEx_PLL2_Config+0x32>
      }
    }

    /* Configure PLL2 multiplication and division factors. */
    __HAL_RCC_PLL2_CONFIG(pll2->PLL2M,
 810340c:	4b43      	ldr	r3, [pc, #268]	@ (810351c <RCCEx_PLL2_Config+0x160>)
 810340e:	6a9b      	ldr	r3, [r3, #40]	@ 0x28
 8103410:	f423 327c 	bic.w	r2, r3, #258048	@ 0x3f000
 8103414:	687b      	ldr	r3, [r7, #4]
 8103416:	681b      	ldr	r3, [r3, #0]
 8103418:	031b      	lsls	r3, r3, #12
 810341a:	4940      	ldr	r1, [pc, #256]	@ (810351c <RCCEx_PLL2_Config+0x160>)
 810341c:	4313      	orrs	r3, r2
 810341e:	628b      	str	r3, [r1, #40]	@ 0x28
 8103420:	687b      	ldr	r3, [r7, #4]
 8103422:	685b      	ldr	r3, [r3, #4]
 8103424:	3b01      	subs	r3, #1
 8103426:	f3c3 0208 	ubfx	r2, r3, #0, #9
 810342a:	687b      	ldr	r3, [r7, #4]
 810342c:	689b      	ldr	r3, [r3, #8]
 810342e:	3b01      	subs	r3, #1
 8103430:	025b      	lsls	r3, r3, #9
 8103432:	b29b      	uxth	r3, r3
 8103434:	431a      	orrs	r2, r3
 8103436:	687b      	ldr	r3, [r7, #4]
 8103438:	68db      	ldr	r3, [r3, #12]
 810343a:	3b01      	subs	r3, #1
 810343c:	041b      	lsls	r3, r3, #16
 810343e:	f403 03fe 	and.w	r3, r3, #8323072	@ 0x7f0000
 8103442:	431a      	orrs	r2, r3
 8103444:	687b      	ldr	r3, [r7, #4]
 8103446:	691b      	ldr	r3, [r3, #16]
 8103448:	3b01      	subs	r3, #1
 810344a:	061b      	lsls	r3, r3, #24
 810344c:	f003 43fe 	and.w	r3, r3, #2130706432	@ 0x7f000000
 8103450:	4932      	ldr	r1, [pc, #200]	@ (810351c <RCCEx_PLL2_Config+0x160>)
 8103452:	4313      	orrs	r3, r2
 8103454:	638b      	str	r3, [r1, #56]	@ 0x38
                          pll2->PLL2P,
                          pll2->PLL2Q,
                          pll2->PLL2R);

    /* Select PLL2 input reference frequency range: VCI */
    __HAL_RCC_PLL2_VCIRANGE(pll2->PLL2RGE) ;
 8103456:	4b31      	ldr	r3, [pc, #196]	@ (810351c <RCCEx_PLL2_Config+0x160>)
 8103458:	6adb      	ldr	r3, [r3, #44]	@ 0x2c
 810345a:	f023 02c0 	bic.w	r2, r3, #192	@ 0xc0
 810345e:	687b      	ldr	r3, [r7, #4]
 8103460:	695b      	ldr	r3, [r3, #20]
 8103462:	492e      	ldr	r1, [pc, #184]	@ (810351c <RCCEx_PLL2_Config+0x160>)
 8103464:	4313      	orrs	r3, r2
 8103466:	62cb      	str	r3, [r1, #44]	@ 0x2c

    /* Select PLL2 output frequency range : VCO */
    __HAL_RCC_PLL2_VCORANGE(pll2->PLL2VCOSEL) ;
 8103468:	4b2c      	ldr	r3, [pc, #176]	@ (810351c <RCCEx_PLL2_Config+0x160>)
 810346a:	6adb      	ldr	r3, [r3, #44]	@ 0x2c
 810346c:	f023 0220 	bic.w	r2, r3, #32
 8103470:	687b      	ldr	r3, [r7, #4]
 8103472:	699b      	ldr	r3, [r3, #24]
 8103474:	4929      	ldr	r1, [pc, #164]	@ (810351c <RCCEx_PLL2_Config+0x160>)
 8103476:	4313      	orrs	r3, r2
 8103478:	62cb      	str	r3, [r1, #44]	@ 0x2c

    /* Disable PLL2FRACN . */
    __HAL_RCC_PLL2FRACN_DISABLE();
 810347a:	4b28      	ldr	r3, [pc, #160]	@ (810351c <RCCEx_PLL2_Config+0x160>)
 810347c:	6adb      	ldr	r3, [r3, #44]	@ 0x2c
 810347e:	4a27      	ldr	r2, [pc, #156]	@ (810351c <RCCEx_PLL2_Config+0x160>)
 8103480:	f023 0310 	bic.w	r3, r3, #16
 8103484:	62d3      	str	r3, [r2, #44]	@ 0x2c

    /* Configures PLL2 clock Fractional Part Of The Multiplication Factor */
    __HAL_RCC_PLL2FRACN_CONFIG(pll2->PLL2FRACN);
 8103486:	4b25      	ldr	r3, [pc, #148]	@ (810351c <RCCEx_PLL2_Config+0x160>)
 8103488:	6bdb      	ldr	r3, [r3, #60]	@ 0x3c
 810348a:	f423 437f 	bic.w	r3, r3, #65280	@ 0xff00
 810348e:	f023 03f8 	bic.w	r3, r3, #248	@ 0xf8
 8103492:	687a      	ldr	r2, [r7, #4]
 8103494:	69d2      	ldr	r2, [r2, #28]
 8103496:	00d2      	lsls	r2, r2, #3
 8103498:	4920      	ldr	r1, [pc, #128]	@ (810351c <RCCEx_PLL2_Config+0x160>)
 810349a:	4313      	orrs	r3, r2
 810349c:	63cb      	str	r3, [r1, #60]	@ 0x3c

    /* Enable PLL2FRACN . */
    __HAL_RCC_PLL2FRACN_ENABLE();
 810349e:	4b1f      	ldr	r3, [pc, #124]	@ (810351c <RCCEx_PLL2_Config+0x160>)
 81034a0:	6adb      	ldr	r3, [r3, #44]	@ 0x2c
 81034a2:	4a1e      	ldr	r2, [pc, #120]	@ (810351c <RCCEx_PLL2_Config+0x160>)
 81034a4:	f043 0310 	orr.w	r3, r3, #16
 81034a8:	62d3      	str	r3, [r2, #44]	@ 0x2c

    /* Enable the PLL2 clock output */
    if (Divider == DIVIDER_P_UPDATE)
 81034aa:	683b      	ldr	r3, [r7, #0]
 81034ac:	2b00      	cmp	r3, #0
 81034ae:	d106      	bne.n	81034be <RCCEx_PLL2_Config+0x102>
    {
      __HAL_RCC_PLL2CLKOUT_ENABLE(RCC_PLL2_DIVP);
 81034b0:	4b1a      	ldr	r3, [pc, #104]	@ (810351c <RCCEx_PLL2_Config+0x160>)
 81034b2:	6adb      	ldr	r3, [r3, #44]	@ 0x2c
 81034b4:	4a19      	ldr	r2, [pc, #100]	@ (810351c <RCCEx_PLL2_Config+0x160>)
 81034b6:	f443 2300 	orr.w	r3, r3, #524288	@ 0x80000
 81034ba:	62d3      	str	r3, [r2, #44]	@ 0x2c
 81034bc:	e00f      	b.n	81034de <RCCEx_PLL2_Config+0x122>
    }
    else if (Divider == DIVIDER_Q_UPDATE)
 81034be:	683b      	ldr	r3, [r7, #0]
 81034c0:	2b01      	cmp	r3, #1
 81034c2:	d106      	bne.n	81034d2 <RCCEx_PLL2_Config+0x116>
    {
      __HAL_RCC_PLL2CLKOUT_ENABLE(RCC_PLL2_DIVQ);
 81034c4:	4b15      	ldr	r3, [pc, #84]	@ (810351c <RCCEx_PLL2_Config+0x160>)
 81034c6:	6adb      	ldr	r3, [r3, #44]	@ 0x2c
 81034c8:	4a14      	ldr	r2, [pc, #80]	@ (810351c <RCCEx_PLL2_Config+0x160>)
 81034ca:	f443 1380 	orr.w	r3, r3, #1048576	@ 0x100000
 81034ce:	62d3      	str	r3, [r2, #44]	@ 0x2c
 81034d0:	e005      	b.n	81034de <RCCEx_PLL2_Config+0x122>
    }
    else
    {
      __HAL_RCC_PLL2CLKOUT_ENABLE(RCC_PLL2_DIVR);
 81034d2:	4b12      	ldr	r3, [pc, #72]	@ (810351c <RCCEx_PLL2_Config+0x160>)
 81034d4:	6adb      	ldr	r3, [r3, #44]	@ 0x2c
 81034d6:	4a11      	ldr	r2, [pc, #68]	@ (810351c <RCCEx_PLL2_Config+0x160>)
 81034d8:	f443 1300 	orr.w	r3, r3, #2097152	@ 0x200000
 81034dc:	62d3      	str	r3, [r2, #44]	@ 0x2c
    }

    /* Enable  PLL2. */
    __HAL_RCC_PLL2_ENABLE();
 81034de:	4b0f      	ldr	r3, [pc, #60]	@ (810351c <RCCEx_PLL2_Config+0x160>)
 81034e0:	681b      	ldr	r3, [r3, #0]
 81034e2:	4a0e      	ldr	r2, [pc, #56]	@ (810351c <RCCEx_PLL2_Config+0x160>)
 81034e4:	f043 6380 	orr.w	r3, r3, #67108864	@ 0x4000000
 81034e8:	6013      	str	r3, [r2, #0]

    /* Get Start Tick*/
    tickstart = HAL_GetTick();
 81034ea:	f7fe f83d 	bl	8101568 <HAL_GetTick>
 81034ee:	60b8      	str	r0, [r7, #8]

    /* Wait till PLL2 is ready */
    while (__HAL_RCC_GET_FLAG(RCC_FLAG_PLL2RDY) == 0U)
 81034f0:	e008      	b.n	8103504 <RCCEx_PLL2_Config+0x148>
    {
      if ((HAL_GetTick() - tickstart) > PLL2_TIMEOUT_VALUE)
 81034f2:	f7fe f839 	bl	8101568 <HAL_GetTick>
 81034f6:	4602      	mov	r2, r0
 81034f8:	68bb      	ldr	r3, [r7, #8]
 81034fa:	1ad3      	subs	r3, r2, r3
 81034fc:	2b02      	cmp	r3, #2
 81034fe:	d901      	bls.n	8103504 <RCCEx_PLL2_Config+0x148>
      {
        return HAL_TIMEOUT;
 8103500:	2303      	movs	r3, #3
 8103502:	e006      	b.n	8103512 <RCCEx_PLL2_Config+0x156>
    while (__HAL_RCC_GET_FLAG(RCC_FLAG_PLL2RDY) == 0U)
 8103504:	4b05      	ldr	r3, [pc, #20]	@ (810351c <RCCEx_PLL2_Config+0x160>)
 8103506:	681b      	ldr	r3, [r3, #0]
 8103508:	f003 6300 	and.w	r3, r3, #134217728	@ 0x8000000
 810350c:	2b00      	cmp	r3, #0
 810350e:	d0f0      	beq.n	81034f2 <RCCEx_PLL2_Config+0x136>
    }

  }


  return status;
 8103510:	7bfb      	ldrb	r3, [r7, #15]
}
 8103512:	4618      	mov	r0, r3
 8103514:	3710      	adds	r7, #16
 8103516:	46bd      	mov	sp, r7
 8103518:	bd80      	pop	{r7, pc}
 810351a:	bf00      	nop
 810351c:	58024400 	.word	0x58024400

08103520 <RCCEx_PLL3_Config>:
  * @note   PLL3 is temporary disabled to apply new parameters
  *
  * @retval HAL status
  */
static HAL_StatusTypeDef RCCEx_PLL3_Config(RCC_PLL3InitTypeDef *pll3, uint32_t Divider)
{
 8103520:	b580      	push	{r7, lr}
 8103522:	b084      	sub	sp, #16
 8103524:	af00      	add	r7, sp, #0
 8103526:	6078      	str	r0, [r7, #4]
 8103528:	6039      	str	r1, [r7, #0]
  uint32_t tickstart;
  HAL_StatusTypeDef status = HAL_OK;
 810352a:	2300      	movs	r3, #0
 810352c:	73fb      	strb	r3, [r7, #15]
  assert_param(IS_RCC_PLL3RGE_VALUE(pll3->PLL3RGE));
  assert_param(IS_RCC_PLL3VCO_VALUE(pll3->PLL3VCOSEL));
  assert_param(IS_RCC_PLLFRACN_VALUE(pll3->PLL3FRACN));

  /* Check that PLL3 OSC clock source is already set */
  if (__HAL_RCC_GET_PLL_OSCSOURCE() == RCC_PLLSOURCE_NONE)
 810352e:	4b54      	ldr	r3, [pc, #336]	@ (8103680 <RCCEx_PLL3_Config+0x160>)
 8103530:	6a9b      	ldr	r3, [r3, #40]	@ 0x28
 8103532:	f003 0303 	and.w	r3, r3, #3
 8103536:	2b03      	cmp	r3, #3
 8103538:	d101      	bne.n	810353e <RCCEx_PLL3_Config+0x1e>
  {
    return HAL_ERROR;
 810353a:	2301      	movs	r3, #1
 810353c:	e09b      	b.n	8103676 <RCCEx_PLL3_Config+0x156>


  else
  {
    /* Disable  PLL3. */
    __HAL_RCC_PLL3_DISABLE();
 810353e:	4b50      	ldr	r3, [pc, #320]	@ (8103680 <RCCEx_PLL3_Config+0x160>)
 8103540:	681b      	ldr	r3, [r3, #0]
 8103542:	4a4f      	ldr	r2, [pc, #316]	@ (8103680 <RCCEx_PLL3_Config+0x160>)
 8103544:	f023 5380 	bic.w	r3, r3, #268435456	@ 0x10000000
 8103548:	6013      	str	r3, [r2, #0]

    /* Get Start Tick*/
    tickstart = HAL_GetTick();
 810354a:	f7fe f80d 	bl	8101568 <HAL_GetTick>
 810354e:	60b8      	str	r0, [r7, #8]
    /* Wait till PLL3 is ready */
    while (__HAL_RCC_GET_FLAG(RCC_FLAG_PLL3RDY) != 0U)
 8103550:	e008      	b.n	8103564 <RCCEx_PLL3_Config+0x44>
    {
      if ((HAL_GetTick() - tickstart) > PLL3_TIMEOUT_VALUE)
 8103552:	f7fe f809 	bl	8101568 <HAL_GetTick>
 8103556:	4602      	mov	r2, r0
 8103558:	68bb      	ldr	r3, [r7, #8]
 810355a:	1ad3      	subs	r3, r2, r3
 810355c:	2b02      	cmp	r3, #2
 810355e:	d901      	bls.n	8103564 <RCCEx_PLL3_Config+0x44>
      {
        return HAL_TIMEOUT;
 8103560:	2303      	movs	r3, #3
 8103562:	e088      	b.n	8103676 <RCCEx_PLL3_Config+0x156>
    while (__HAL_RCC_GET_FLAG(RCC_FLAG_PLL3RDY) != 0U)
 8103564:	4b46      	ldr	r3, [pc, #280]	@ (8103680 <RCCEx_PLL3_Config+0x160>)
 8103566:	681b      	ldr	r3, [r3, #0]
 8103568:	f003 5300 	and.w	r3, r3, #536870912	@ 0x20000000
 810356c:	2b00      	cmp	r3, #0
 810356e:	d1f0      	bne.n	8103552 <RCCEx_PLL3_Config+0x32>
      }
    }

    /* Configure the PLL3  multiplication and division factors. */
    __HAL_RCC_PLL3_CONFIG(pll3->PLL3M,
 8103570:	4b43      	ldr	r3, [pc, #268]	@ (8103680 <RCCEx_PLL3_Config+0x160>)
 8103572:	6a9b      	ldr	r3, [r3, #40]	@ 0x28
 8103574:	f023 727c 	bic.w	r2, r3, #66060288	@ 0x3f00000
 8103578:	687b      	ldr	r3, [r7, #4]
 810357a:	681b      	ldr	r3, [r3, #0]
 810357c:	051b      	lsls	r3, r3, #20
 810357e:	4940      	ldr	r1, [pc, #256]	@ (8103680 <RCCEx_PLL3_Config+0x160>)
 8103580:	4313      	orrs	r3, r2
 8103582:	628b      	str	r3, [r1, #40]	@ 0x28
 8103584:	687b      	ldr	r3, [r7, #4]
 8103586:	685b      	ldr	r3, [r3, #4]
 8103588:	3b01      	subs	r3, #1
 810358a:	f3c3 0208 	ubfx	r2, r3, #0, #9
 810358e:	687b      	ldr	r3, [r7, #4]
 8103590:	689b      	ldr	r3, [r3, #8]
 8103592:	3b01      	subs	r3, #1
 8103594:	025b      	lsls	r3, r3, #9
 8103596:	b29b      	uxth	r3, r3
 8103598:	431a      	orrs	r2, r3
 810359a:	687b      	ldr	r3, [r7, #4]
 810359c:	68db      	ldr	r3, [r3, #12]
 810359e:	3b01      	subs	r3, #1
 81035a0:	041b      	lsls	r3, r3, #16
 81035a2:	f403 03fe 	and.w	r3, r3, #8323072	@ 0x7f0000
 81035a6:	431a      	orrs	r2, r3
 81035a8:	687b      	ldr	r3, [r7, #4]
 81035aa:	691b      	ldr	r3, [r3, #16]
 81035ac:	3b01      	subs	r3, #1
 81035ae:	061b      	lsls	r3, r3, #24
 81035b0:	f003 43fe 	and.w	r3, r3, #2130706432	@ 0x7f000000
 81035b4:	4932      	ldr	r1, [pc, #200]	@ (8103680 <RCCEx_PLL3_Config+0x160>)
 81035b6:	4313      	orrs	r3, r2
 81035b8:	640b      	str	r3, [r1, #64]	@ 0x40
                          pll3->PLL3P,
                          pll3->PLL3Q,
                          pll3->PLL3R);

    /* Select PLL3 input reference frequency range: VCI */
    __HAL_RCC_PLL3_VCIRANGE(pll3->PLL3RGE) ;
 81035ba:	4b31      	ldr	r3, [pc, #196]	@ (8103680 <RCCEx_PLL3_Config+0x160>)
 81035bc:	6adb      	ldr	r3, [r3, #44]	@ 0x2c
 81035be:	f423 6240 	bic.w	r2, r3, #3072	@ 0xc00
 81035c2:	687b      	ldr	r3, [r7, #4]
 81035c4:	695b      	ldr	r3, [r3, #20]
 81035c6:	492e      	ldr	r1, [pc, #184]	@ (8103680 <RCCEx_PLL3_Config+0x160>)
 81035c8:	4313      	orrs	r3, r2
 81035ca:	62cb      	str	r3, [r1, #44]	@ 0x2c

    /* Select PLL3 output frequency range : VCO */
    __HAL_RCC_PLL3_VCORANGE(pll3->PLL3VCOSEL) ;
 81035cc:	4b2c      	ldr	r3, [pc, #176]	@ (8103680 <RCCEx_PLL3_Config+0x160>)
 81035ce:	6adb      	ldr	r3, [r3, #44]	@ 0x2c
 81035d0:	f423 7200 	bic.w	r2, r3, #512	@ 0x200
 81035d4:	687b      	ldr	r3, [r7, #4]
 81035d6:	699b      	ldr	r3, [r3, #24]
 81035d8:	4929      	ldr	r1, [pc, #164]	@ (8103680 <RCCEx_PLL3_Config+0x160>)
 81035da:	4313      	orrs	r3, r2
 81035dc:	62cb      	str	r3, [r1, #44]	@ 0x2c

    /* Disable PLL3FRACN . */
    __HAL_RCC_PLL3FRACN_DISABLE();
 81035de:	4b28      	ldr	r3, [pc, #160]	@ (8103680 <RCCEx_PLL3_Config+0x160>)
 81035e0:	6adb      	ldr	r3, [r3, #44]	@ 0x2c
 81035e2:	4a27      	ldr	r2, [pc, #156]	@ (8103680 <RCCEx_PLL3_Config+0x160>)
 81035e4:	f423 7380 	bic.w	r3, r3, #256	@ 0x100
 81035e8:	62d3      	str	r3, [r2, #44]	@ 0x2c

    /* Configures PLL3 clock Fractional Part Of The Multiplication Factor */
    __HAL_RCC_PLL3FRACN_CONFIG(pll3->PLL3FRACN);
 81035ea:	4b25      	ldr	r3, [pc, #148]	@ (8103680 <RCCEx_PLL3_Config+0x160>)
 81035ec:	6c5b      	ldr	r3, [r3, #68]	@ 0x44
 81035ee:	f423 437f 	bic.w	r3, r3, #65280	@ 0xff00
 81035f2:	f023 03f8 	bic.w	r3, r3, #248	@ 0xf8
 81035f6:	687a      	ldr	r2, [r7, #4]
 81035f8:	69d2      	ldr	r2, [r2, #28]
 81035fa:	00d2      	lsls	r2, r2, #3
 81035fc:	4920      	ldr	r1, [pc, #128]	@ (8103680 <RCCEx_PLL3_Config+0x160>)
 81035fe:	4313      	orrs	r3, r2
 8103600:	644b      	str	r3, [r1, #68]	@ 0x44

    /* Enable PLL3FRACN . */
    __HAL_RCC_PLL3FRACN_ENABLE();
 8103602:	4b1f      	ldr	r3, [pc, #124]	@ (8103680 <RCCEx_PLL3_Config+0x160>)
 8103604:	6adb      	ldr	r3, [r3, #44]	@ 0x2c
 8103606:	4a1e      	ldr	r2, [pc, #120]	@ (8103680 <RCCEx_PLL3_Config+0x160>)
 8103608:	f443 7380 	orr.w	r3, r3, #256	@ 0x100
 810360c:	62d3      	str	r3, [r2, #44]	@ 0x2c

    /* Enable the PLL3 clock output */
    if (Divider == DIVIDER_P_UPDATE)
 810360e:	683b      	ldr	r3, [r7, #0]
 8103610:	2b00      	cmp	r3, #0
 8103612:	d106      	bne.n	8103622 <RCCEx_PLL3_Config+0x102>
    {
      __HAL_RCC_PLL3CLKOUT_ENABLE(RCC_PLL3_DIVP);
 8103614:	4b1a      	ldr	r3, [pc, #104]	@ (8103680 <RCCEx_PLL3_Config+0x160>)
 8103616:	6adb      	ldr	r3, [r3, #44]	@ 0x2c
 8103618:	4a19      	ldr	r2, [pc, #100]	@ (8103680 <RCCEx_PLL3_Config+0x160>)
 810361a:	f443 0380 	orr.w	r3, r3, #4194304	@ 0x400000
 810361e:	62d3      	str	r3, [r2, #44]	@ 0x2c
 8103620:	e00f      	b.n	8103642 <RCCEx_PLL3_Config+0x122>
    }
    else if (Divider == DIVIDER_Q_UPDATE)
 8103622:	683b      	ldr	r3, [r7, #0]
 8103624:	2b01      	cmp	r3, #1
 8103626:	d106      	bne.n	8103636 <RCCEx_PLL3_Config+0x116>
    {
      __HAL_RCC_PLL3CLKOUT_ENABLE(RCC_PLL3_DIVQ);
 8103628:	4b15      	ldr	r3, [pc, #84]	@ (8103680 <RCCEx_PLL3_Config+0x160>)
 810362a:	6adb      	ldr	r3, [r3, #44]	@ 0x2c
 810362c:	4a14      	ldr	r2, [pc, #80]	@ (8103680 <RCCEx_PLL3_Config+0x160>)
 810362e:	f443 0300 	orr.w	r3, r3, #8388608	@ 0x800000
 8103632:	62d3      	str	r3, [r2, #44]	@ 0x2c
 8103634:	e005      	b.n	8103642 <RCCEx_PLL3_Config+0x122>
    }
    else
    {
      __HAL_RCC_PLL3CLKOUT_ENABLE(RCC_PLL3_DIVR);
 8103636:	4b12      	ldr	r3, [pc, #72]	@ (8103680 <RCCEx_PLL3_Config+0x160>)
 8103638:	6adb      	ldr	r3, [r3, #44]	@ 0x2c
 810363a:	4a11      	ldr	r2, [pc, #68]	@ (8103680 <RCCEx_PLL3_Config+0x160>)
 810363c:	f043 7380 	orr.w	r3, r3, #16777216	@ 0x1000000
 8103640:	62d3      	str	r3, [r2, #44]	@ 0x2c
    }

    /* Enable  PLL3. */
    __HAL_RCC_PLL3_ENABLE();
 8103642:	4b0f      	ldr	r3, [pc, #60]	@ (8103680 <RCCEx_PLL3_Config+0x160>)
 8103644:	681b      	ldr	r3, [r3, #0]
 8103646:	4a0e      	ldr	r2, [pc, #56]	@ (8103680 <RCCEx_PLL3_Config+0x160>)
 8103648:	f043 5380 	orr.w	r3, r3, #268435456	@ 0x10000000
 810364c:	6013      	str	r3, [r2, #0]

    /* Get Start Tick*/
    tickstart = HAL_GetTick();
 810364e:	f7fd ff8b 	bl	8101568 <HAL_GetTick>
 8103652:	60b8      	str	r0, [r7, #8]

    /* Wait till PLL3 is ready */
    while (__HAL_RCC_GET_FLAG(RCC_FLAG_PLL3RDY) == 0U)
 8103654:	e008      	b.n	8103668 <RCCEx_PLL3_Config+0x148>
    {
      if ((HAL_GetTick() - tickstart) > PLL3_TIMEOUT_VALUE)
 8103656:	f7fd ff87 	bl	8101568 <HAL_GetTick>
 810365a:	4602      	mov	r2, r0
 810365c:	68bb      	ldr	r3, [r7, #8]
 810365e:	1ad3      	subs	r3, r2, r3
 8103660:	2b02      	cmp	r3, #2
 8103662:	d901      	bls.n	8103668 <RCCEx_PLL3_Config+0x148>
      {
        return HAL_TIMEOUT;
 8103664:	2303      	movs	r3, #3
 8103666:	e006      	b.n	8103676 <RCCEx_PLL3_Config+0x156>
    while (__HAL_RCC_GET_FLAG(RCC_FLAG_PLL3RDY) == 0U)
 8103668:	4b05      	ldr	r3, [pc, #20]	@ (8103680 <RCCEx_PLL3_Config+0x160>)
 810366a:	681b      	ldr	r3, [r3, #0]
 810366c:	f003 5300 	and.w	r3, r3, #536870912	@ 0x20000000
 8103670:	2b00      	cmp	r3, #0
 8103672:	d0f0      	beq.n	8103656 <RCCEx_PLL3_Config+0x136>
    }

  }


  return status;
 8103674:	7bfb      	ldrb	r3, [r7, #15]
}
 8103676:	4618      	mov	r0, r3
 8103678:	3710      	adds	r7, #16
 810367a:	46bd      	mov	sp, r7
 810367c:	bd80      	pop	{r7, pc}
 810367e:	bf00      	nop
 8103680:	58024400 	.word	0x58024400

08103684 <HAL_SPI_Init>:
  * @param  hspi: pointer to a SPI_HandleTypeDef structure that contains
  *               the configuration information for SPI module.
  * @retval HAL status
  */
HAL_StatusTypeDef HAL_SPI_Init(SPI_HandleTypeDef *hspi)
{
 8103684:	b580      	push	{r7, lr}
 8103686:	b084      	sub	sp, #16
 8103688:	af00      	add	r7, sp, #0
 810368a:	6078      	str	r0, [r7, #4]
#if (USE_SPI_CRC != 0UL)
  uint32_t crc_poly_msb_mask;
#endif /* USE_SPI_CRC */

  /* Check the SPI handle allocation */
  if (hspi == NULL)
 810368c:	687b      	ldr	r3, [r7, #4]
 810368e:	2b00      	cmp	r3, #0
 8103690:	d101      	bne.n	8103696 <HAL_SPI_Init+0x12>
  {
    return HAL_ERROR;
 8103692:	2301      	movs	r3, #1
 8103694:	e10f      	b.n	81038b6 <HAL_SPI_Init+0x232>
    assert_param(IS_SPI_CRC_POLYNOMIAL(hspi->Init.CRCPolynomial));
    assert_param(IS_SPI_CRC_INITIALIZATION_PATTERN(hspi->Init.TxCRCInitializationPattern));
    assert_param(IS_SPI_CRC_INITIALIZATION_PATTERN(hspi->Init.RxCRCInitializationPattern));
  }
#else
  hspi->Init.CRCCalculation = SPI_CRCCALCULATION_DISABLE;
 8103696:	687b      	ldr	r3, [r7, #4]
 8103698:	2200      	movs	r2, #0
 810369a:	629a      	str	r2, [r3, #40]	@ 0x28
#endif /* USE_SPI_CRC */

  /* Verify that the SPI instance supports Data Size higher than 16bits */
  if ((!IS_SPI_HIGHEND_INSTANCE(hspi->Instance)) && (hspi->Init.DataSize > SPI_DATASIZE_16BIT))
 810369c:	687b      	ldr	r3, [r7, #4]
 810369e:	681b      	ldr	r3, [r3, #0]
 81036a0:	4a87      	ldr	r2, [pc, #540]	@ (81038c0 <HAL_SPI_Init+0x23c>)
 81036a2:	4293      	cmp	r3, r2
 81036a4:	d00f      	beq.n	81036c6 <HAL_SPI_Init+0x42>
 81036a6:	687b      	ldr	r3, [r7, #4]
 81036a8:	681b      	ldr	r3, [r3, #0]
 81036aa:	4a86      	ldr	r2, [pc, #536]	@ (81038c4 <HAL_SPI_Init+0x240>)
 81036ac:	4293      	cmp	r3, r2
 81036ae:	d00a      	beq.n	81036c6 <HAL_SPI_Init+0x42>
 81036b0:	687b      	ldr	r3, [r7, #4]
 81036b2:	681b      	ldr	r3, [r3, #0]
 81036b4:	4a84      	ldr	r2, [pc, #528]	@ (81038c8 <HAL_SPI_Init+0x244>)
 81036b6:	4293      	cmp	r3, r2
 81036b8:	d005      	beq.n	81036c6 <HAL_SPI_Init+0x42>
 81036ba:	687b      	ldr	r3, [r7, #4]
 81036bc:	68db      	ldr	r3, [r3, #12]
 81036be:	2b0f      	cmp	r3, #15
 81036c0:	d901      	bls.n	81036c6 <HAL_SPI_Init+0x42>
  {
    return HAL_ERROR;
 81036c2:	2301      	movs	r3, #1
 81036c4:	e0f7      	b.n	81038b6 <HAL_SPI_Init+0x232>
  }

  /* Verify that the SPI instance supports requested data packing */
  packet_length = SPI_GetPacketSize(hspi);
 81036c6:	6878      	ldr	r0, [r7, #4]
 81036c8:	f001 f962 	bl	8104990 <SPI_GetPacketSize>
 81036cc:	60f8      	str	r0, [r7, #12]
  if (((!IS_SPI_HIGHEND_INSTANCE(hspi->Instance)) && (packet_length > SPI_LOWEND_FIFO_SIZE)) ||
 81036ce:	687b      	ldr	r3, [r7, #4]
 81036d0:	681b      	ldr	r3, [r3, #0]
 81036d2:	4a7b      	ldr	r2, [pc, #492]	@ (81038c0 <HAL_SPI_Init+0x23c>)
 81036d4:	4293      	cmp	r3, r2
 81036d6:	d00c      	beq.n	81036f2 <HAL_SPI_Init+0x6e>
 81036d8:	687b      	ldr	r3, [r7, #4]
 81036da:	681b      	ldr	r3, [r3, #0]
 81036dc:	4a79      	ldr	r2, [pc, #484]	@ (81038c4 <HAL_SPI_Init+0x240>)
 81036de:	4293      	cmp	r3, r2
 81036e0:	d007      	beq.n	81036f2 <HAL_SPI_Init+0x6e>
 81036e2:	687b      	ldr	r3, [r7, #4]
 81036e4:	681b      	ldr	r3, [r3, #0]
 81036e6:	4a78      	ldr	r2, [pc, #480]	@ (81038c8 <HAL_SPI_Init+0x244>)
 81036e8:	4293      	cmp	r3, r2
 81036ea:	d002      	beq.n	81036f2 <HAL_SPI_Init+0x6e>
 81036ec:	68fb      	ldr	r3, [r7, #12]
 81036ee:	2b08      	cmp	r3, #8
 81036f0:	d811      	bhi.n	8103716 <HAL_SPI_Init+0x92>
      ((IS_SPI_HIGHEND_INSTANCE(hspi->Instance)) && (packet_length > SPI_HIGHEND_FIFO_SIZE)))
 81036f2:	687b      	ldr	r3, [r7, #4]
 81036f4:	681b      	ldr	r3, [r3, #0]
  if (((!IS_SPI_HIGHEND_INSTANCE(hspi->Instance)) && (packet_length > SPI_LOWEND_FIFO_SIZE)) ||
 81036f6:	4a72      	ldr	r2, [pc, #456]	@ (81038c0 <HAL_SPI_Init+0x23c>)
 81036f8:	4293      	cmp	r3, r2
 81036fa:	d009      	beq.n	8103710 <HAL_SPI_Init+0x8c>
      ((IS_SPI_HIGHEND_INSTANCE(hspi->Instance)) && (packet_length > SPI_HIGHEND_FIFO_SIZE)))
 81036fc:	687b      	ldr	r3, [r7, #4]
 81036fe:	681b      	ldr	r3, [r3, #0]
 8103700:	4a70      	ldr	r2, [pc, #448]	@ (81038c4 <HAL_SPI_Init+0x240>)
 8103702:	4293      	cmp	r3, r2
 8103704:	d004      	beq.n	8103710 <HAL_SPI_Init+0x8c>
 8103706:	687b      	ldr	r3, [r7, #4]
 8103708:	681b      	ldr	r3, [r3, #0]
 810370a:	4a6f      	ldr	r2, [pc, #444]	@ (81038c8 <HAL_SPI_Init+0x244>)
 810370c:	4293      	cmp	r3, r2
 810370e:	d104      	bne.n	810371a <HAL_SPI_Init+0x96>
 8103710:	68fb      	ldr	r3, [r7, #12]
 8103712:	2b10      	cmp	r3, #16
 8103714:	d901      	bls.n	810371a <HAL_SPI_Init+0x96>
  {
    return HAL_ERROR;
 8103716:	2301      	movs	r3, #1
 8103718:	e0cd      	b.n	81038b6 <HAL_SPI_Init+0x232>
  {
    crc_length = hspi->Init.DataSize << SPI_CFG1_CRCSIZE_Pos;
  }
#endif /* USE_SPI_CRC */

  if (hspi->State == HAL_SPI_STATE_RESET)
 810371a:	687b      	ldr	r3, [r7, #4]
 810371c:	f893 3081 	ldrb.w	r3, [r3, #129]	@ 0x81
 8103720:	b2db      	uxtb	r3, r3
 8103722:	2b00      	cmp	r3, #0
 8103724:	d106      	bne.n	8103734 <HAL_SPI_Init+0xb0>
  {
    /* Allocate lock resource and initialize it */
    hspi->Lock = HAL_UNLOCKED;
 8103726:	687b      	ldr	r3, [r7, #4]
 8103728:	2200      	movs	r2, #0
 810372a:	f883 2080 	strb.w	r2, [r3, #128]	@ 0x80

    /* Init the low level hardware : GPIO, CLOCK, NVIC... */
    hspi->MspInitCallback(hspi);
#else
    /* Init the low level hardware : GPIO, CLOCK, NVIC... */
    HAL_SPI_MspInit(hspi);
 810372e:	6878      	ldr	r0, [r7, #4]
 8103730:	f7fd fd78 	bl	8101224 <HAL_SPI_MspInit>
#endif /* USE_HAL_SPI_REGISTER_CALLBACKS */
  }

  hspi->State = HAL_SPI_STATE_BUSY;
 8103734:	687b      	ldr	r3, [r7, #4]
 8103736:	2202      	movs	r2, #2
 8103738:	f883 2081 	strb.w	r2, [r3, #129]	@ 0x81

  /* Disable the selected SPI peripheral */
  __HAL_SPI_DISABLE(hspi);
 810373c:	687b      	ldr	r3, [r7, #4]
 810373e:	681b      	ldr	r3, [r3, #0]
 8103740:	681a      	ldr	r2, [r3, #0]
 8103742:	687b      	ldr	r3, [r7, #4]
 8103744:	681b      	ldr	r3, [r3, #0]
 8103746:	f022 0201 	bic.w	r2, r2, #1
 810374a:	601a      	str	r2, [r3, #0]

#if (USE_SPI_CRC == 0)
  /* Keep the default value of CRCSIZE in case of CRC is not used */
  crc_length = hspi->Instance->CFG1 & SPI_CFG1_CRCSIZE;
 810374c:	687b      	ldr	r3, [r7, #4]
 810374e:	681b      	ldr	r3, [r3, #0]
 8103750:	689b      	ldr	r3, [r3, #8]
 8103752:	f403 13f8 	and.w	r3, r3, #2031616	@ 0x1f0000
 8103756:	60bb      	str	r3, [r7, #8]
  /*----------------------- SPIx CR1 & CR2 Configuration ---------------------*/
  /* Configure : SPI Mode, Communication Mode, Clock polarity and phase, NSS management,
  Communication speed, First bit, CRC calculation state, CRC Length */

  /* SPIx NSS Software Management Configuration */
  if ((hspi->Init.NSS == SPI_NSS_SOFT) && (((hspi->Init.Mode == SPI_MODE_MASTER) &&  \
 8103758:	687b      	ldr	r3, [r7, #4]
 810375a:	699b      	ldr	r3, [r3, #24]
 810375c:	f1b3 6f80 	cmp.w	r3, #67108864	@ 0x4000000
 8103760:	d119      	bne.n	8103796 <HAL_SPI_Init+0x112>
 8103762:	687b      	ldr	r3, [r7, #4]
 8103764:	685b      	ldr	r3, [r3, #4]
 8103766:	f5b3 0f80 	cmp.w	r3, #4194304	@ 0x400000
 810376a:	d103      	bne.n	8103774 <HAL_SPI_Init+0xf0>
                                            (hspi->Init.NSSPolarity == SPI_NSS_POLARITY_LOW)) || \
 810376c:	687b      	ldr	r3, [r7, #4]
 810376e:	6b9b      	ldr	r3, [r3, #56]	@ 0x38
  if ((hspi->Init.NSS == SPI_NSS_SOFT) && (((hspi->Init.Mode == SPI_MODE_MASTER) &&  \
 8103770:	2b00      	cmp	r3, #0
 8103772:	d008      	beq.n	8103786 <HAL_SPI_Init+0x102>
                                           ((hspi->Init.Mode == SPI_MODE_SLAVE) && \
 8103774:	687b      	ldr	r3, [r7, #4]
 8103776:	685b      	ldr	r3, [r3, #4]
                                            (hspi->Init.NSSPolarity == SPI_NSS_POLARITY_LOW)) || \
 8103778:	2b00      	cmp	r3, #0
 810377a:	d10c      	bne.n	8103796 <HAL_SPI_Init+0x112>
                                            (hspi->Init.NSSPolarity == SPI_NSS_POLARITY_HIGH))))
 810377c:	687b      	ldr	r3, [r7, #4]
 810377e:	6b9b      	ldr	r3, [r3, #56]	@ 0x38
                                           ((hspi->Init.Mode == SPI_MODE_SLAVE) && \
 8103780:	f1b3 5f80 	cmp.w	r3, #268435456	@ 0x10000000
 8103784:	d107      	bne.n	8103796 <HAL_SPI_Init+0x112>
  {
    SET_BIT(hspi->Instance->CR1, SPI_CR1_SSI);
 8103786:	687b      	ldr	r3, [r7, #4]
 8103788:	681b      	ldr	r3, [r3, #0]
 810378a:	681a      	ldr	r2, [r3, #0]
 810378c:	687b      	ldr	r3, [r7, #4]
 810378e:	681b      	ldr	r3, [r3, #0]
 8103790:	f442 5280 	orr.w	r2, r2, #4096	@ 0x1000
 8103794:	601a      	str	r2, [r3, #0]
  }

  /* SPIx Master Rx Auto Suspend Configuration */
  if (((hspi->Init.Mode & SPI_MODE_MASTER) == SPI_MODE_MASTER) && (hspi->Init.DataSize >= SPI_DATASIZE_8BIT))
 8103796:	687b      	ldr	r3, [r7, #4]
 8103798:	685b      	ldr	r3, [r3, #4]
 810379a:	f403 0380 	and.w	r3, r3, #4194304	@ 0x400000
 810379e:	2b00      	cmp	r3, #0
 81037a0:	d00f      	beq.n	81037c2 <HAL_SPI_Init+0x13e>
 81037a2:	687b      	ldr	r3, [r7, #4]
 81037a4:	68db      	ldr	r3, [r3, #12]
 81037a6:	2b06      	cmp	r3, #6
 81037a8:	d90b      	bls.n	81037c2 <HAL_SPI_Init+0x13e>
  {
    MODIFY_REG(hspi->Instance->CR1, SPI_CR1_MASRX, hspi->Init.MasterReceiverAutoSusp);
 81037aa:	687b      	ldr	r3, [r7, #4]
 81037ac:	681b      	ldr	r3, [r3, #0]
 81037ae:	681b      	ldr	r3, [r3, #0]
 81037b0:	f423 7180 	bic.w	r1, r3, #256	@ 0x100
 81037b4:	687b      	ldr	r3, [r7, #4]
 81037b6:	6d1a      	ldr	r2, [r3, #80]	@ 0x50
 81037b8:	687b      	ldr	r3, [r7, #4]
 81037ba:	681b      	ldr	r3, [r3, #0]
 81037bc:	430a      	orrs	r2, r1
 81037be:	601a      	str	r2, [r3, #0]
 81037c0:	e007      	b.n	81037d2 <HAL_SPI_Init+0x14e>
  }
  else
  {
    CLEAR_BIT(hspi->Instance->CR1, SPI_CR1_MASRX);
 81037c2:	687b      	ldr	r3, [r7, #4]
 81037c4:	681b      	ldr	r3, [r3, #0]
 81037c6:	681a      	ldr	r2, [r3, #0]
 81037c8:	687b      	ldr	r3, [r7, #4]
 81037ca:	681b      	ldr	r3, [r3, #0]
 81037cc:	f422 7280 	bic.w	r2, r2, #256	@ 0x100
 81037d0:	601a      	str	r2, [r3, #0]
  }

  /* SPIx CFG1 Configuration */
  WRITE_REG(hspi->Instance->CFG1, (hspi->Init.BaudRatePrescaler | hspi->Init.CRCCalculation | crc_length |
 81037d2:	687b      	ldr	r3, [r7, #4]
 81037d4:	69da      	ldr	r2, [r3, #28]
 81037d6:	687b      	ldr	r3, [r7, #4]
 81037d8:	6a9b      	ldr	r3, [r3, #40]	@ 0x28
 81037da:	431a      	orrs	r2, r3
 81037dc:	68bb      	ldr	r3, [r7, #8]
 81037de:	431a      	orrs	r2, r3
 81037e0:	687b      	ldr	r3, [r7, #4]
 81037e2:	6bdb      	ldr	r3, [r3, #60]	@ 0x3c
 81037e4:	ea42 0103 	orr.w	r1, r2, r3
 81037e8:	687b      	ldr	r3, [r7, #4]
 81037ea:	68da      	ldr	r2, [r3, #12]
 81037ec:	687b      	ldr	r3, [r7, #4]
 81037ee:	681b      	ldr	r3, [r3, #0]
 81037f0:	430a      	orrs	r2, r1
 81037f2:	609a      	str	r2, [r3, #8]
                                   hspi->Init.FifoThreshold     | hspi->Init.DataSize));

  /* SPIx CFG2 Configuration */
  WRITE_REG(hspi->Instance->CFG2, (hspi->Init.NSSPMode                | hspi->Init.TIMode    |
 81037f4:	687b      	ldr	r3, [r7, #4]
 81037f6:	6b5a      	ldr	r2, [r3, #52]	@ 0x34
 81037f8:	687b      	ldr	r3, [r7, #4]
 81037fa:	6a5b      	ldr	r3, [r3, #36]	@ 0x24
 81037fc:	431a      	orrs	r2, r3
 81037fe:	687b      	ldr	r3, [r7, #4]
 8103800:	6b9b      	ldr	r3, [r3, #56]	@ 0x38
 8103802:	431a      	orrs	r2, r3
 8103804:	687b      	ldr	r3, [r7, #4]
 8103806:	699b      	ldr	r3, [r3, #24]
 8103808:	431a      	orrs	r2, r3
 810380a:	687b      	ldr	r3, [r7, #4]
 810380c:	691b      	ldr	r3, [r3, #16]
 810380e:	431a      	orrs	r2, r3
 8103810:	687b      	ldr	r3, [r7, #4]
 8103812:	695b      	ldr	r3, [r3, #20]
 8103814:	431a      	orrs	r2, r3
 8103816:	687b      	ldr	r3, [r7, #4]
 8103818:	6a1b      	ldr	r3, [r3, #32]
 810381a:	431a      	orrs	r2, r3
 810381c:	687b      	ldr	r3, [r7, #4]
 810381e:	685b      	ldr	r3, [r3, #4]
 8103820:	431a      	orrs	r2, r3
 8103822:	687b      	ldr	r3, [r7, #4]
 8103824:	6cdb      	ldr	r3, [r3, #76]	@ 0x4c
 8103826:	431a      	orrs	r2, r3
 8103828:	687b      	ldr	r3, [r7, #4]
 810382a:	689b      	ldr	r3, [r3, #8]
 810382c:	431a      	orrs	r2, r3
 810382e:	687b      	ldr	r3, [r7, #4]
 8103830:	6c9b      	ldr	r3, [r3, #72]	@ 0x48
 8103832:	ea42 0103 	orr.w	r1, r2, r3
 8103836:	687b      	ldr	r3, [r7, #4]
 8103838:	6d9a      	ldr	r2, [r3, #88]	@ 0x58
 810383a:	687b      	ldr	r3, [r7, #4]
 810383c:	681b      	ldr	r3, [r3, #0]
 810383e:	430a      	orrs	r2, r1
 8103840:	60da      	str	r2, [r3, #12]
    }
  }
#endif /* USE_SPI_CRC */

  /* Insure that Underrun configuration is managed only by Salve */
  if (hspi->Init.Mode == SPI_MODE_SLAVE)
 8103842:	687b      	ldr	r3, [r7, #4]
 8103844:	685b      	ldr	r3, [r3, #4]
 8103846:	2b00      	cmp	r3, #0
 8103848:	d113      	bne.n	8103872 <HAL_SPI_Init+0x1ee>
    /* Set Default Underrun configuration */
#if (USE_SPI_CRC != 0UL)
    if (hspi->Init.CRCCalculation == SPI_CRCCALCULATION_DISABLE)
#endif /* USE_SPI_CRC */
    {
      MODIFY_REG(hspi->Instance->CFG1, SPI_CFG1_UDRDET, SPI_CFG1_UDRDET_0);
 810384a:	687b      	ldr	r3, [r7, #4]
 810384c:	681b      	ldr	r3, [r3, #0]
 810384e:	689b      	ldr	r3, [r3, #8]
 8103850:	f423 52c0 	bic.w	r2, r3, #6144	@ 0x1800
 8103854:	687b      	ldr	r3, [r7, #4]
 8103856:	681b      	ldr	r3, [r3, #0]
 8103858:	f442 6200 	orr.w	r2, r2, #2048	@ 0x800
 810385c:	609a      	str	r2, [r3, #8]
    }
    MODIFY_REG(hspi->Instance->CFG1, SPI_CFG1_UDRCFG, SPI_CFG1_UDRCFG_1);
 810385e:	687b      	ldr	r3, [r7, #4]
 8103860:	681b      	ldr	r3, [r3, #0]
 8103862:	689b      	ldr	r3, [r3, #8]
 8103864:	f423 62c0 	bic.w	r2, r3, #1536	@ 0x600
 8103868:	687b      	ldr	r3, [r7, #4]
 810386a:	681b      	ldr	r3, [r3, #0]
 810386c:	f442 6280 	orr.w	r2, r2, #1024	@ 0x400
 8103870:	609a      	str	r2, [r3, #8]
  }

#if defined(SPI_I2SCFGR_I2SMOD)
  /* Activate the SPI mode (Make sure that I2SMOD bit in I2SCFGR register is reset) */
  CLEAR_BIT(hspi->Instance->I2SCFGR, SPI_I2SCFGR_I2SMOD);
 8103872:	687b      	ldr	r3, [r7, #4]
 8103874:	681b      	ldr	r3, [r3, #0]
 8103876:	6d1a      	ldr	r2, [r3, #80]	@ 0x50
 8103878:	687b      	ldr	r3, [r7, #4]
 810387a:	681b      	ldr	r3, [r3, #0]
 810387c:	f022 0201 	bic.w	r2, r2, #1
 8103880:	651a      	str	r2, [r3, #80]	@ 0x50
#endif /* SPI_I2SCFGR_I2SMOD */

  /* Insure that AFCNTR is managed only by Master */
  if ((hspi->Init.Mode & SPI_MODE_MASTER) == SPI_MODE_MASTER)
 8103882:	687b      	ldr	r3, [r7, #4]
 8103884:	685b      	ldr	r3, [r3, #4]
 8103886:	f403 0380 	and.w	r3, r3, #4194304	@ 0x400000
 810388a:	2b00      	cmp	r3, #0
 810388c:	d00a      	beq.n	81038a4 <HAL_SPI_Init+0x220>
  {
    /* Alternate function GPIOs control */
    MODIFY_REG(hspi->Instance->CFG2, SPI_CFG2_AFCNTR, (hspi->Init.MasterKeepIOState));
 810388e:	687b      	ldr	r3, [r7, #4]
 8103890:	681b      	ldr	r3, [r3, #0]
 8103892:	68db      	ldr	r3, [r3, #12]
 8103894:	f023 4100 	bic.w	r1, r3, #2147483648	@ 0x80000000
 8103898:	687b      	ldr	r3, [r7, #4]
 810389a:	6d5a      	ldr	r2, [r3, #84]	@ 0x54
 810389c:	687b      	ldr	r3, [r7, #4]
 810389e:	681b      	ldr	r3, [r3, #0]
 81038a0:	430a      	orrs	r2, r1
 81038a2:	60da      	str	r2, [r3, #12]
  }

  hspi->ErrorCode = HAL_SPI_ERROR_NONE;
 81038a4:	687b      	ldr	r3, [r7, #4]
 81038a6:	2200      	movs	r2, #0
 81038a8:	f8c3 2084 	str.w	r2, [r3, #132]	@ 0x84
  hspi->State     = HAL_SPI_STATE_READY;
 81038ac:	687b      	ldr	r3, [r7, #4]
 81038ae:	2201      	movs	r2, #1
 81038b0:	f883 2081 	strb.w	r2, [r3, #129]	@ 0x81

  return HAL_OK;
 81038b4:	2300      	movs	r3, #0
}
 81038b6:	4618      	mov	r0, r3
 81038b8:	3710      	adds	r7, #16
 81038ba:	46bd      	mov	sp, r7
 81038bc:	bd80      	pop	{r7, pc}
 81038be:	bf00      	nop
 81038c0:	40013000 	.word	0x40013000
 81038c4:	40003800 	.word	0x40003800
 81038c8:	40003c00 	.word	0x40003c00

081038cc <HAL_SPI_Transmit>:
  * @param  Size   : amount of data to be sent
  * @param  Timeout: Timeout duration
  * @retval HAL status
  */
HAL_StatusTypeDef HAL_SPI_Transmit(SPI_HandleTypeDef *hspi, const uint8_t *pData, uint16_t Size, uint32_t Timeout)
{
 81038cc:	b580      	push	{r7, lr}
 81038ce:	b088      	sub	sp, #32
 81038d0:	af02      	add	r7, sp, #8
 81038d2:	60f8      	str	r0, [r7, #12]
 81038d4:	60b9      	str	r1, [r7, #8]
 81038d6:	603b      	str	r3, [r7, #0]
 81038d8:	4613      	mov	r3, r2
 81038da:	80fb      	strh	r3, [r7, #6]
#if defined (__GNUC__)
  __IO uint16_t *ptxdr_16bits = (__IO uint16_t *)(&(hspi->Instance->TXDR));
 81038dc:	68fb      	ldr	r3, [r7, #12]
 81038de:	681b      	ldr	r3, [r3, #0]
 81038e0:	3320      	adds	r3, #32
 81038e2:	617b      	str	r3, [r7, #20]

  /* Check Direction parameter */
  assert_param(IS_SPI_DIRECTION_2LINES_OR_1LINE_2LINES_TXONLY(hspi->Init.Direction));

  /* Init tickstart for timeout management*/
  tickstart = HAL_GetTick();
 81038e4:	f7fd fe40 	bl	8101568 <HAL_GetTick>
 81038e8:	6138      	str	r0, [r7, #16]

  if (hspi->State != HAL_SPI_STATE_READY)
 81038ea:	68fb      	ldr	r3, [r7, #12]
 81038ec:	f893 3081 	ldrb.w	r3, [r3, #129]	@ 0x81
 81038f0:	b2db      	uxtb	r3, r3
 81038f2:	2b01      	cmp	r3, #1
 81038f4:	d001      	beq.n	81038fa <HAL_SPI_Transmit+0x2e>
  {
    return HAL_BUSY;
 81038f6:	2302      	movs	r3, #2
 81038f8:	e1cf      	b.n	8103c9a <HAL_SPI_Transmit+0x3ce>
  }

  if ((pData == NULL) || (Size == 0UL))
 81038fa:	68bb      	ldr	r3, [r7, #8]
 81038fc:	2b00      	cmp	r3, #0
 81038fe:	d002      	beq.n	8103906 <HAL_SPI_Transmit+0x3a>
 8103900:	88fb      	ldrh	r3, [r7, #6]
 8103902:	2b00      	cmp	r3, #0
 8103904:	d101      	bne.n	810390a <HAL_SPI_Transmit+0x3e>
  {
    return HAL_ERROR;
 8103906:	2301      	movs	r3, #1
 8103908:	e1c7      	b.n	8103c9a <HAL_SPI_Transmit+0x3ce>
  }

  /* Lock the process */
  __HAL_LOCK(hspi);
 810390a:	68fb      	ldr	r3, [r7, #12]
 810390c:	f893 3080 	ldrb.w	r3, [r3, #128]	@ 0x80
 8103910:	2b01      	cmp	r3, #1
 8103912:	d101      	bne.n	8103918 <HAL_SPI_Transmit+0x4c>
 8103914:	2302      	movs	r3, #2
 8103916:	e1c0      	b.n	8103c9a <HAL_SPI_Transmit+0x3ce>
 8103918:	68fb      	ldr	r3, [r7, #12]
 810391a:	2201      	movs	r2, #1
 810391c:	f883 2080 	strb.w	r2, [r3, #128]	@ 0x80

  /* Set the transaction information */
  hspi->State       = HAL_SPI_STATE_BUSY_TX;
 8103920:	68fb      	ldr	r3, [r7, #12]
 8103922:	2203      	movs	r2, #3
 8103924:	f883 2081 	strb.w	r2, [r3, #129]	@ 0x81
  hspi->ErrorCode   = HAL_SPI_ERROR_NONE;
 8103928:	68fb      	ldr	r3, [r7, #12]
 810392a:	2200      	movs	r2, #0
 810392c:	f8c3 2084 	str.w	r2, [r3, #132]	@ 0x84
  hspi->pTxBuffPtr  = (const uint8_t *)pData;
 8103930:	68fb      	ldr	r3, [r7, #12]
 8103932:	68ba      	ldr	r2, [r7, #8]
 8103934:	65da      	str	r2, [r3, #92]	@ 0x5c
  hspi->TxXferSize  = Size;
 8103936:	68fb      	ldr	r3, [r7, #12]
 8103938:	88fa      	ldrh	r2, [r7, #6]
 810393a:	f8a3 2060 	strh.w	r2, [r3, #96]	@ 0x60
  hspi->TxXferCount = Size;
 810393e:	68fb      	ldr	r3, [r7, #12]
 8103940:	88fa      	ldrh	r2, [r7, #6]
 8103942:	f8a3 2062 	strh.w	r2, [r3, #98]	@ 0x62

  /*Init field not used in handle to zero */
  hspi->pRxBuffPtr  = NULL;
 8103946:	68fb      	ldr	r3, [r7, #12]
 8103948:	2200      	movs	r2, #0
 810394a:	665a      	str	r2, [r3, #100]	@ 0x64
  hspi->RxXferSize  = (uint16_t) 0UL;
 810394c:	68fb      	ldr	r3, [r7, #12]
 810394e:	2200      	movs	r2, #0
 8103950:	f8a3 2068 	strh.w	r2, [r3, #104]	@ 0x68
  hspi->RxXferCount = (uint16_t) 0UL;
 8103954:	68fb      	ldr	r3, [r7, #12]
 8103956:	2200      	movs	r2, #0
 8103958:	f8a3 206a 	strh.w	r2, [r3, #106]	@ 0x6a
  hspi->TxISR       = NULL;
 810395c:	68fb      	ldr	r3, [r7, #12]
 810395e:	2200      	movs	r2, #0
 8103960:	675a      	str	r2, [r3, #116]	@ 0x74
  hspi->RxISR       = NULL;
 8103962:	68fb      	ldr	r3, [r7, #12]
 8103964:	2200      	movs	r2, #0
 8103966:	671a      	str	r2, [r3, #112]	@ 0x70

  /* Configure communication direction : 1Line */
  if (hspi->Init.Direction == SPI_DIRECTION_1LINE)
 8103968:	68fb      	ldr	r3, [r7, #12]
 810396a:	689b      	ldr	r3, [r3, #8]
 810396c:	f5b3 2fc0 	cmp.w	r3, #393216	@ 0x60000
 8103970:	d108      	bne.n	8103984 <HAL_SPI_Transmit+0xb8>
  {
    SPI_1LINE_TX(hspi);
 8103972:	68fb      	ldr	r3, [r7, #12]
 8103974:	681b      	ldr	r3, [r3, #0]
 8103976:	681a      	ldr	r2, [r3, #0]
 8103978:	68fb      	ldr	r3, [r7, #12]
 810397a:	681b      	ldr	r3, [r3, #0]
 810397c:	f442 6200 	orr.w	r2, r2, #2048	@ 0x800
 8103980:	601a      	str	r2, [r3, #0]
 8103982:	e009      	b.n	8103998 <HAL_SPI_Transmit+0xcc>
  }
  else
  {
    SPI_2LINES_TX(hspi);
 8103984:	68fb      	ldr	r3, [r7, #12]
 8103986:	681b      	ldr	r3, [r3, #0]
 8103988:	68db      	ldr	r3, [r3, #12]
 810398a:	f423 22c0 	bic.w	r2, r3, #393216	@ 0x60000
 810398e:	68fb      	ldr	r3, [r7, #12]
 8103990:	681b      	ldr	r3, [r3, #0]
 8103992:	f442 3200 	orr.w	r2, r2, #131072	@ 0x20000
 8103996:	60da      	str	r2, [r3, #12]
  }

  /* Set the number of data at current transfer */
  MODIFY_REG(hspi->Instance->CR2, SPI_CR2_TSIZE, Size);
 8103998:	68fb      	ldr	r3, [r7, #12]
 810399a:	681b      	ldr	r3, [r3, #0]
 810399c:	685b      	ldr	r3, [r3, #4]
 810399e:	0c1b      	lsrs	r3, r3, #16
 81039a0:	041b      	lsls	r3, r3, #16
 81039a2:	88f9      	ldrh	r1, [r7, #6]
 81039a4:	68fa      	ldr	r2, [r7, #12]
 81039a6:	6812      	ldr	r2, [r2, #0]
 81039a8:	430b      	orrs	r3, r1
 81039aa:	6053      	str	r3, [r2, #4]

  /* Enable SPI peripheral */
  __HAL_SPI_ENABLE(hspi);
 81039ac:	68fb      	ldr	r3, [r7, #12]
 81039ae:	681b      	ldr	r3, [r3, #0]
 81039b0:	681a      	ldr	r2, [r3, #0]
 81039b2:	68fb      	ldr	r3, [r7, #12]
 81039b4:	681b      	ldr	r3, [r3, #0]
 81039b6:	f042 0201 	orr.w	r2, r2, #1
 81039ba:	601a      	str	r2, [r3, #0]

  if (hspi->Init.Mode == SPI_MODE_MASTER)
 81039bc:	68fb      	ldr	r3, [r7, #12]
 81039be:	685b      	ldr	r3, [r3, #4]
 81039c0:	f5b3 0f80 	cmp.w	r3, #4194304	@ 0x400000
 81039c4:	d107      	bne.n	81039d6 <HAL_SPI_Transmit+0x10a>
  {
    /* Master transfer start */
    SET_BIT(hspi->Instance->CR1, SPI_CR1_CSTART);
 81039c6:	68fb      	ldr	r3, [r7, #12]
 81039c8:	681b      	ldr	r3, [r3, #0]
 81039ca:	681a      	ldr	r2, [r3, #0]
 81039cc:	68fb      	ldr	r3, [r7, #12]
 81039ce:	681b      	ldr	r3, [r3, #0]
 81039d0:	f442 7200 	orr.w	r2, r2, #512	@ 0x200
 81039d4:	601a      	str	r2, [r3, #0]
  }

  /* Transmit data in 32 Bit mode */
  if (hspi->Init.DataSize > SPI_DATASIZE_16BIT)
 81039d6:	68fb      	ldr	r3, [r7, #12]
 81039d8:	68db      	ldr	r3, [r3, #12]
 81039da:	2b0f      	cmp	r3, #15
 81039dc:	d947      	bls.n	8103a6e <HAL_SPI_Transmit+0x1a2>
  {
    /* Transmit data in 32 Bit mode */
    while (hspi->TxXferCount > 0UL)
 81039de:	e03f      	b.n	8103a60 <HAL_SPI_Transmit+0x194>
    {
      /* Wait until TXP flag is set to send data */
      if (__HAL_SPI_GET_FLAG(hspi, SPI_FLAG_TXP))
 81039e0:	68fb      	ldr	r3, [r7, #12]
 81039e2:	681b      	ldr	r3, [r3, #0]
 81039e4:	695b      	ldr	r3, [r3, #20]
 81039e6:	f003 0302 	and.w	r3, r3, #2
 81039ea:	2b02      	cmp	r3, #2
 81039ec:	d114      	bne.n	8103a18 <HAL_SPI_Transmit+0x14c>
      {
        *((__IO uint32_t *)&hspi->Instance->TXDR) = *((const uint32_t *)hspi->pTxBuffPtr);
 81039ee:	68fb      	ldr	r3, [r7, #12]
 81039f0:	6dda      	ldr	r2, [r3, #92]	@ 0x5c
 81039f2:	68fb      	ldr	r3, [r7, #12]
 81039f4:	681b      	ldr	r3, [r3, #0]
 81039f6:	6812      	ldr	r2, [r2, #0]
 81039f8:	621a      	str	r2, [r3, #32]
        hspi->pTxBuffPtr += sizeof(uint32_t);
 81039fa:	68fb      	ldr	r3, [r7, #12]
 81039fc:	6ddb      	ldr	r3, [r3, #92]	@ 0x5c
 81039fe:	1d1a      	adds	r2, r3, #4
 8103a00:	68fb      	ldr	r3, [r7, #12]
 8103a02:	65da      	str	r2, [r3, #92]	@ 0x5c
        hspi->TxXferCount--;
 8103a04:	68fb      	ldr	r3, [r7, #12]
 8103a06:	f8b3 3062 	ldrh.w	r3, [r3, #98]	@ 0x62
 8103a0a:	b29b      	uxth	r3, r3
 8103a0c:	3b01      	subs	r3, #1
 8103a0e:	b29a      	uxth	r2, r3
 8103a10:	68fb      	ldr	r3, [r7, #12]
 8103a12:	f8a3 2062 	strh.w	r2, [r3, #98]	@ 0x62
 8103a16:	e023      	b.n	8103a60 <HAL_SPI_Transmit+0x194>
      }
      else
      {
        /* Timeout management */
        if ((((HAL_GetTick() - tickstart) >=  Timeout) && (Timeout != HAL_MAX_DELAY)) || (Timeout == 0U))
 8103a18:	f7fd fda6 	bl	8101568 <HAL_GetTick>
 8103a1c:	4602      	mov	r2, r0
 8103a1e:	693b      	ldr	r3, [r7, #16]
 8103a20:	1ad3      	subs	r3, r2, r3
 8103a22:	683a      	ldr	r2, [r7, #0]
 8103a24:	429a      	cmp	r2, r3
 8103a26:	d803      	bhi.n	8103a30 <HAL_SPI_Transmit+0x164>
 8103a28:	683b      	ldr	r3, [r7, #0]
 8103a2a:	f1b3 3fff 	cmp.w	r3, #4294967295
 8103a2e:	d102      	bne.n	8103a36 <HAL_SPI_Transmit+0x16a>
 8103a30:	683b      	ldr	r3, [r7, #0]
 8103a32:	2b00      	cmp	r3, #0
 8103a34:	d114      	bne.n	8103a60 <HAL_SPI_Transmit+0x194>
        {
          /* Call standard close procedure with error check */
          SPI_CloseTransfer(hspi);
 8103a36:	68f8      	ldr	r0, [r7, #12]
 8103a38:	f000 fedc 	bl	81047f4 <SPI_CloseTransfer>

          SET_BIT(hspi->ErrorCode, HAL_SPI_ERROR_TIMEOUT);
 8103a3c:	68fb      	ldr	r3, [r7, #12]
 8103a3e:	f8d3 3084 	ldr.w	r3, [r3, #132]	@ 0x84
 8103a42:	f443 7280 	orr.w	r2, r3, #256	@ 0x100
 8103a46:	68fb      	ldr	r3, [r7, #12]
 8103a48:	f8c3 2084 	str.w	r2, [r3, #132]	@ 0x84
          hspi->State = HAL_SPI_STATE_READY;
 8103a4c:	68fb      	ldr	r3, [r7, #12]
 8103a4e:	2201      	movs	r2, #1
 8103a50:	f883 2081 	strb.w	r2, [r3, #129]	@ 0x81

          /* Unlock the process */
          __HAL_UNLOCK(hspi);
 8103a54:	68fb      	ldr	r3, [r7, #12]
 8103a56:	2200      	movs	r2, #0
 8103a58:	f883 2080 	strb.w	r2, [r3, #128]	@ 0x80

          return HAL_TIMEOUT;
 8103a5c:	2303      	movs	r3, #3
 8103a5e:	e11c      	b.n	8103c9a <HAL_SPI_Transmit+0x3ce>
    while (hspi->TxXferCount > 0UL)
 8103a60:	68fb      	ldr	r3, [r7, #12]
 8103a62:	f8b3 3062 	ldrh.w	r3, [r3, #98]	@ 0x62
 8103a66:	b29b      	uxth	r3, r3
 8103a68:	2b00      	cmp	r3, #0
 8103a6a:	d1b9      	bne.n	81039e0 <HAL_SPI_Transmit+0x114>
 8103a6c:	e0ef      	b.n	8103c4e <HAL_SPI_Transmit+0x382>
        }
      }
    }
  }
  /* Transmit data in 16 Bit mode */
  else if (hspi->Init.DataSize > SPI_DATASIZE_8BIT)
 8103a6e:	68fb      	ldr	r3, [r7, #12]
 8103a70:	68db      	ldr	r3, [r3, #12]
 8103a72:	2b07      	cmp	r3, #7
 8103a74:	f240 80e4 	bls.w	8103c40 <HAL_SPI_Transmit+0x374>
  {
    /* Transmit data in 16 Bit mode */
    while (hspi->TxXferCount > 0UL)
 8103a78:	e05d      	b.n	8103b36 <HAL_SPI_Transmit+0x26a>
    {
      /* Wait until TXP flag is set to send data */
      if (__HAL_SPI_GET_FLAG(hspi, SPI_FLAG_TXP))
 8103a7a:	68fb      	ldr	r3, [r7, #12]
 8103a7c:	681b      	ldr	r3, [r3, #0]
 8103a7e:	695b      	ldr	r3, [r3, #20]
 8103a80:	f003 0302 	and.w	r3, r3, #2
 8103a84:	2b02      	cmp	r3, #2
 8103a86:	d132      	bne.n	8103aee <HAL_SPI_Transmit+0x222>
      {
        if ((hspi->TxXferCount > 1UL) && (hspi->Init.FifoThreshold > SPI_FIFO_THRESHOLD_01DATA))
 8103a88:	68fb      	ldr	r3, [r7, #12]
 8103a8a:	f8b3 3062 	ldrh.w	r3, [r3, #98]	@ 0x62
 8103a8e:	b29b      	uxth	r3, r3
 8103a90:	2b01      	cmp	r3, #1
 8103a92:	d918      	bls.n	8103ac6 <HAL_SPI_Transmit+0x1fa>
 8103a94:	68fb      	ldr	r3, [r7, #12]
 8103a96:	6bdb      	ldr	r3, [r3, #60]	@ 0x3c
 8103a98:	2b00      	cmp	r3, #0
 8103a9a:	d014      	beq.n	8103ac6 <HAL_SPI_Transmit+0x1fa>
        {
          *((__IO uint32_t *)&hspi->Instance->TXDR) = *((const uint32_t *)hspi->pTxBuffPtr);
 8103a9c:	68fb      	ldr	r3, [r7, #12]
 8103a9e:	6dda      	ldr	r2, [r3, #92]	@ 0x5c
 8103aa0:	68fb      	ldr	r3, [r7, #12]
 8103aa2:	681b      	ldr	r3, [r3, #0]
 8103aa4:	6812      	ldr	r2, [r2, #0]
 8103aa6:	621a      	str	r2, [r3, #32]
          hspi->pTxBuffPtr += sizeof(uint32_t);
 8103aa8:	68fb      	ldr	r3, [r7, #12]
 8103aaa:	6ddb      	ldr	r3, [r3, #92]	@ 0x5c
 8103aac:	1d1a      	adds	r2, r3, #4
 8103aae:	68fb      	ldr	r3, [r7, #12]
 8103ab0:	65da      	str	r2, [r3, #92]	@ 0x5c
          hspi->TxXferCount -= (uint16_t)2UL;
 8103ab2:	68fb      	ldr	r3, [r7, #12]
 8103ab4:	f8b3 3062 	ldrh.w	r3, [r3, #98]	@ 0x62
 8103ab8:	b29b      	uxth	r3, r3
 8103aba:	3b02      	subs	r3, #2
 8103abc:	b29a      	uxth	r2, r3
 8103abe:	68fb      	ldr	r3, [r7, #12]
 8103ac0:	f8a3 2062 	strh.w	r2, [r3, #98]	@ 0x62
 8103ac4:	e037      	b.n	8103b36 <HAL_SPI_Transmit+0x26a>
        }
        else
        {
#if defined (__GNUC__)
          *ptxdr_16bits = *((const uint16_t *)hspi->pTxBuffPtr);
 8103ac6:	68fb      	ldr	r3, [r7, #12]
 8103ac8:	6ddb      	ldr	r3, [r3, #92]	@ 0x5c
 8103aca:	881a      	ldrh	r2, [r3, #0]
 8103acc:	697b      	ldr	r3, [r7, #20]
 8103ace:	801a      	strh	r2, [r3, #0]
#else
          *((__IO uint16_t *)&hspi->Instance->TXDR) = *((const uint16_t *)hspi->pTxBuffPtr);
#endif /* __GNUC__ */
          hspi->pTxBuffPtr += sizeof(uint16_t);
 8103ad0:	68fb      	ldr	r3, [r7, #12]
 8103ad2:	6ddb      	ldr	r3, [r3, #92]	@ 0x5c
 8103ad4:	1c9a      	adds	r2, r3, #2
 8103ad6:	68fb      	ldr	r3, [r7, #12]
 8103ad8:	65da      	str	r2, [r3, #92]	@ 0x5c
          hspi->TxXferCount--;
 8103ada:	68fb      	ldr	r3, [r7, #12]
 8103adc:	f8b3 3062 	ldrh.w	r3, [r3, #98]	@ 0x62
 8103ae0:	b29b      	uxth	r3, r3
 8103ae2:	3b01      	subs	r3, #1
 8103ae4:	b29a      	uxth	r2, r3
 8103ae6:	68fb      	ldr	r3, [r7, #12]
 8103ae8:	f8a3 2062 	strh.w	r2, [r3, #98]	@ 0x62
 8103aec:	e023      	b.n	8103b36 <HAL_SPI_Transmit+0x26a>
        }
      }
      else
      {
        /* Timeout management */
        if ((((HAL_GetTick() - tickstart) >=  Timeout) && (Timeout != HAL_MAX_DELAY)) || (Timeout == 0U))
 8103aee:	f7fd fd3b 	bl	8101568 <HAL_GetTick>
 8103af2:	4602      	mov	r2, r0
 8103af4:	693b      	ldr	r3, [r7, #16]
 8103af6:	1ad3      	subs	r3, r2, r3
 8103af8:	683a      	ldr	r2, [r7, #0]
 8103afa:	429a      	cmp	r2, r3
 8103afc:	d803      	bhi.n	8103b06 <HAL_SPI_Transmit+0x23a>
 8103afe:	683b      	ldr	r3, [r7, #0]
 8103b00:	f1b3 3fff 	cmp.w	r3, #4294967295
 8103b04:	d102      	bne.n	8103b0c <HAL_SPI_Transmit+0x240>
 8103b06:	683b      	ldr	r3, [r7, #0]
 8103b08:	2b00      	cmp	r3, #0
 8103b0a:	d114      	bne.n	8103b36 <HAL_SPI_Transmit+0x26a>
        {
          /* Call standard close procedure with error check */
          SPI_CloseTransfer(hspi);
 8103b0c:	68f8      	ldr	r0, [r7, #12]
 8103b0e:	f000 fe71 	bl	81047f4 <SPI_CloseTransfer>

          SET_BIT(hspi->ErrorCode, HAL_SPI_ERROR_TIMEOUT);
 8103b12:	68fb      	ldr	r3, [r7, #12]
 8103b14:	f8d3 3084 	ldr.w	r3, [r3, #132]	@ 0x84
 8103b18:	f443 7280 	orr.w	r2, r3, #256	@ 0x100
 8103b1c:	68fb      	ldr	r3, [r7, #12]
 8103b1e:	f8c3 2084 	str.w	r2, [r3, #132]	@ 0x84
          hspi->State = HAL_SPI_STATE_READY;
 8103b22:	68fb      	ldr	r3, [r7, #12]
 8103b24:	2201      	movs	r2, #1
 8103b26:	f883 2081 	strb.w	r2, [r3, #129]	@ 0x81

          /* Unlock the process */
          __HAL_UNLOCK(hspi);
 8103b2a:	68fb      	ldr	r3, [r7, #12]
 8103b2c:	2200      	movs	r2, #0
 8103b2e:	f883 2080 	strb.w	r2, [r3, #128]	@ 0x80

          return HAL_TIMEOUT;
 8103b32:	2303      	movs	r3, #3
 8103b34:	e0b1      	b.n	8103c9a <HAL_SPI_Transmit+0x3ce>
    while (hspi->TxXferCount > 0UL)
 8103b36:	68fb      	ldr	r3, [r7, #12]
 8103b38:	f8b3 3062 	ldrh.w	r3, [r3, #98]	@ 0x62
 8103b3c:	b29b      	uxth	r3, r3
 8103b3e:	2b00      	cmp	r3, #0
 8103b40:	d19b      	bne.n	8103a7a <HAL_SPI_Transmit+0x1ae>
 8103b42:	e084      	b.n	8103c4e <HAL_SPI_Transmit+0x382>
  else
  {
    while (hspi->TxXferCount > 0UL)
    {
      /* Wait until TXP flag is set to send data */
      if (__HAL_SPI_GET_FLAG(hspi, SPI_FLAG_TXP))
 8103b44:	68fb      	ldr	r3, [r7, #12]
 8103b46:	681b      	ldr	r3, [r3, #0]
 8103b48:	695b      	ldr	r3, [r3, #20]
 8103b4a:	f003 0302 	and.w	r3, r3, #2
 8103b4e:	2b02      	cmp	r3, #2
 8103b50:	d152      	bne.n	8103bf8 <HAL_SPI_Transmit+0x32c>
      {
        if ((hspi->TxXferCount > 3UL) && (hspi->Init.FifoThreshold > SPI_FIFO_THRESHOLD_03DATA))
 8103b52:	68fb      	ldr	r3, [r7, #12]
 8103b54:	f8b3 3062 	ldrh.w	r3, [r3, #98]	@ 0x62
 8103b58:	b29b      	uxth	r3, r3
 8103b5a:	2b03      	cmp	r3, #3
 8103b5c:	d918      	bls.n	8103b90 <HAL_SPI_Transmit+0x2c4>
 8103b5e:	68fb      	ldr	r3, [r7, #12]
 8103b60:	6bdb      	ldr	r3, [r3, #60]	@ 0x3c
 8103b62:	2b40      	cmp	r3, #64	@ 0x40
 8103b64:	d914      	bls.n	8103b90 <HAL_SPI_Transmit+0x2c4>
        {
          *((__IO uint32_t *)&hspi->Instance->TXDR) = *((const uint32_t *)hspi->pTxBuffPtr);
 8103b66:	68fb      	ldr	r3, [r7, #12]
 8103b68:	6dda      	ldr	r2, [r3, #92]	@ 0x5c
 8103b6a:	68fb      	ldr	r3, [r7, #12]
 8103b6c:	681b      	ldr	r3, [r3, #0]
 8103b6e:	6812      	ldr	r2, [r2, #0]
 8103b70:	621a      	str	r2, [r3, #32]
          hspi->pTxBuffPtr += sizeof(uint32_t);
 8103b72:	68fb      	ldr	r3, [r7, #12]
 8103b74:	6ddb      	ldr	r3, [r3, #92]	@ 0x5c
 8103b76:	1d1a      	adds	r2, r3, #4
 8103b78:	68fb      	ldr	r3, [r7, #12]
 8103b7a:	65da      	str	r2, [r3, #92]	@ 0x5c
          hspi->TxXferCount -= (uint16_t)4UL;
 8103b7c:	68fb      	ldr	r3, [r7, #12]
 8103b7e:	f8b3 3062 	ldrh.w	r3, [r3, #98]	@ 0x62
 8103b82:	b29b      	uxth	r3, r3
 8103b84:	3b04      	subs	r3, #4
 8103b86:	b29a      	uxth	r2, r3
 8103b88:	68fb      	ldr	r3, [r7, #12]
 8103b8a:	f8a3 2062 	strh.w	r2, [r3, #98]	@ 0x62
 8103b8e:	e057      	b.n	8103c40 <HAL_SPI_Transmit+0x374>
        }
        else if ((hspi->TxXferCount > 1UL) && (hspi->Init.FifoThreshold > SPI_FIFO_THRESHOLD_01DATA))
 8103b90:	68fb      	ldr	r3, [r7, #12]
 8103b92:	f8b3 3062 	ldrh.w	r3, [r3, #98]	@ 0x62
 8103b96:	b29b      	uxth	r3, r3
 8103b98:	2b01      	cmp	r3, #1
 8103b9a:	d917      	bls.n	8103bcc <HAL_SPI_Transmit+0x300>
 8103b9c:	68fb      	ldr	r3, [r7, #12]
 8103b9e:	6bdb      	ldr	r3, [r3, #60]	@ 0x3c
 8103ba0:	2b00      	cmp	r3, #0
 8103ba2:	d013      	beq.n	8103bcc <HAL_SPI_Transmit+0x300>
        {
#if defined (__GNUC__)
          *ptxdr_16bits = *((const uint16_t *)hspi->pTxBuffPtr);
 8103ba4:	68fb      	ldr	r3, [r7, #12]
 8103ba6:	6ddb      	ldr	r3, [r3, #92]	@ 0x5c
 8103ba8:	881a      	ldrh	r2, [r3, #0]
 8103baa:	697b      	ldr	r3, [r7, #20]
 8103bac:	801a      	strh	r2, [r3, #0]
#else
          *((__IO uint16_t *)&hspi->Instance->TXDR) = *((const uint16_t *)hspi->pTxBuffPtr);
#endif /* __GNUC__ */
          hspi->pTxBuffPtr += sizeof(uint16_t);
 8103bae:	68fb      	ldr	r3, [r7, #12]
 8103bb0:	6ddb      	ldr	r3, [r3, #92]	@ 0x5c
 8103bb2:	1c9a      	adds	r2, r3, #2
 8103bb4:	68fb      	ldr	r3, [r7, #12]
 8103bb6:	65da      	str	r2, [r3, #92]	@ 0x5c
          hspi->TxXferCount -= (uint16_t)2UL;
 8103bb8:	68fb      	ldr	r3, [r7, #12]
 8103bba:	f8b3 3062 	ldrh.w	r3, [r3, #98]	@ 0x62
 8103bbe:	b29b      	uxth	r3, r3
 8103bc0:	3b02      	subs	r3, #2
 8103bc2:	b29a      	uxth	r2, r3
 8103bc4:	68fb      	ldr	r3, [r7, #12]
 8103bc6:	f8a3 2062 	strh.w	r2, [r3, #98]	@ 0x62
 8103bca:	e039      	b.n	8103c40 <HAL_SPI_Transmit+0x374>
        }
        else
        {
          *((__IO uint8_t *)&hspi->Instance->TXDR) = *((const uint8_t *)hspi->pTxBuffPtr);
 8103bcc:	68fb      	ldr	r3, [r7, #12]
 8103bce:	6dda      	ldr	r2, [r3, #92]	@ 0x5c
 8103bd0:	68fb      	ldr	r3, [r7, #12]
 8103bd2:	681b      	ldr	r3, [r3, #0]
 8103bd4:	3320      	adds	r3, #32
 8103bd6:	7812      	ldrb	r2, [r2, #0]
 8103bd8:	701a      	strb	r2, [r3, #0]
          hspi->pTxBuffPtr += sizeof(uint8_t);
 8103bda:	68fb      	ldr	r3, [r7, #12]
 8103bdc:	6ddb      	ldr	r3, [r3, #92]	@ 0x5c
 8103bde:	1c5a      	adds	r2, r3, #1
 8103be0:	68fb      	ldr	r3, [r7, #12]
 8103be2:	65da      	str	r2, [r3, #92]	@ 0x5c
          hspi->TxXferCount--;
 8103be4:	68fb      	ldr	r3, [r7, #12]
 8103be6:	f8b3 3062 	ldrh.w	r3, [r3, #98]	@ 0x62
 8103bea:	b29b      	uxth	r3, r3
 8103bec:	3b01      	subs	r3, #1
 8103bee:	b29a      	uxth	r2, r3
 8103bf0:	68fb      	ldr	r3, [r7, #12]
 8103bf2:	f8a3 2062 	strh.w	r2, [r3, #98]	@ 0x62
 8103bf6:	e023      	b.n	8103c40 <HAL_SPI_Transmit+0x374>
        }
      }
      else
      {
        /* Timeout management */
        if ((((HAL_GetTick() - tickstart) >=  Timeout) && (Timeout != HAL_MAX_DELAY)) || (Timeout == 0U))
 8103bf8:	f7fd fcb6 	bl	8101568 <HAL_GetTick>
 8103bfc:	4602      	mov	r2, r0
 8103bfe:	693b      	ldr	r3, [r7, #16]
 8103c00:	1ad3      	subs	r3, r2, r3
 8103c02:	683a      	ldr	r2, [r7, #0]
 8103c04:	429a      	cmp	r2, r3
 8103c06:	d803      	bhi.n	8103c10 <HAL_SPI_Transmit+0x344>
 8103c08:	683b      	ldr	r3, [r7, #0]
 8103c0a:	f1b3 3fff 	cmp.w	r3, #4294967295
 8103c0e:	d102      	bne.n	8103c16 <HAL_SPI_Transmit+0x34a>
 8103c10:	683b      	ldr	r3, [r7, #0]
 8103c12:	2b00      	cmp	r3, #0
 8103c14:	d114      	bne.n	8103c40 <HAL_SPI_Transmit+0x374>
        {
          /* Call standard close procedure with error check */
          SPI_CloseTransfer(hspi);
 8103c16:	68f8      	ldr	r0, [r7, #12]
 8103c18:	f000 fdec 	bl	81047f4 <SPI_CloseTransfer>

          SET_BIT(hspi->ErrorCode, HAL_SPI_ERROR_TIMEOUT);
 8103c1c:	68fb      	ldr	r3, [r7, #12]
 8103c1e:	f8d3 3084 	ldr.w	r3, [r3, #132]	@ 0x84
 8103c22:	f443 7280 	orr.w	r2, r3, #256	@ 0x100
 8103c26:	68fb      	ldr	r3, [r7, #12]
 8103c28:	f8c3 2084 	str.w	r2, [r3, #132]	@ 0x84
          hspi->State = HAL_SPI_STATE_READY;
 8103c2c:	68fb      	ldr	r3, [r7, #12]
 8103c2e:	2201      	movs	r2, #1
 8103c30:	f883 2081 	strb.w	r2, [r3, #129]	@ 0x81

          /* Unlock the process */
          __HAL_UNLOCK(hspi);
 8103c34:	68fb      	ldr	r3, [r7, #12]
 8103c36:	2200      	movs	r2, #0
 8103c38:	f883 2080 	strb.w	r2, [r3, #128]	@ 0x80

          return HAL_TIMEOUT;
 8103c3c:	2303      	movs	r3, #3
 8103c3e:	e02c      	b.n	8103c9a <HAL_SPI_Transmit+0x3ce>
    while (hspi->TxXferCount > 0UL)
 8103c40:	68fb      	ldr	r3, [r7, #12]
 8103c42:	f8b3 3062 	ldrh.w	r3, [r3, #98]	@ 0x62
 8103c46:	b29b      	uxth	r3, r3
 8103c48:	2b00      	cmp	r3, #0
 8103c4a:	f47f af7b 	bne.w	8103b44 <HAL_SPI_Transmit+0x278>
      }
    }
  }

  /* Wait for Tx (and CRC) data to be sent */
  if (SPI_WaitOnFlagUntilTimeout(hspi, SPI_FLAG_EOT, RESET, Timeout, tickstart) != HAL_OK)
 8103c4e:	693b      	ldr	r3, [r7, #16]
 8103c50:	9300      	str	r3, [sp, #0]
 8103c52:	683b      	ldr	r3, [r7, #0]
 8103c54:	2200      	movs	r2, #0
 8103c56:	2108      	movs	r1, #8
 8103c58:	68f8      	ldr	r0, [r7, #12]
 8103c5a:	f000 fe6b 	bl	8104934 <SPI_WaitOnFlagUntilTimeout>
 8103c5e:	4603      	mov	r3, r0
 8103c60:	2b00      	cmp	r3, #0
 8103c62:	d007      	beq.n	8103c74 <HAL_SPI_Transmit+0x3a8>
  {
    SET_BIT(hspi->ErrorCode, HAL_SPI_ERROR_FLAG);
 8103c64:	68fb      	ldr	r3, [r7, #12]
 8103c66:	f8d3 3084 	ldr.w	r3, [r3, #132]	@ 0x84
 8103c6a:	f043 0220 	orr.w	r2, r3, #32
 8103c6e:	68fb      	ldr	r3, [r7, #12]
 8103c70:	f8c3 2084 	str.w	r2, [r3, #132]	@ 0x84
  }

  /* Call standard close procedure with error check */
  SPI_CloseTransfer(hspi);
 8103c74:	68f8      	ldr	r0, [r7, #12]
 8103c76:	f000 fdbd 	bl	81047f4 <SPI_CloseTransfer>

  hspi->State = HAL_SPI_STATE_READY;
 8103c7a:	68fb      	ldr	r3, [r7, #12]
 8103c7c:	2201      	movs	r2, #1
 8103c7e:	f883 2081 	strb.w	r2, [r3, #129]	@ 0x81

  /* Unlock the process */
  __HAL_UNLOCK(hspi);
 8103c82:	68fb      	ldr	r3, [r7, #12]
 8103c84:	2200      	movs	r2, #0
 8103c86:	f883 2080 	strb.w	r2, [r3, #128]	@ 0x80

  if (hspi->ErrorCode != HAL_SPI_ERROR_NONE)
 8103c8a:	68fb      	ldr	r3, [r7, #12]
 8103c8c:	f8d3 3084 	ldr.w	r3, [r3, #132]	@ 0x84
 8103c90:	2b00      	cmp	r3, #0
 8103c92:	d001      	beq.n	8103c98 <HAL_SPI_Transmit+0x3cc>
  {
    return HAL_ERROR;
 8103c94:	2301      	movs	r3, #1
 8103c96:	e000      	b.n	8103c9a <HAL_SPI_Transmit+0x3ce>
  }
  else
  {
    return HAL_OK;
 8103c98:	2300      	movs	r3, #0
  }
}
 8103c9a:	4618      	mov	r0, r3
 8103c9c:	3718      	adds	r7, #24
 8103c9e:	46bd      	mov	sp, r7
 8103ca0:	bd80      	pop	{r7, pc}

08103ca2 <HAL_SPI_Receive>:
  * @param  Size   : amount of data to be received
  * @param  Timeout: Timeout duration
  * @retval HAL status
  */
HAL_StatusTypeDef HAL_SPI_Receive(SPI_HandleTypeDef *hspi, uint8_t *pData, uint16_t Size, uint32_t Timeout)
{
 8103ca2:	b580      	push	{r7, lr}
 8103ca4:	b088      	sub	sp, #32
 8103ca6:	af00      	add	r7, sp, #0
 8103ca8:	60f8      	str	r0, [r7, #12]
 8103caa:	60b9      	str	r1, [r7, #8]
 8103cac:	603b      	str	r3, [r7, #0]
 8103cae:	4613      	mov	r3, r2
 8103cb0:	80fb      	strh	r3, [r7, #6]
  uint32_t tickstart;
  uint32_t temp_sr_reg;
  uint16_t init_max_data_in_fifo;
  init_max_data_in_fifo = (((uint16_t)(hspi->Init.FifoThreshold >> 5U) + 1U));
 8103cb2:	68fb      	ldr	r3, [r7, #12]
 8103cb4:	6bdb      	ldr	r3, [r3, #60]	@ 0x3c
 8103cb6:	095b      	lsrs	r3, r3, #5
 8103cb8:	b29b      	uxth	r3, r3
 8103cba:	3301      	adds	r3, #1
 8103cbc:	83fb      	strh	r3, [r7, #30]
#if defined (__GNUC__)
  __IO uint16_t *prxdr_16bits = (__IO uint16_t *)(&(hspi->Instance->RXDR));
 8103cbe:	68fb      	ldr	r3, [r7, #12]
 8103cc0:	681b      	ldr	r3, [r3, #0]
 8103cc2:	3330      	adds	r3, #48	@ 0x30
 8103cc4:	61bb      	str	r3, [r7, #24]

  /* Check Direction parameter */
  assert_param(IS_SPI_DIRECTION_2LINES_OR_1LINE_2LINES_RXONLY(hspi->Init.Direction));

  /* Init tickstart for timeout management*/
  tickstart = HAL_GetTick();
 8103cc6:	f7fd fc4f 	bl	8101568 <HAL_GetTick>
 8103cca:	6178      	str	r0, [r7, #20]

  if (hspi->State != HAL_SPI_STATE_READY)
 8103ccc:	68fb      	ldr	r3, [r7, #12]
 8103cce:	f893 3081 	ldrb.w	r3, [r3, #129]	@ 0x81
 8103cd2:	b2db      	uxtb	r3, r3
 8103cd4:	2b01      	cmp	r3, #1
 8103cd6:	d001      	beq.n	8103cdc <HAL_SPI_Receive+0x3a>
  {
    return HAL_BUSY;
 8103cd8:	2302      	movs	r3, #2
 8103cda:	e24e      	b.n	810417a <HAL_SPI_Receive+0x4d8>
  }

  if ((pData == NULL) || (Size == 0UL))
 8103cdc:	68bb      	ldr	r3, [r7, #8]
 8103cde:	2b00      	cmp	r3, #0
 8103ce0:	d002      	beq.n	8103ce8 <HAL_SPI_Receive+0x46>
 8103ce2:	88fb      	ldrh	r3, [r7, #6]
 8103ce4:	2b00      	cmp	r3, #0
 8103ce6:	d101      	bne.n	8103cec <HAL_SPI_Receive+0x4a>
  {
    return HAL_ERROR;
 8103ce8:	2301      	movs	r3, #1
 8103cea:	e246      	b.n	810417a <HAL_SPI_Receive+0x4d8>
  }

  /* Lock the process */
  __HAL_LOCK(hspi);
 8103cec:	68fb      	ldr	r3, [r7, #12]
 8103cee:	f893 3080 	ldrb.w	r3, [r3, #128]	@ 0x80
 8103cf2:	2b01      	cmp	r3, #1
 8103cf4:	d101      	bne.n	8103cfa <HAL_SPI_Receive+0x58>
 8103cf6:	2302      	movs	r3, #2
 8103cf8:	e23f      	b.n	810417a <HAL_SPI_Receive+0x4d8>
 8103cfa:	68fb      	ldr	r3, [r7, #12]
 8103cfc:	2201      	movs	r2, #1
 8103cfe:	f883 2080 	strb.w	r2, [r3, #128]	@ 0x80

  /* Set the transaction information */
  hspi->State       = HAL_SPI_STATE_BUSY_RX;
 8103d02:	68fb      	ldr	r3, [r7, #12]
 8103d04:	2204      	movs	r2, #4
 8103d06:	f883 2081 	strb.w	r2, [r3, #129]	@ 0x81
  hspi->ErrorCode   = HAL_SPI_ERROR_NONE;
 8103d0a:	68fb      	ldr	r3, [r7, #12]
 8103d0c:	2200      	movs	r2, #0
 8103d0e:	f8c3 2084 	str.w	r2, [r3, #132]	@ 0x84
  hspi->pRxBuffPtr  = (uint8_t *)pData;
 8103d12:	68fb      	ldr	r3, [r7, #12]
 8103d14:	68ba      	ldr	r2, [r7, #8]
 8103d16:	665a      	str	r2, [r3, #100]	@ 0x64
  hspi->RxXferSize  = Size;
 8103d18:	68fb      	ldr	r3, [r7, #12]
 8103d1a:	88fa      	ldrh	r2, [r7, #6]
 8103d1c:	f8a3 2068 	strh.w	r2, [r3, #104]	@ 0x68
  hspi->RxXferCount = Size;
 8103d20:	68fb      	ldr	r3, [r7, #12]
 8103d22:	88fa      	ldrh	r2, [r7, #6]
 8103d24:	f8a3 206a 	strh.w	r2, [r3, #106]	@ 0x6a

  /*Init field not used in handle to zero */
  hspi->pTxBuffPtr  = NULL;
 8103d28:	68fb      	ldr	r3, [r7, #12]
 8103d2a:	2200      	movs	r2, #0
 8103d2c:	65da      	str	r2, [r3, #92]	@ 0x5c
  hspi->TxXferSize  = (uint16_t) 0UL;
 8103d2e:	68fb      	ldr	r3, [r7, #12]
 8103d30:	2200      	movs	r2, #0
 8103d32:	f8a3 2060 	strh.w	r2, [r3, #96]	@ 0x60
  hspi->TxXferCount = (uint16_t) 0UL;
 8103d36:	68fb      	ldr	r3, [r7, #12]
 8103d38:	2200      	movs	r2, #0
 8103d3a:	f8a3 2062 	strh.w	r2, [r3, #98]	@ 0x62
  hspi->RxISR       = NULL;
 8103d3e:	68fb      	ldr	r3, [r7, #12]
 8103d40:	2200      	movs	r2, #0
 8103d42:	671a      	str	r2, [r3, #112]	@ 0x70
  hspi->TxISR       = NULL;
 8103d44:	68fb      	ldr	r3, [r7, #12]
 8103d46:	2200      	movs	r2, #0
 8103d48:	675a      	str	r2, [r3, #116]	@ 0x74

  /* Configure communication direction: 1Line */
  if (hspi->Init.Direction == SPI_DIRECTION_1LINE)
 8103d4a:	68fb      	ldr	r3, [r7, #12]
 8103d4c:	689b      	ldr	r3, [r3, #8]
 8103d4e:	f5b3 2fc0 	cmp.w	r3, #393216	@ 0x60000
 8103d52:	d108      	bne.n	8103d66 <HAL_SPI_Receive+0xc4>
  {
    SPI_1LINE_RX(hspi);
 8103d54:	68fb      	ldr	r3, [r7, #12]
 8103d56:	681b      	ldr	r3, [r3, #0]
 8103d58:	681a      	ldr	r2, [r3, #0]
 8103d5a:	68fb      	ldr	r3, [r7, #12]
 8103d5c:	681b      	ldr	r3, [r3, #0]
 8103d5e:	f422 6200 	bic.w	r2, r2, #2048	@ 0x800
 8103d62:	601a      	str	r2, [r3, #0]
 8103d64:	e009      	b.n	8103d7a <HAL_SPI_Receive+0xd8>
  }
  else
  {
    SPI_2LINES_RX(hspi);
 8103d66:	68fb      	ldr	r3, [r7, #12]
 8103d68:	681b      	ldr	r3, [r3, #0]
 8103d6a:	68db      	ldr	r3, [r3, #12]
 8103d6c:	f423 22c0 	bic.w	r2, r3, #393216	@ 0x60000
 8103d70:	68fb      	ldr	r3, [r7, #12]
 8103d72:	681b      	ldr	r3, [r3, #0]
 8103d74:	f442 2280 	orr.w	r2, r2, #262144	@ 0x40000
 8103d78:	60da      	str	r2, [r3, #12]
  }

  /* Set the number of data at current transfer */
  MODIFY_REG(hspi->Instance->CR2, SPI_CR2_TSIZE, Size);
 8103d7a:	68fb      	ldr	r3, [r7, #12]
 8103d7c:	681b      	ldr	r3, [r3, #0]
 8103d7e:	685b      	ldr	r3, [r3, #4]
 8103d80:	0c1b      	lsrs	r3, r3, #16
 8103d82:	041b      	lsls	r3, r3, #16
 8103d84:	88f9      	ldrh	r1, [r7, #6]
 8103d86:	68fa      	ldr	r2, [r7, #12]
 8103d88:	6812      	ldr	r2, [r2, #0]
 8103d8a:	430b      	orrs	r3, r1
 8103d8c:	6053      	str	r3, [r2, #4]

  /* Enable SPI peripheral */
  __HAL_SPI_ENABLE(hspi);
 8103d8e:	68fb      	ldr	r3, [r7, #12]
 8103d90:	681b      	ldr	r3, [r3, #0]
 8103d92:	681a      	ldr	r2, [r3, #0]
 8103d94:	68fb      	ldr	r3, [r7, #12]
 8103d96:	681b      	ldr	r3, [r3, #0]
 8103d98:	f042 0201 	orr.w	r2, r2, #1
 8103d9c:	601a      	str	r2, [r3, #0]

  if (hspi->Init.Mode == SPI_MODE_MASTER)
 8103d9e:	68fb      	ldr	r3, [r7, #12]
 8103da0:	685b      	ldr	r3, [r3, #4]
 8103da2:	f5b3 0f80 	cmp.w	r3, #4194304	@ 0x400000
 8103da6:	d107      	bne.n	8103db8 <HAL_SPI_Receive+0x116>
  {
    /* Master transfer start */
    SET_BIT(hspi->Instance->CR1, SPI_CR1_CSTART);
 8103da8:	68fb      	ldr	r3, [r7, #12]
 8103daa:	681b      	ldr	r3, [r3, #0]
 8103dac:	681a      	ldr	r2, [r3, #0]
 8103dae:	68fb      	ldr	r3, [r7, #12]
 8103db0:	681b      	ldr	r3, [r3, #0]
 8103db2:	f442 7200 	orr.w	r2, r2, #512	@ 0x200
 8103db6:	601a      	str	r2, [r3, #0]
  }

  /* Receive data in 32 Bit mode */
  if (hspi->Init.DataSize > SPI_DATASIZE_16BIT)
 8103db8:	68fb      	ldr	r3, [r7, #12]
 8103dba:	68db      	ldr	r3, [r3, #12]
 8103dbc:	2b0f      	cmp	r3, #15
 8103dbe:	d96c      	bls.n	8103e9a <HAL_SPI_Receive+0x1f8>
  {
    /* Transfer loop */
    while (hspi->RxXferCount > 0UL)
 8103dc0:	e064      	b.n	8103e8c <HAL_SPI_Receive+0x1ea>
    {
      /* Evaluate state of SR register */
      temp_sr_reg = hspi->Instance->SR;
 8103dc2:	68fb      	ldr	r3, [r7, #12]
 8103dc4:	681b      	ldr	r3, [r3, #0]
 8103dc6:	695b      	ldr	r3, [r3, #20]
 8103dc8:	613b      	str	r3, [r7, #16]

      /* Check the RXP flag */
      if (__HAL_SPI_GET_FLAG(hspi, SPI_FLAG_RXP))
 8103dca:	68fb      	ldr	r3, [r7, #12]
 8103dcc:	681b      	ldr	r3, [r3, #0]
 8103dce:	695b      	ldr	r3, [r3, #20]
 8103dd0:	f003 0301 	and.w	r3, r3, #1
 8103dd4:	2b01      	cmp	r3, #1
 8103dd6:	d114      	bne.n	8103e02 <HAL_SPI_Receive+0x160>
      {
        *((uint32_t *)hspi->pRxBuffPtr) = *((__IO uint32_t *)&hspi->Instance->RXDR);
 8103dd8:	68fb      	ldr	r3, [r7, #12]
 8103dda:	681a      	ldr	r2, [r3, #0]
 8103ddc:	68fb      	ldr	r3, [r7, #12]
 8103dde:	6e5b      	ldr	r3, [r3, #100]	@ 0x64
 8103de0:	6b12      	ldr	r2, [r2, #48]	@ 0x30
 8103de2:	601a      	str	r2, [r3, #0]
        hspi->pRxBuffPtr += sizeof(uint32_t);
 8103de4:	68fb      	ldr	r3, [r7, #12]
 8103de6:	6e5b      	ldr	r3, [r3, #100]	@ 0x64
 8103de8:	1d1a      	adds	r2, r3, #4
 8103dea:	68fb      	ldr	r3, [r7, #12]
 8103dec:	665a      	str	r2, [r3, #100]	@ 0x64
        hspi->RxXferCount--;
 8103dee:	68fb      	ldr	r3, [r7, #12]
 8103df0:	f8b3 306a 	ldrh.w	r3, [r3, #106]	@ 0x6a
 8103df4:	b29b      	uxth	r3, r3
 8103df6:	3b01      	subs	r3, #1
 8103df8:	b29a      	uxth	r2, r3
 8103dfa:	68fb      	ldr	r3, [r7, #12]
 8103dfc:	f8a3 206a 	strh.w	r2, [r3, #106]	@ 0x6a
 8103e00:	e044      	b.n	8103e8c <HAL_SPI_Receive+0x1ea>
      }
      /* Check RXWNE flag if RXP cannot be reached */
      else if ((hspi->RxXferCount < init_max_data_in_fifo) && ((temp_sr_reg & SPI_SR_RXWNE_Msk) != 0UL))
 8103e02:	68fb      	ldr	r3, [r7, #12]
 8103e04:	f8b3 306a 	ldrh.w	r3, [r3, #106]	@ 0x6a
 8103e08:	b29b      	uxth	r3, r3
 8103e0a:	8bfa      	ldrh	r2, [r7, #30]
 8103e0c:	429a      	cmp	r2, r3
 8103e0e:	d919      	bls.n	8103e44 <HAL_SPI_Receive+0x1a2>
 8103e10:	693b      	ldr	r3, [r7, #16]
 8103e12:	f403 4300 	and.w	r3, r3, #32768	@ 0x8000
 8103e16:	2b00      	cmp	r3, #0
 8103e18:	d014      	beq.n	8103e44 <HAL_SPI_Receive+0x1a2>
      {
        *((uint32_t *)hspi->pRxBuffPtr) = *((__IO uint32_t *)&hspi->Instance->RXDR);
 8103e1a:	68fb      	ldr	r3, [r7, #12]
 8103e1c:	681a      	ldr	r2, [r3, #0]
 8103e1e:	68fb      	ldr	r3, [r7, #12]
 8103e20:	6e5b      	ldr	r3, [r3, #100]	@ 0x64
 8103e22:	6b12      	ldr	r2, [r2, #48]	@ 0x30
 8103e24:	601a      	str	r2, [r3, #0]
        hspi->pRxBuffPtr += sizeof(uint32_t);
 8103e26:	68fb      	ldr	r3, [r7, #12]
 8103e28:	6e5b      	ldr	r3, [r3, #100]	@ 0x64
 8103e2a:	1d1a      	adds	r2, r3, #4
 8103e2c:	68fb      	ldr	r3, [r7, #12]
 8103e2e:	665a      	str	r2, [r3, #100]	@ 0x64
        hspi->RxXferCount--;
 8103e30:	68fb      	ldr	r3, [r7, #12]
 8103e32:	f8b3 306a 	ldrh.w	r3, [r3, #106]	@ 0x6a
 8103e36:	b29b      	uxth	r3, r3
 8103e38:	3b01      	subs	r3, #1
 8103e3a:	b29a      	uxth	r2, r3
 8103e3c:	68fb      	ldr	r3, [r7, #12]
 8103e3e:	f8a3 206a 	strh.w	r2, [r3, #106]	@ 0x6a
 8103e42:	e023      	b.n	8103e8c <HAL_SPI_Receive+0x1ea>
      }
      else
      {
        /* Timeout management */
        if ((((HAL_GetTick() - tickstart) >=  Timeout) && (Timeout != HAL_MAX_DELAY)) || (Timeout == 0U))
 8103e44:	f7fd fb90 	bl	8101568 <HAL_GetTick>
 8103e48:	4602      	mov	r2, r0
 8103e4a:	697b      	ldr	r3, [r7, #20]
 8103e4c:	1ad3      	subs	r3, r2, r3
 8103e4e:	683a      	ldr	r2, [r7, #0]
 8103e50:	429a      	cmp	r2, r3
 8103e52:	d803      	bhi.n	8103e5c <HAL_SPI_Receive+0x1ba>
 8103e54:	683b      	ldr	r3, [r7, #0]
 8103e56:	f1b3 3fff 	cmp.w	r3, #4294967295
 8103e5a:	d102      	bne.n	8103e62 <HAL_SPI_Receive+0x1c0>
 8103e5c:	683b      	ldr	r3, [r7, #0]
 8103e5e:	2b00      	cmp	r3, #0
 8103e60:	d114      	bne.n	8103e8c <HAL_SPI_Receive+0x1ea>
        {
          /* Call standard close procedure with error check */
          SPI_CloseTransfer(hspi);
 8103e62:	68f8      	ldr	r0, [r7, #12]
 8103e64:	f000 fcc6 	bl	81047f4 <SPI_CloseTransfer>

          SET_BIT(hspi->ErrorCode, HAL_SPI_ERROR_TIMEOUT);
 8103e68:	68fb      	ldr	r3, [r7, #12]
 8103e6a:	f8d3 3084 	ldr.w	r3, [r3, #132]	@ 0x84
 8103e6e:	f443 7280 	orr.w	r2, r3, #256	@ 0x100
 8103e72:	68fb      	ldr	r3, [r7, #12]
 8103e74:	f8c3 2084 	str.w	r2, [r3, #132]	@ 0x84
          hspi->State = HAL_SPI_STATE_READY;
 8103e78:	68fb      	ldr	r3, [r7, #12]
 8103e7a:	2201      	movs	r2, #1
 8103e7c:	f883 2081 	strb.w	r2, [r3, #129]	@ 0x81

          /* Unlock the process */
          __HAL_UNLOCK(hspi);
 8103e80:	68fb      	ldr	r3, [r7, #12]
 8103e82:	2200      	movs	r2, #0
 8103e84:	f883 2080 	strb.w	r2, [r3, #128]	@ 0x80

          return HAL_TIMEOUT;
 8103e88:	2303      	movs	r3, #3
 8103e8a:	e176      	b.n	810417a <HAL_SPI_Receive+0x4d8>
    while (hspi->RxXferCount > 0UL)
 8103e8c:	68fb      	ldr	r3, [r7, #12]
 8103e8e:	f8b3 306a 	ldrh.w	r3, [r3, #106]	@ 0x6a
 8103e92:	b29b      	uxth	r3, r3
 8103e94:	2b00      	cmp	r3, #0
 8103e96:	d194      	bne.n	8103dc2 <HAL_SPI_Receive+0x120>
 8103e98:	e15c      	b.n	8104154 <HAL_SPI_Receive+0x4b2>
        }
      }
    }
  }
  /* Receive data in 16 Bit mode */
  else if (hspi->Init.DataSize > SPI_DATASIZE_8BIT)
 8103e9a:	68fb      	ldr	r3, [r7, #12]
 8103e9c:	68db      	ldr	r3, [r3, #12]
 8103e9e:	2b07      	cmp	r3, #7
 8103ea0:	f240 8151 	bls.w	8104146 <HAL_SPI_Receive+0x4a4>
  {
    /* Transfer loop */
    while (hspi->RxXferCount > 0UL)
 8103ea4:	e08f      	b.n	8103fc6 <HAL_SPI_Receive+0x324>
    {
      /* Evaluate state of SR register */
      temp_sr_reg = hspi->Instance->SR;
 8103ea6:	68fb      	ldr	r3, [r7, #12]
 8103ea8:	681b      	ldr	r3, [r3, #0]
 8103eaa:	695b      	ldr	r3, [r3, #20]
 8103eac:	613b      	str	r3, [r7, #16]

      /* Check the RXP flag */
      if (__HAL_SPI_GET_FLAG(hspi, SPI_FLAG_RXP))
 8103eae:	68fb      	ldr	r3, [r7, #12]
 8103eb0:	681b      	ldr	r3, [r3, #0]
 8103eb2:	695b      	ldr	r3, [r3, #20]
 8103eb4:	f003 0301 	and.w	r3, r3, #1
 8103eb8:	2b01      	cmp	r3, #1
 8103eba:	d114      	bne.n	8103ee6 <HAL_SPI_Receive+0x244>
      {
#if defined (__GNUC__)
        *((uint16_t *)hspi->pRxBuffPtr) = *prxdr_16bits;
 8103ebc:	68fb      	ldr	r3, [r7, #12]
 8103ebe:	6e5b      	ldr	r3, [r3, #100]	@ 0x64
 8103ec0:	69ba      	ldr	r2, [r7, #24]
 8103ec2:	8812      	ldrh	r2, [r2, #0]
 8103ec4:	b292      	uxth	r2, r2
 8103ec6:	801a      	strh	r2, [r3, #0]
#else
        *((uint16_t *)hspi->pRxBuffPtr) = *((__IO uint16_t *)&hspi->Instance->RXDR);
#endif /* __GNUC__ */
        hspi->pRxBuffPtr += sizeof(uint16_t);
 8103ec8:	68fb      	ldr	r3, [r7, #12]
 8103eca:	6e5b      	ldr	r3, [r3, #100]	@ 0x64
 8103ecc:	1c9a      	adds	r2, r3, #2
 8103ece:	68fb      	ldr	r3, [r7, #12]
 8103ed0:	665a      	str	r2, [r3, #100]	@ 0x64
        hspi->RxXferCount--;
 8103ed2:	68fb      	ldr	r3, [r7, #12]
 8103ed4:	f8b3 306a 	ldrh.w	r3, [r3, #106]	@ 0x6a
 8103ed8:	b29b      	uxth	r3, r3
 8103eda:	3b01      	subs	r3, #1
 8103edc:	b29a      	uxth	r2, r3
 8103ede:	68fb      	ldr	r3, [r7, #12]
 8103ee0:	f8a3 206a 	strh.w	r2, [r3, #106]	@ 0x6a
 8103ee4:	e06f      	b.n	8103fc6 <HAL_SPI_Receive+0x324>
      }
      /* Check RXWNE flag if RXP cannot be reached */
      else if ((hspi->RxXferCount < init_max_data_in_fifo) && ((temp_sr_reg & SPI_SR_RXWNE_Msk) != 0UL))
 8103ee6:	68fb      	ldr	r3, [r7, #12]
 8103ee8:	f8b3 306a 	ldrh.w	r3, [r3, #106]	@ 0x6a
 8103eec:	b29b      	uxth	r3, r3
 8103eee:	8bfa      	ldrh	r2, [r7, #30]
 8103ef0:	429a      	cmp	r2, r3
 8103ef2:	d924      	bls.n	8103f3e <HAL_SPI_Receive+0x29c>
 8103ef4:	693b      	ldr	r3, [r7, #16]
 8103ef6:	f403 4300 	and.w	r3, r3, #32768	@ 0x8000
 8103efa:	2b00      	cmp	r3, #0
 8103efc:	d01f      	beq.n	8103f3e <HAL_SPI_Receive+0x29c>
      {
#if defined (__GNUC__)
        *((uint16_t *)hspi->pRxBuffPtr) = *prxdr_16bits;
 8103efe:	68fb      	ldr	r3, [r7, #12]
 8103f00:	6e5b      	ldr	r3, [r3, #100]	@ 0x64
 8103f02:	69ba      	ldr	r2, [r7, #24]
 8103f04:	8812      	ldrh	r2, [r2, #0]
 8103f06:	b292      	uxth	r2, r2
 8103f08:	801a      	strh	r2, [r3, #0]
#else
        *((uint16_t *)hspi->pRxBuffPtr) = *((__IO uint16_t *)&hspi->Instance->RXDR);
#endif /* __GNUC__ */
        hspi->pRxBuffPtr += sizeof(uint16_t);
 8103f0a:	68fb      	ldr	r3, [r7, #12]
 8103f0c:	6e5b      	ldr	r3, [r3, #100]	@ 0x64
 8103f0e:	1c9a      	adds	r2, r3, #2
 8103f10:	68fb      	ldr	r3, [r7, #12]
 8103f12:	665a      	str	r2, [r3, #100]	@ 0x64
#if defined (__GNUC__)
        *((uint16_t *)hspi->pRxBuffPtr) = *prxdr_16bits;
 8103f14:	68fb      	ldr	r3, [r7, #12]
 8103f16:	6e5b      	ldr	r3, [r3, #100]	@ 0x64
 8103f18:	69ba      	ldr	r2, [r7, #24]
 8103f1a:	8812      	ldrh	r2, [r2, #0]
 8103f1c:	b292      	uxth	r2, r2
 8103f1e:	801a      	strh	r2, [r3, #0]
#else
        *((uint16_t *)hspi->pRxBuffPtr) = *((__IO uint16_t *)&hspi->Instance->RXDR);
#endif /* __GNUC__ */
        hspi->pRxBuffPtr += sizeof(uint16_t);
 8103f20:	68fb      	ldr	r3, [r7, #12]
 8103f22:	6e5b      	ldr	r3, [r3, #100]	@ 0x64
 8103f24:	1c9a      	adds	r2, r3, #2
 8103f26:	68fb      	ldr	r3, [r7, #12]
 8103f28:	665a      	str	r2, [r3, #100]	@ 0x64
        hspi->RxXferCount -= (uint16_t)2UL;
 8103f2a:	68fb      	ldr	r3, [r7, #12]
 8103f2c:	f8b3 306a 	ldrh.w	r3, [r3, #106]	@ 0x6a
 8103f30:	b29b      	uxth	r3, r3
 8103f32:	3b02      	subs	r3, #2
 8103f34:	b29a      	uxth	r2, r3
 8103f36:	68fb      	ldr	r3, [r7, #12]
 8103f38:	f8a3 206a 	strh.w	r2, [r3, #106]	@ 0x6a
 8103f3c:	e043      	b.n	8103fc6 <HAL_SPI_Receive+0x324>
      }
      /* Check RXPLVL flags when RXWNE cannot be reached */
      else if ((hspi->RxXferCount == 1UL) && ((temp_sr_reg & SPI_SR_RXPLVL_0) != 0UL))
 8103f3e:	68fb      	ldr	r3, [r7, #12]
 8103f40:	f8b3 306a 	ldrh.w	r3, [r3, #106]	@ 0x6a
 8103f44:	b29b      	uxth	r3, r3
 8103f46:	2b01      	cmp	r3, #1
 8103f48:	d119      	bne.n	8103f7e <HAL_SPI_Receive+0x2dc>
 8103f4a:	693b      	ldr	r3, [r7, #16]
 8103f4c:	f403 5300 	and.w	r3, r3, #8192	@ 0x2000
 8103f50:	2b00      	cmp	r3, #0
 8103f52:	d014      	beq.n	8103f7e <HAL_SPI_Receive+0x2dc>
      {
#if defined (__GNUC__)
        *((uint16_t *)hspi->pRxBuffPtr) = *prxdr_16bits;
 8103f54:	68fb      	ldr	r3, [r7, #12]
 8103f56:	6e5b      	ldr	r3, [r3, #100]	@ 0x64
 8103f58:	69ba      	ldr	r2, [r7, #24]
 8103f5a:	8812      	ldrh	r2, [r2, #0]
 8103f5c:	b292      	uxth	r2, r2
 8103f5e:	801a      	strh	r2, [r3, #0]
#else
        *((uint16_t *)hspi->pRxBuffPtr) = *((__IO uint16_t *)&hspi->Instance->RXDR);
#endif /* __GNUC__ */
        hspi->pRxBuffPtr += sizeof(uint16_t);
 8103f60:	68fb      	ldr	r3, [r7, #12]
 8103f62:	6e5b      	ldr	r3, [r3, #100]	@ 0x64
 8103f64:	1c9a      	adds	r2, r3, #2
 8103f66:	68fb      	ldr	r3, [r7, #12]
 8103f68:	665a      	str	r2, [r3, #100]	@ 0x64
        hspi->RxXferCount--;
 8103f6a:	68fb      	ldr	r3, [r7, #12]
 8103f6c:	f8b3 306a 	ldrh.w	r3, [r3, #106]	@ 0x6a
 8103f70:	b29b      	uxth	r3, r3
 8103f72:	3b01      	subs	r3, #1
 8103f74:	b29a      	uxth	r2, r3
 8103f76:	68fb      	ldr	r3, [r7, #12]
 8103f78:	f8a3 206a 	strh.w	r2, [r3, #106]	@ 0x6a
 8103f7c:	e023      	b.n	8103fc6 <HAL_SPI_Receive+0x324>
      }
      else
      {
        /* Timeout management */
        if ((((HAL_GetTick() - tickstart) >=  Timeout) && (Timeout != HAL_MAX_DELAY)) || (Timeout == 0U))
 8103f7e:	f7fd faf3 	bl	8101568 <HAL_GetTick>
 8103f82:	4602      	mov	r2, r0
 8103f84:	697b      	ldr	r3, [r7, #20]
 8103f86:	1ad3      	subs	r3, r2, r3
 8103f88:	683a      	ldr	r2, [r7, #0]
 8103f8a:	429a      	cmp	r2, r3
 8103f8c:	d803      	bhi.n	8103f96 <HAL_SPI_Receive+0x2f4>
 8103f8e:	683b      	ldr	r3, [r7, #0]
 8103f90:	f1b3 3fff 	cmp.w	r3, #4294967295
 8103f94:	d102      	bne.n	8103f9c <HAL_SPI_Receive+0x2fa>
 8103f96:	683b      	ldr	r3, [r7, #0]
 8103f98:	2b00      	cmp	r3, #0
 8103f9a:	d114      	bne.n	8103fc6 <HAL_SPI_Receive+0x324>
        {
          /* Call standard close procedure with error check */
          SPI_CloseTransfer(hspi);
 8103f9c:	68f8      	ldr	r0, [r7, #12]
 8103f9e:	f000 fc29 	bl	81047f4 <SPI_CloseTransfer>

          SET_BIT(hspi->ErrorCode, HAL_SPI_ERROR_TIMEOUT);
 8103fa2:	68fb      	ldr	r3, [r7, #12]
 8103fa4:	f8d3 3084 	ldr.w	r3, [r3, #132]	@ 0x84
 8103fa8:	f443 7280 	orr.w	r2, r3, #256	@ 0x100
 8103fac:	68fb      	ldr	r3, [r7, #12]
 8103fae:	f8c3 2084 	str.w	r2, [r3, #132]	@ 0x84
          hspi->State = HAL_SPI_STATE_READY;
 8103fb2:	68fb      	ldr	r3, [r7, #12]
 8103fb4:	2201      	movs	r2, #1
 8103fb6:	f883 2081 	strb.w	r2, [r3, #129]	@ 0x81

          /* Unlock the process */
          __HAL_UNLOCK(hspi);
 8103fba:	68fb      	ldr	r3, [r7, #12]
 8103fbc:	2200      	movs	r2, #0
 8103fbe:	f883 2080 	strb.w	r2, [r3, #128]	@ 0x80

          return HAL_TIMEOUT;
 8103fc2:	2303      	movs	r3, #3
 8103fc4:	e0d9      	b.n	810417a <HAL_SPI_Receive+0x4d8>
    while (hspi->RxXferCount > 0UL)
 8103fc6:	68fb      	ldr	r3, [r7, #12]
 8103fc8:	f8b3 306a 	ldrh.w	r3, [r3, #106]	@ 0x6a
 8103fcc:	b29b      	uxth	r3, r3
 8103fce:	2b00      	cmp	r3, #0
 8103fd0:	f47f af69 	bne.w	8103ea6 <HAL_SPI_Receive+0x204>
 8103fd4:	e0be      	b.n	8104154 <HAL_SPI_Receive+0x4b2>
  {
    /* Transfer loop */
    while (hspi->RxXferCount > 0UL)
    {
      /* Evaluate state of SR register */
      temp_sr_reg = hspi->Instance->SR;
 8103fd6:	68fb      	ldr	r3, [r7, #12]
 8103fd8:	681b      	ldr	r3, [r3, #0]
 8103fda:	695b      	ldr	r3, [r3, #20]
 8103fdc:	613b      	str	r3, [r7, #16]

      /* Check the RXP flag */
      if (__HAL_SPI_GET_FLAG(hspi, SPI_FLAG_RXP))
 8103fde:	68fb      	ldr	r3, [r7, #12]
 8103fe0:	681b      	ldr	r3, [r3, #0]
 8103fe2:	695b      	ldr	r3, [r3, #20]
 8103fe4:	f003 0301 	and.w	r3, r3, #1
 8103fe8:	2b01      	cmp	r3, #1
 8103fea:	d117      	bne.n	810401c <HAL_SPI_Receive+0x37a>
      {
        *((uint8_t *)hspi->pRxBuffPtr) = *((__IO uint8_t *)&hspi->Instance->RXDR);
 8103fec:	68fb      	ldr	r3, [r7, #12]
 8103fee:	681b      	ldr	r3, [r3, #0]
 8103ff0:	f103 0230 	add.w	r2, r3, #48	@ 0x30
 8103ff4:	68fb      	ldr	r3, [r7, #12]
 8103ff6:	6e5b      	ldr	r3, [r3, #100]	@ 0x64
 8103ff8:	7812      	ldrb	r2, [r2, #0]
 8103ffa:	b2d2      	uxtb	r2, r2
 8103ffc:	701a      	strb	r2, [r3, #0]
        hspi->pRxBuffPtr += sizeof(uint8_t);
 8103ffe:	68fb      	ldr	r3, [r7, #12]
 8104000:	6e5b      	ldr	r3, [r3, #100]	@ 0x64
 8104002:	1c5a      	adds	r2, r3, #1
 8104004:	68fb      	ldr	r3, [r7, #12]
 8104006:	665a      	str	r2, [r3, #100]	@ 0x64
        hspi->RxXferCount--;
 8104008:	68fb      	ldr	r3, [r7, #12]
 810400a:	f8b3 306a 	ldrh.w	r3, [r3, #106]	@ 0x6a
 810400e:	b29b      	uxth	r3, r3
 8104010:	3b01      	subs	r3, #1
 8104012:	b29a      	uxth	r2, r3
 8104014:	68fb      	ldr	r3, [r7, #12]
 8104016:	f8a3 206a 	strh.w	r2, [r3, #106]	@ 0x6a
 810401a:	e094      	b.n	8104146 <HAL_SPI_Receive+0x4a4>
      }
      /* Check RXWNE flag if RXP cannot be reached */
      else if ((hspi->RxXferCount < init_max_data_in_fifo) && ((temp_sr_reg & SPI_SR_RXWNE_Msk) != 0UL))
 810401c:	68fb      	ldr	r3, [r7, #12]
 810401e:	f8b3 306a 	ldrh.w	r3, [r3, #106]	@ 0x6a
 8104022:	b29b      	uxth	r3, r3
 8104024:	8bfa      	ldrh	r2, [r7, #30]
 8104026:	429a      	cmp	r2, r3
 8104028:	d946      	bls.n	81040b8 <HAL_SPI_Receive+0x416>
 810402a:	693b      	ldr	r3, [r7, #16]
 810402c:	f403 4300 	and.w	r3, r3, #32768	@ 0x8000
 8104030:	2b00      	cmp	r3, #0
 8104032:	d041      	beq.n	81040b8 <HAL_SPI_Receive+0x416>
      {
        *((uint8_t *)hspi->pRxBuffPtr) = *((__IO uint8_t *)&hspi->Instance->RXDR);
 8104034:	68fb      	ldr	r3, [r7, #12]
 8104036:	681b      	ldr	r3, [r3, #0]
 8104038:	f103 0230 	add.w	r2, r3, #48	@ 0x30
 810403c:	68fb      	ldr	r3, [r7, #12]
 810403e:	6e5b      	ldr	r3, [r3, #100]	@ 0x64
 8104040:	7812      	ldrb	r2, [r2, #0]
 8104042:	b2d2      	uxtb	r2, r2
 8104044:	701a      	strb	r2, [r3, #0]
        hspi->pRxBuffPtr += sizeof(uint8_t);
 8104046:	68fb      	ldr	r3, [r7, #12]
 8104048:	6e5b      	ldr	r3, [r3, #100]	@ 0x64
 810404a:	1c5a      	adds	r2, r3, #1
 810404c:	68fb      	ldr	r3, [r7, #12]
 810404e:	665a      	str	r2, [r3, #100]	@ 0x64
        *((uint8_t *)hspi->pRxBuffPtr) = *((__IO uint8_t *)&hspi->Instance->RXDR);
 8104050:	68fb      	ldr	r3, [r7, #12]
 8104052:	681b      	ldr	r3, [r3, #0]
 8104054:	f103 0230 	add.w	r2, r3, #48	@ 0x30
 8104058:	68fb      	ldr	r3, [r7, #12]
 810405a:	6e5b      	ldr	r3, [r3, #100]	@ 0x64
 810405c:	7812      	ldrb	r2, [r2, #0]
 810405e:	b2d2      	uxtb	r2, r2
 8104060:	701a      	strb	r2, [r3, #0]
        hspi->pRxBuffPtr += sizeof(uint8_t);
 8104062:	68fb      	ldr	r3, [r7, #12]
 8104064:	6e5b      	ldr	r3, [r3, #100]	@ 0x64
 8104066:	1c5a      	adds	r2, r3, #1
 8104068:	68fb      	ldr	r3, [r7, #12]
 810406a:	665a      	str	r2, [r3, #100]	@ 0x64
        *((uint8_t *)hspi->pRxBuffPtr) = *((__IO uint8_t *)&hspi->Instance->RXDR);
 810406c:	68fb      	ldr	r3, [r7, #12]
 810406e:	681b      	ldr	r3, [r3, #0]
 8104070:	f103 0230 	add.w	r2, r3, #48	@ 0x30
 8104074:	68fb      	ldr	r3, [r7, #12]
 8104076:	6e5b      	ldr	r3, [r3, #100]	@ 0x64
 8104078:	7812      	ldrb	r2, [r2, #0]
 810407a:	b2d2      	uxtb	r2, r2
 810407c:	701a      	strb	r2, [r3, #0]
        hspi->pRxBuffPtr += sizeof(uint8_t);
 810407e:	68fb      	ldr	r3, [r7, #12]
 8104080:	6e5b      	ldr	r3, [r3, #100]	@ 0x64
 8104082:	1c5a      	adds	r2, r3, #1
 8104084:	68fb      	ldr	r3, [r7, #12]
 8104086:	665a      	str	r2, [r3, #100]	@ 0x64
        *((uint8_t *)hspi->pRxBuffPtr) = *((__IO uint8_t *)&hspi->Instance->RXDR);
 8104088:	68fb      	ldr	r3, [r7, #12]
 810408a:	681b      	ldr	r3, [r3, #0]
 810408c:	f103 0230 	add.w	r2, r3, #48	@ 0x30
 8104090:	68fb      	ldr	r3, [r7, #12]
 8104092:	6e5b      	ldr	r3, [r3, #100]	@ 0x64
 8104094:	7812      	ldrb	r2, [r2, #0]
 8104096:	b2d2      	uxtb	r2, r2
 8104098:	701a      	strb	r2, [r3, #0]
        hspi->pRxBuffPtr += sizeof(uint8_t);
 810409a:	68fb      	ldr	r3, [r7, #12]
 810409c:	6e5b      	ldr	r3, [r3, #100]	@ 0x64
 810409e:	1c5a      	adds	r2, r3, #1
 81040a0:	68fb      	ldr	r3, [r7, #12]
 81040a2:	665a      	str	r2, [r3, #100]	@ 0x64
        hspi->RxXferCount -= (uint16_t)4UL;
 81040a4:	68fb      	ldr	r3, [r7, #12]
 81040a6:	f8b3 306a 	ldrh.w	r3, [r3, #106]	@ 0x6a
 81040aa:	b29b      	uxth	r3, r3
 81040ac:	3b04      	subs	r3, #4
 81040ae:	b29a      	uxth	r2, r3
 81040b0:	68fb      	ldr	r3, [r7, #12]
 81040b2:	f8a3 206a 	strh.w	r2, [r3, #106]	@ 0x6a
 81040b6:	e046      	b.n	8104146 <HAL_SPI_Receive+0x4a4>
      }
      /* Check RXPLVL flags when RXWNE cannot be reached */
      else if ((hspi->RxXferCount < 4UL) && ((temp_sr_reg & SPI_SR_RXPLVL_Msk) != 0UL))
 81040b8:	68fb      	ldr	r3, [r7, #12]
 81040ba:	f8b3 306a 	ldrh.w	r3, [r3, #106]	@ 0x6a
 81040be:	b29b      	uxth	r3, r3
 81040c0:	2b03      	cmp	r3, #3
 81040c2:	d81c      	bhi.n	81040fe <HAL_SPI_Receive+0x45c>
 81040c4:	693b      	ldr	r3, [r7, #16]
 81040c6:	f403 43c0 	and.w	r3, r3, #24576	@ 0x6000
 81040ca:	2b00      	cmp	r3, #0
 81040cc:	d017      	beq.n	81040fe <HAL_SPI_Receive+0x45c>
      {
        *((uint8_t *)hspi->pRxBuffPtr) = *((__IO uint8_t *)&hspi->Instance->RXDR);
 81040ce:	68fb      	ldr	r3, [r7, #12]
 81040d0:	681b      	ldr	r3, [r3, #0]
 81040d2:	f103 0230 	add.w	r2, r3, #48	@ 0x30
 81040d6:	68fb      	ldr	r3, [r7, #12]
 81040d8:	6e5b      	ldr	r3, [r3, #100]	@ 0x64
 81040da:	7812      	ldrb	r2, [r2, #0]
 81040dc:	b2d2      	uxtb	r2, r2
 81040de:	701a      	strb	r2, [r3, #0]
        hspi->pRxBuffPtr += sizeof(uint8_t);
 81040e0:	68fb      	ldr	r3, [r7, #12]
 81040e2:	6e5b      	ldr	r3, [r3, #100]	@ 0x64
 81040e4:	1c5a      	adds	r2, r3, #1
 81040e6:	68fb      	ldr	r3, [r7, #12]
 81040e8:	665a      	str	r2, [r3, #100]	@ 0x64
        hspi->RxXferCount--;
 81040ea:	68fb      	ldr	r3, [r7, #12]
 81040ec:	f8b3 306a 	ldrh.w	r3, [r3, #106]	@ 0x6a
 81040f0:	b29b      	uxth	r3, r3
 81040f2:	3b01      	subs	r3, #1
 81040f4:	b29a      	uxth	r2, r3
 81040f6:	68fb      	ldr	r3, [r7, #12]
 81040f8:	f8a3 206a 	strh.w	r2, [r3, #106]	@ 0x6a
 81040fc:	e023      	b.n	8104146 <HAL_SPI_Receive+0x4a4>
      }
      else
      {
        /* Timeout management */
        if ((((HAL_GetTick() - tickstart) >=  Timeout) && (Timeout != HAL_MAX_DELAY)) || (Timeout == 0U))
 81040fe:	f7fd fa33 	bl	8101568 <HAL_GetTick>
 8104102:	4602      	mov	r2, r0
 8104104:	697b      	ldr	r3, [r7, #20]
 8104106:	1ad3      	subs	r3, r2, r3
 8104108:	683a      	ldr	r2, [r7, #0]
 810410a:	429a      	cmp	r2, r3
 810410c:	d803      	bhi.n	8104116 <HAL_SPI_Receive+0x474>
 810410e:	683b      	ldr	r3, [r7, #0]
 8104110:	f1b3 3fff 	cmp.w	r3, #4294967295
 8104114:	d102      	bne.n	810411c <HAL_SPI_Receive+0x47a>
 8104116:	683b      	ldr	r3, [r7, #0]
 8104118:	2b00      	cmp	r3, #0
 810411a:	d114      	bne.n	8104146 <HAL_SPI_Receive+0x4a4>
        {
          /* Call standard close procedure with error check */
          SPI_CloseTransfer(hspi);
 810411c:	68f8      	ldr	r0, [r7, #12]
 810411e:	f000 fb69 	bl	81047f4 <SPI_CloseTransfer>

          SET_BIT(hspi->ErrorCode, HAL_SPI_ERROR_TIMEOUT);
 8104122:	68fb      	ldr	r3, [r7, #12]
 8104124:	f8d3 3084 	ldr.w	r3, [r3, #132]	@ 0x84
 8104128:	f443 7280 	orr.w	r2, r3, #256	@ 0x100
 810412c:	68fb      	ldr	r3, [r7, #12]
 810412e:	f8c3 2084 	str.w	r2, [r3, #132]	@ 0x84
          hspi->State = HAL_SPI_STATE_READY;
 8104132:	68fb      	ldr	r3, [r7, #12]
 8104134:	2201      	movs	r2, #1
 8104136:	f883 2081 	strb.w	r2, [r3, #129]	@ 0x81

          /* Unlock the process */
          __HAL_UNLOCK(hspi);
 810413a:	68fb      	ldr	r3, [r7, #12]
 810413c:	2200      	movs	r2, #0
 810413e:	f883 2080 	strb.w	r2, [r3, #128]	@ 0x80

          return HAL_TIMEOUT;
 8104142:	2303      	movs	r3, #3
 8104144:	e019      	b.n	810417a <HAL_SPI_Receive+0x4d8>
    while (hspi->RxXferCount > 0UL)
 8104146:	68fb      	ldr	r3, [r7, #12]
 8104148:	f8b3 306a 	ldrh.w	r3, [r3, #106]	@ 0x6a
 810414c:	b29b      	uxth	r3, r3
 810414e:	2b00      	cmp	r3, #0
 8104150:	f47f af41 	bne.w	8103fd6 <HAL_SPI_Receive+0x334>
    }
  }
#endif /* USE_SPI_CRC */

  /* Call standard close procedure with error check */
  SPI_CloseTransfer(hspi);
 8104154:	68f8      	ldr	r0, [r7, #12]
 8104156:	f000 fb4d 	bl	81047f4 <SPI_CloseTransfer>

  hspi->State = HAL_SPI_STATE_READY;
 810415a:	68fb      	ldr	r3, [r7, #12]
 810415c:	2201      	movs	r2, #1
 810415e:	f883 2081 	strb.w	r2, [r3, #129]	@ 0x81

  /* Unlock the process */
  __HAL_UNLOCK(hspi);
 8104162:	68fb      	ldr	r3, [r7, #12]
 8104164:	2200      	movs	r2, #0
 8104166:	f883 2080 	strb.w	r2, [r3, #128]	@ 0x80


  if (hspi->ErrorCode != HAL_SPI_ERROR_NONE)
 810416a:	68fb      	ldr	r3, [r7, #12]
 810416c:	f8d3 3084 	ldr.w	r3, [r3, #132]	@ 0x84
 8104170:	2b00      	cmp	r3, #0
 8104172:	d001      	beq.n	8104178 <HAL_SPI_Receive+0x4d6>
  {
    return HAL_ERROR;
 8104174:	2301      	movs	r3, #1
 8104176:	e000      	b.n	810417a <HAL_SPI_Receive+0x4d8>
  }
  else
  {
    return HAL_OK;
 8104178:	2300      	movs	r3, #0
  }
}
 810417a:	4618      	mov	r0, r3
 810417c:	3720      	adds	r7, #32
 810417e:	46bd      	mov	sp, r7
 8104180:	bd80      	pop	{r7, pc}
	...

08104184 <HAL_SPI_TransmitReceive>:
  * @param  Timeout: Timeout duration
  * @retval HAL status
  */
HAL_StatusTypeDef HAL_SPI_TransmitReceive(SPI_HandleTypeDef *hspi, const uint8_t *pTxData, uint8_t *pRxData,
                                          uint16_t Size, uint32_t Timeout)
{
 8104184:	b580      	push	{r7, lr}
 8104186:	b08e      	sub	sp, #56	@ 0x38
 8104188:	af02      	add	r7, sp, #8
 810418a:	60f8      	str	r0, [r7, #12]
 810418c:	60b9      	str	r1, [r7, #8]
 810418e:	607a      	str	r2, [r7, #4]
 8104190:	807b      	strh	r3, [r7, #2]
#if defined (__GNUC__)
  __IO uint16_t *ptxdr_16bits = (__IO uint16_t *)(&(hspi->Instance->TXDR));
 8104192:	68fb      	ldr	r3, [r7, #12]
 8104194:	681b      	ldr	r3, [r3, #0]
 8104196:	3320      	adds	r3, #32
 8104198:	627b      	str	r3, [r7, #36]	@ 0x24
  __IO uint16_t *prxdr_16bits = (__IO uint16_t *)(&(hspi->Instance->RXDR));
 810419a:	68fb      	ldr	r3, [r7, #12]
 810419c:	681b      	ldr	r3, [r3, #0]
 810419e:	3330      	adds	r3, #48	@ 0x30
 81041a0:	623b      	str	r3, [r7, #32]
  uint32_t   fifo_length;
  uint32_t   temp_sr_reg;
  uint16_t   initial_TxXferCount;
  uint16_t   initial_RxXferCount;
  uint16_t   init_max_data_in_fifo;
  init_max_data_in_fifo = (((uint16_t)(hspi->Init.FifoThreshold >> 5U) + 1U));
 81041a2:	68fb      	ldr	r3, [r7, #12]
 81041a4:	6bdb      	ldr	r3, [r3, #60]	@ 0x3c
 81041a6:	095b      	lsrs	r3, r3, #5
 81041a8:	b29b      	uxth	r3, r3
 81041aa:	3301      	adds	r3, #1
 81041ac:	83fb      	strh	r3, [r7, #30]

  /* Check Direction parameter */
  assert_param(IS_SPI_DIRECTION_2LINES(hspi->Init.Direction));

  /* Init tickstart for timeout management*/
  tickstart = HAL_GetTick();
 81041ae:	f7fd f9db 	bl	8101568 <HAL_GetTick>
 81041b2:	61b8      	str	r0, [r7, #24]

  initial_TxXferCount = Size;
 81041b4:	887b      	ldrh	r3, [r7, #2]
 81041b6:	857b      	strh	r3, [r7, #42]	@ 0x2a
  initial_RxXferCount = Size;
 81041b8:	887b      	ldrh	r3, [r7, #2]
 81041ba:	853b      	strh	r3, [r7, #40]	@ 0x28

  if (hspi->State != HAL_SPI_STATE_READY)
 81041bc:	68fb      	ldr	r3, [r7, #12]
 81041be:	f893 3081 	ldrb.w	r3, [r3, #129]	@ 0x81
 81041c2:	b2db      	uxtb	r3, r3
 81041c4:	2b01      	cmp	r3, #1
 81041c6:	d001      	beq.n	81041cc <HAL_SPI_TransmitReceive+0x48>
  {
    return HAL_BUSY;
 81041c8:	2302      	movs	r3, #2
 81041ca:	e30e      	b.n	81047ea <HAL_SPI_TransmitReceive+0x666>
  }

  if ((pTxData == NULL) || (pRxData == NULL) || (Size == 0UL))
 81041cc:	68bb      	ldr	r3, [r7, #8]
 81041ce:	2b00      	cmp	r3, #0
 81041d0:	d005      	beq.n	81041de <HAL_SPI_TransmitReceive+0x5a>
 81041d2:	687b      	ldr	r3, [r7, #4]
 81041d4:	2b00      	cmp	r3, #0
 81041d6:	d002      	beq.n	81041de <HAL_SPI_TransmitReceive+0x5a>
 81041d8:	887b      	ldrh	r3, [r7, #2]
 81041da:	2b00      	cmp	r3, #0
 81041dc:	d101      	bne.n	81041e2 <HAL_SPI_TransmitReceive+0x5e>
  {
    return HAL_ERROR;
 81041de:	2301      	movs	r3, #1
 81041e0:	e303      	b.n	81047ea <HAL_SPI_TransmitReceive+0x666>
  }

  /* Lock the process */
  __HAL_LOCK(hspi);
 81041e2:	68fb      	ldr	r3, [r7, #12]
 81041e4:	f893 3080 	ldrb.w	r3, [r3, #128]	@ 0x80
 81041e8:	2b01      	cmp	r3, #1
 81041ea:	d101      	bne.n	81041f0 <HAL_SPI_TransmitReceive+0x6c>
 81041ec:	2302      	movs	r3, #2
 81041ee:	e2fc      	b.n	81047ea <HAL_SPI_TransmitReceive+0x666>
 81041f0:	68fb      	ldr	r3, [r7, #12]
 81041f2:	2201      	movs	r2, #1
 81041f4:	f883 2080 	strb.w	r2, [r3, #128]	@ 0x80

  /* Set the transaction information */
  hspi->State       = HAL_SPI_STATE_BUSY_TX_RX;
 81041f8:	68fb      	ldr	r3, [r7, #12]
 81041fa:	2205      	movs	r2, #5
 81041fc:	f883 2081 	strb.w	r2, [r3, #129]	@ 0x81
  hspi->ErrorCode   = HAL_SPI_ERROR_NONE;
 8104200:	68fb      	ldr	r3, [r7, #12]
 8104202:	2200      	movs	r2, #0
 8104204:	f8c3 2084 	str.w	r2, [r3, #132]	@ 0x84
  hspi->pRxBuffPtr  = (uint8_t *)pRxData;
 8104208:	68fb      	ldr	r3, [r7, #12]
 810420a:	687a      	ldr	r2, [r7, #4]
 810420c:	665a      	str	r2, [r3, #100]	@ 0x64
  hspi->RxXferCount = Size;
 810420e:	68fb      	ldr	r3, [r7, #12]
 8104210:	887a      	ldrh	r2, [r7, #2]
 8104212:	f8a3 206a 	strh.w	r2, [r3, #106]	@ 0x6a
  hspi->RxXferSize  = Size;
 8104216:	68fb      	ldr	r3, [r7, #12]
 8104218:	887a      	ldrh	r2, [r7, #2]
 810421a:	f8a3 2068 	strh.w	r2, [r3, #104]	@ 0x68
  hspi->pTxBuffPtr  = (const uint8_t *)pTxData;
 810421e:	68fb      	ldr	r3, [r7, #12]
 8104220:	68ba      	ldr	r2, [r7, #8]
 8104222:	65da      	str	r2, [r3, #92]	@ 0x5c
  hspi->TxXferCount = Size;
 8104224:	68fb      	ldr	r3, [r7, #12]
 8104226:	887a      	ldrh	r2, [r7, #2]
 8104228:	f8a3 2062 	strh.w	r2, [r3, #98]	@ 0x62
  hspi->TxXferSize  = Size;
 810422c:	68fb      	ldr	r3, [r7, #12]
 810422e:	887a      	ldrh	r2, [r7, #2]
 8104230:	f8a3 2060 	strh.w	r2, [r3, #96]	@ 0x60

  /*Init field not used in handle to zero */
  hspi->RxISR       = NULL;
 8104234:	68fb      	ldr	r3, [r7, #12]
 8104236:	2200      	movs	r2, #0
 8104238:	671a      	str	r2, [r3, #112]	@ 0x70
  hspi->TxISR       = NULL;
 810423a:	68fb      	ldr	r3, [r7, #12]
 810423c:	2200      	movs	r2, #0
 810423e:	675a      	str	r2, [r3, #116]	@ 0x74

  /* Set Full-Duplex mode */
  SPI_2LINES(hspi);
 8104240:	68fb      	ldr	r3, [r7, #12]
 8104242:	681b      	ldr	r3, [r3, #0]
 8104244:	68da      	ldr	r2, [r3, #12]
 8104246:	68fb      	ldr	r3, [r7, #12]
 8104248:	681b      	ldr	r3, [r3, #0]
 810424a:	f422 22c0 	bic.w	r2, r2, #393216	@ 0x60000
 810424e:	60da      	str	r2, [r3, #12]

  /* Initialize FIFO length */
  if (IS_SPI_HIGHEND_INSTANCE(hspi->Instance))
 8104250:	68fb      	ldr	r3, [r7, #12]
 8104252:	681b      	ldr	r3, [r3, #0]
 8104254:	4a70      	ldr	r2, [pc, #448]	@ (8104418 <HAL_SPI_TransmitReceive+0x294>)
 8104256:	4293      	cmp	r3, r2
 8104258:	d009      	beq.n	810426e <HAL_SPI_TransmitReceive+0xea>
 810425a:	68fb      	ldr	r3, [r7, #12]
 810425c:	681b      	ldr	r3, [r3, #0]
 810425e:	4a6f      	ldr	r2, [pc, #444]	@ (810441c <HAL_SPI_TransmitReceive+0x298>)
 8104260:	4293      	cmp	r3, r2
 8104262:	d004      	beq.n	810426e <HAL_SPI_TransmitReceive+0xea>
 8104264:	68fb      	ldr	r3, [r7, #12]
 8104266:	681b      	ldr	r3, [r3, #0]
 8104268:	4a6d      	ldr	r2, [pc, #436]	@ (8104420 <HAL_SPI_TransmitReceive+0x29c>)
 810426a:	4293      	cmp	r3, r2
 810426c:	d102      	bne.n	8104274 <HAL_SPI_TransmitReceive+0xf0>
  {
    fifo_length = SPI_HIGHEND_FIFO_SIZE;
 810426e:	2310      	movs	r3, #16
 8104270:	62fb      	str	r3, [r7, #44]	@ 0x2c
 8104272:	e001      	b.n	8104278 <HAL_SPI_TransmitReceive+0xf4>
  }
  else
  {
    fifo_length = SPI_LOWEND_FIFO_SIZE;
 8104274:	2308      	movs	r3, #8
 8104276:	62fb      	str	r3, [r7, #44]	@ 0x2c
  }

  /* Set the number of data at current transfer */
  MODIFY_REG(hspi->Instance->CR2, SPI_CR2_TSIZE, Size);
 8104278:	68fb      	ldr	r3, [r7, #12]
 810427a:	681b      	ldr	r3, [r3, #0]
 810427c:	685b      	ldr	r3, [r3, #4]
 810427e:	0c1b      	lsrs	r3, r3, #16
 8104280:	041b      	lsls	r3, r3, #16
 8104282:	8879      	ldrh	r1, [r7, #2]
 8104284:	68fa      	ldr	r2, [r7, #12]
 8104286:	6812      	ldr	r2, [r2, #0]
 8104288:	430b      	orrs	r3, r1
 810428a:	6053      	str	r3, [r2, #4]

  __HAL_SPI_ENABLE(hspi);
 810428c:	68fb      	ldr	r3, [r7, #12]
 810428e:	681b      	ldr	r3, [r3, #0]
 8104290:	681a      	ldr	r2, [r3, #0]
 8104292:	68fb      	ldr	r3, [r7, #12]
 8104294:	681b      	ldr	r3, [r3, #0]
 8104296:	f042 0201 	orr.w	r2, r2, #1
 810429a:	601a      	str	r2, [r3, #0]

  if (hspi->Init.Mode == SPI_MODE_MASTER)
 810429c:	68fb      	ldr	r3, [r7, #12]
 810429e:	685b      	ldr	r3, [r3, #4]
 81042a0:	f5b3 0f80 	cmp.w	r3, #4194304	@ 0x400000
 81042a4:	d107      	bne.n	81042b6 <HAL_SPI_TransmitReceive+0x132>
  {
    /* Master transfer start */
    SET_BIT(hspi->Instance->CR1, SPI_CR1_CSTART);
 81042a6:	68fb      	ldr	r3, [r7, #12]
 81042a8:	681b      	ldr	r3, [r3, #0]
 81042aa:	681a      	ldr	r2, [r3, #0]
 81042ac:	68fb      	ldr	r3, [r7, #12]
 81042ae:	681b      	ldr	r3, [r3, #0]
 81042b0:	f442 7200 	orr.w	r2, r2, #512	@ 0x200
 81042b4:	601a      	str	r2, [r3, #0]
  }

  /* Transmit and Receive data in 32 Bit mode */
  if (hspi->Init.DataSize > SPI_DATASIZE_16BIT)
 81042b6:	68fb      	ldr	r3, [r7, #12]
 81042b8:	68db      	ldr	r3, [r3, #12]
 81042ba:	2b0f      	cmp	r3, #15
 81042bc:	f240 80a2 	bls.w	8104404 <HAL_SPI_TransmitReceive+0x280>
  {
    /* Adapt fifo length to 32bits data width */
    fifo_length = (fifo_length / 4UL);
 81042c0:	6afb      	ldr	r3, [r7, #44]	@ 0x2c
 81042c2:	089b      	lsrs	r3, r3, #2
 81042c4:	62fb      	str	r3, [r7, #44]	@ 0x2c

    while ((initial_TxXferCount > 0UL) || (initial_RxXferCount > 0UL))
 81042c6:	e094      	b.n	81043f2 <HAL_SPI_TransmitReceive+0x26e>
    {
      /* Check TXP flag */
      if ((__HAL_SPI_GET_FLAG(hspi, SPI_FLAG_TXP)) && (initial_TxXferCount > 0UL) &&
 81042c8:	68fb      	ldr	r3, [r7, #12]
 81042ca:	681b      	ldr	r3, [r3, #0]
 81042cc:	695b      	ldr	r3, [r3, #20]
 81042ce:	f003 0302 	and.w	r3, r3, #2
 81042d2:	2b02      	cmp	r3, #2
 81042d4:	d120      	bne.n	8104318 <HAL_SPI_TransmitReceive+0x194>
 81042d6:	8d7b      	ldrh	r3, [r7, #42]	@ 0x2a
 81042d8:	2b00      	cmp	r3, #0
 81042da:	d01d      	beq.n	8104318 <HAL_SPI_TransmitReceive+0x194>
          (initial_RxXferCount  < (initial_TxXferCount + fifo_length)))
 81042dc:	8d3a      	ldrh	r2, [r7, #40]	@ 0x28
 81042de:	8d79      	ldrh	r1, [r7, #42]	@ 0x2a
 81042e0:	6afb      	ldr	r3, [r7, #44]	@ 0x2c
 81042e2:	440b      	add	r3, r1
      if ((__HAL_SPI_GET_FLAG(hspi, SPI_FLAG_TXP)) && (initial_TxXferCount > 0UL) &&
 81042e4:	429a      	cmp	r2, r3
 81042e6:	d217      	bcs.n	8104318 <HAL_SPI_TransmitReceive+0x194>
      {
        *((__IO uint32_t *)&hspi->Instance->TXDR) = *((const uint32_t *)hspi->pTxBuffPtr);
 81042e8:	68fb      	ldr	r3, [r7, #12]
 81042ea:	6dda      	ldr	r2, [r3, #92]	@ 0x5c
 81042ec:	68fb      	ldr	r3, [r7, #12]
 81042ee:	681b      	ldr	r3, [r3, #0]
 81042f0:	6812      	ldr	r2, [r2, #0]
 81042f2:	621a      	str	r2, [r3, #32]
        hspi->pTxBuffPtr += sizeof(uint32_t);
 81042f4:	68fb      	ldr	r3, [r7, #12]
 81042f6:	6ddb      	ldr	r3, [r3, #92]	@ 0x5c
 81042f8:	1d1a      	adds	r2, r3, #4
 81042fa:	68fb      	ldr	r3, [r7, #12]
 81042fc:	65da      	str	r2, [r3, #92]	@ 0x5c
        hspi->TxXferCount --;
 81042fe:	68fb      	ldr	r3, [r7, #12]
 8104300:	f8b3 3062 	ldrh.w	r3, [r3, #98]	@ 0x62
 8104304:	b29b      	uxth	r3, r3
 8104306:	3b01      	subs	r3, #1
 8104308:	b29a      	uxth	r2, r3
 810430a:	68fb      	ldr	r3, [r7, #12]
 810430c:	f8a3 2062 	strh.w	r2, [r3, #98]	@ 0x62
        initial_TxXferCount = hspi->TxXferCount;
 8104310:	68fb      	ldr	r3, [r7, #12]
 8104312:	f8b3 3062 	ldrh.w	r3, [r3, #98]	@ 0x62
 8104316:	857b      	strh	r3, [r7, #42]	@ 0x2a
      }

      /* Evaluate state of SR register */
      temp_sr_reg = hspi->Instance->SR;
 8104318:	68fb      	ldr	r3, [r7, #12]
 810431a:	681b      	ldr	r3, [r3, #0]
 810431c:	695b      	ldr	r3, [r3, #20]
 810431e:	617b      	str	r3, [r7, #20]

      if (initial_RxXferCount > 0UL)
 8104320:	8d3b      	ldrh	r3, [r7, #40]	@ 0x28
 8104322:	2b00      	cmp	r3, #0
 8104324:	d065      	beq.n	81043f2 <HAL_SPI_TransmitReceive+0x26e>
      {
        /* Check the RXP flag */
        if (__HAL_SPI_GET_FLAG(hspi, SPI_FLAG_RXP))
 8104326:	68fb      	ldr	r3, [r7, #12]
 8104328:	681b      	ldr	r3, [r3, #0]
 810432a:	695b      	ldr	r3, [r3, #20]
 810432c:	f003 0301 	and.w	r3, r3, #1
 8104330:	2b01      	cmp	r3, #1
 8104332:	d118      	bne.n	8104366 <HAL_SPI_TransmitReceive+0x1e2>
        {
          *((uint32_t *)hspi->pRxBuffPtr) = *((__IO uint32_t *)&hspi->Instance->RXDR);
 8104334:	68fb      	ldr	r3, [r7, #12]
 8104336:	681a      	ldr	r2, [r3, #0]
 8104338:	68fb      	ldr	r3, [r7, #12]
 810433a:	6e5b      	ldr	r3, [r3, #100]	@ 0x64
 810433c:	6b12      	ldr	r2, [r2, #48]	@ 0x30
 810433e:	601a      	str	r2, [r3, #0]
          hspi->pRxBuffPtr += sizeof(uint32_t);
 8104340:	68fb      	ldr	r3, [r7, #12]
 8104342:	6e5b      	ldr	r3, [r3, #100]	@ 0x64
 8104344:	1d1a      	adds	r2, r3, #4
 8104346:	68fb      	ldr	r3, [r7, #12]
 8104348:	665a      	str	r2, [r3, #100]	@ 0x64
          hspi->RxXferCount--;
 810434a:	68fb      	ldr	r3, [r7, #12]
 810434c:	f8b3 306a 	ldrh.w	r3, [r3, #106]	@ 0x6a
 8104350:	b29b      	uxth	r3, r3
 8104352:	3b01      	subs	r3, #1
 8104354:	b29a      	uxth	r2, r3
 8104356:	68fb      	ldr	r3, [r7, #12]
 8104358:	f8a3 206a 	strh.w	r2, [r3, #106]	@ 0x6a
          initial_RxXferCount = hspi->RxXferCount;
 810435c:	68fb      	ldr	r3, [r7, #12]
 810435e:	f8b3 306a 	ldrh.w	r3, [r3, #106]	@ 0x6a
 8104362:	853b      	strh	r3, [r7, #40]	@ 0x28
 8104364:	e045      	b.n	81043f2 <HAL_SPI_TransmitReceive+0x26e>
        }
        /* Check RXWNE flag if RXP cannot be reached */
        else if ((initial_RxXferCount < init_max_data_in_fifo) && ((temp_sr_reg & SPI_SR_RXWNE_Msk) != 0UL))
 8104366:	8d3a      	ldrh	r2, [r7, #40]	@ 0x28
 8104368:	8bfb      	ldrh	r3, [r7, #30]
 810436a:	429a      	cmp	r2, r3
 810436c:	d21d      	bcs.n	81043aa <HAL_SPI_TransmitReceive+0x226>
 810436e:	697b      	ldr	r3, [r7, #20]
 8104370:	f403 4300 	and.w	r3, r3, #32768	@ 0x8000
 8104374:	2b00      	cmp	r3, #0
 8104376:	d018      	beq.n	81043aa <HAL_SPI_TransmitReceive+0x226>
        {
          *((uint32_t *)hspi->pRxBuffPtr) = *((__IO uint32_t *)&hspi->Instance->RXDR);
 8104378:	68fb      	ldr	r3, [r7, #12]
 810437a:	681a      	ldr	r2, [r3, #0]
 810437c:	68fb      	ldr	r3, [r7, #12]
 810437e:	6e5b      	ldr	r3, [r3, #100]	@ 0x64
 8104380:	6b12      	ldr	r2, [r2, #48]	@ 0x30
 8104382:	601a      	str	r2, [r3, #0]
          hspi->pRxBuffPtr += sizeof(uint32_t);
 8104384:	68fb      	ldr	r3, [r7, #12]
 8104386:	6e5b      	ldr	r3, [r3, #100]	@ 0x64
 8104388:	1d1a      	adds	r2, r3, #4
 810438a:	68fb      	ldr	r3, [r7, #12]
 810438c:	665a      	str	r2, [r3, #100]	@ 0x64
          hspi->RxXferCount--;
 810438e:	68fb      	ldr	r3, [r7, #12]
 8104390:	f8b3 306a 	ldrh.w	r3, [r3, #106]	@ 0x6a
 8104394:	b29b      	uxth	r3, r3
 8104396:	3b01      	subs	r3, #1
 8104398:	b29a      	uxth	r2, r3
 810439a:	68fb      	ldr	r3, [r7, #12]
 810439c:	f8a3 206a 	strh.w	r2, [r3, #106]	@ 0x6a
          initial_RxXferCount = hspi->RxXferCount;
 81043a0:	68fb      	ldr	r3, [r7, #12]
 81043a2:	f8b3 306a 	ldrh.w	r3, [r3, #106]	@ 0x6a
 81043a6:	853b      	strh	r3, [r7, #40]	@ 0x28
 81043a8:	e023      	b.n	81043f2 <HAL_SPI_TransmitReceive+0x26e>
        }
        else
        {
          /* Timeout management */
          if ((((HAL_GetTick() - tickstart) >=  Timeout) && (Timeout != HAL_MAX_DELAY)) || (Timeout == 0U))
 81043aa:	f7fd f8dd 	bl	8101568 <HAL_GetTick>
 81043ae:	4602      	mov	r2, r0
 81043b0:	69bb      	ldr	r3, [r7, #24]
 81043b2:	1ad3      	subs	r3, r2, r3
 81043b4:	6bba      	ldr	r2, [r7, #56]	@ 0x38
 81043b6:	429a      	cmp	r2, r3
 81043b8:	d803      	bhi.n	81043c2 <HAL_SPI_TransmitReceive+0x23e>
 81043ba:	6bbb      	ldr	r3, [r7, #56]	@ 0x38
 81043bc:	f1b3 3fff 	cmp.w	r3, #4294967295
 81043c0:	d102      	bne.n	81043c8 <HAL_SPI_TransmitReceive+0x244>
 81043c2:	6bbb      	ldr	r3, [r7, #56]	@ 0x38
 81043c4:	2b00      	cmp	r3, #0
 81043c6:	d114      	bne.n	81043f2 <HAL_SPI_TransmitReceive+0x26e>
          {
            /* Call standard close procedure with error check */
            SPI_CloseTransfer(hspi);
 81043c8:	68f8      	ldr	r0, [r7, #12]
 81043ca:	f000 fa13 	bl	81047f4 <SPI_CloseTransfer>

            SET_BIT(hspi->ErrorCode, HAL_SPI_ERROR_TIMEOUT);
 81043ce:	68fb      	ldr	r3, [r7, #12]
 81043d0:	f8d3 3084 	ldr.w	r3, [r3, #132]	@ 0x84
 81043d4:	f443 7280 	orr.w	r2, r3, #256	@ 0x100
 81043d8:	68fb      	ldr	r3, [r7, #12]
 81043da:	f8c3 2084 	str.w	r2, [r3, #132]	@ 0x84
            hspi->State = HAL_SPI_STATE_READY;
 81043de:	68fb      	ldr	r3, [r7, #12]
 81043e0:	2201      	movs	r2, #1
 81043e2:	f883 2081 	strb.w	r2, [r3, #129]	@ 0x81

            /* Unlock the process */
            __HAL_UNLOCK(hspi);
 81043e6:	68fb      	ldr	r3, [r7, #12]
 81043e8:	2200      	movs	r2, #0
 81043ea:	f883 2080 	strb.w	r2, [r3, #128]	@ 0x80

            return HAL_TIMEOUT;
 81043ee:	2303      	movs	r3, #3
 81043f0:	e1fb      	b.n	81047ea <HAL_SPI_TransmitReceive+0x666>
    while ((initial_TxXferCount > 0UL) || (initial_RxXferCount > 0UL))
 81043f2:	8d7b      	ldrh	r3, [r7, #42]	@ 0x2a
 81043f4:	2b00      	cmp	r3, #0
 81043f6:	f47f af67 	bne.w	81042c8 <HAL_SPI_TransmitReceive+0x144>
 81043fa:	8d3b      	ldrh	r3, [r7, #40]	@ 0x28
 81043fc:	2b00      	cmp	r3, #0
 81043fe:	f47f af63 	bne.w	81042c8 <HAL_SPI_TransmitReceive+0x144>
 8104402:	e1cc      	b.n	810479e <HAL_SPI_TransmitReceive+0x61a>
        }
      }
    }
  }
  /* Transmit and Receive data in 16 Bit mode */
  else if (hspi->Init.DataSize > SPI_DATASIZE_8BIT)
 8104404:	68fb      	ldr	r3, [r7, #12]
 8104406:	68db      	ldr	r3, [r3, #12]
 8104408:	2b07      	cmp	r3, #7
 810440a:	f240 81c0 	bls.w	810478e <HAL_SPI_TransmitReceive+0x60a>
  {
    /* Adapt fifo length to 16bits data width */
    fifo_length = (fifo_length / 2UL);
 810440e:	6afb      	ldr	r3, [r7, #44]	@ 0x2c
 8104410:	085b      	lsrs	r3, r3, #1
 8104412:	62fb      	str	r3, [r7, #44]	@ 0x2c

    while ((initial_TxXferCount > 0UL) || (initial_RxXferCount > 0UL))
 8104414:	e0c7      	b.n	81045a6 <HAL_SPI_TransmitReceive+0x422>
 8104416:	bf00      	nop
 8104418:	40013000 	.word	0x40013000
 810441c:	40003800 	.word	0x40003800
 8104420:	40003c00 	.word	0x40003c00
    {
      /* Check the TXP flag */
      if ((__HAL_SPI_GET_FLAG(hspi, SPI_FLAG_TXP)) && (initial_TxXferCount > 0UL) &&
 8104424:	68fb      	ldr	r3, [r7, #12]
 8104426:	681b      	ldr	r3, [r3, #0]
 8104428:	695b      	ldr	r3, [r3, #20]
 810442a:	f003 0302 	and.w	r3, r3, #2
 810442e:	2b02      	cmp	r3, #2
 8104430:	d11f      	bne.n	8104472 <HAL_SPI_TransmitReceive+0x2ee>
 8104432:	8d7b      	ldrh	r3, [r7, #42]	@ 0x2a
 8104434:	2b00      	cmp	r3, #0
 8104436:	d01c      	beq.n	8104472 <HAL_SPI_TransmitReceive+0x2ee>
          (initial_RxXferCount  < (initial_TxXferCount + fifo_length)))
 8104438:	8d3a      	ldrh	r2, [r7, #40]	@ 0x28
 810443a:	8d79      	ldrh	r1, [r7, #42]	@ 0x2a
 810443c:	6afb      	ldr	r3, [r7, #44]	@ 0x2c
 810443e:	440b      	add	r3, r1
      if ((__HAL_SPI_GET_FLAG(hspi, SPI_FLAG_TXP)) && (initial_TxXferCount > 0UL) &&
 8104440:	429a      	cmp	r2, r3
 8104442:	d216      	bcs.n	8104472 <HAL_SPI_TransmitReceive+0x2ee>
      {
#if defined (__GNUC__)
        *ptxdr_16bits = *((const uint16_t *)hspi->pTxBuffPtr);
 8104444:	68fb      	ldr	r3, [r7, #12]
 8104446:	6ddb      	ldr	r3, [r3, #92]	@ 0x5c
 8104448:	881a      	ldrh	r2, [r3, #0]
 810444a:	6a7b      	ldr	r3, [r7, #36]	@ 0x24
 810444c:	801a      	strh	r2, [r3, #0]
#else
        *((__IO uint16_t *)&hspi->Instance->TXDR) = *((const uint16_t *)hspi->pTxBuffPtr);
#endif /* __GNUC__ */
        hspi->pTxBuffPtr += sizeof(uint16_t);
 810444e:	68fb      	ldr	r3, [r7, #12]
 8104450:	6ddb      	ldr	r3, [r3, #92]	@ 0x5c
 8104452:	1c9a      	adds	r2, r3, #2
 8104454:	68fb      	ldr	r3, [r7, #12]
 8104456:	65da      	str	r2, [r3, #92]	@ 0x5c
        hspi->TxXferCount--;
 8104458:	68fb      	ldr	r3, [r7, #12]
 810445a:	f8b3 3062 	ldrh.w	r3, [r3, #98]	@ 0x62
 810445e:	b29b      	uxth	r3, r3
 8104460:	3b01      	subs	r3, #1
 8104462:	b29a      	uxth	r2, r3
 8104464:	68fb      	ldr	r3, [r7, #12]
 8104466:	f8a3 2062 	strh.w	r2, [r3, #98]	@ 0x62
        initial_TxXferCount = hspi->TxXferCount;
 810446a:	68fb      	ldr	r3, [r7, #12]
 810446c:	f8b3 3062 	ldrh.w	r3, [r3, #98]	@ 0x62
 8104470:	857b      	strh	r3, [r7, #42]	@ 0x2a
      }

      /* Evaluate state of SR register */
      temp_sr_reg = hspi->Instance->SR;
 8104472:	68fb      	ldr	r3, [r7, #12]
 8104474:	681b      	ldr	r3, [r3, #0]
 8104476:	695b      	ldr	r3, [r3, #20]
 8104478:	617b      	str	r3, [r7, #20]

      if (initial_RxXferCount > 0UL)
 810447a:	8d3b      	ldrh	r3, [r7, #40]	@ 0x28
 810447c:	2b00      	cmp	r3, #0
 810447e:	f000 8092 	beq.w	81045a6 <HAL_SPI_TransmitReceive+0x422>
      {
        /* Check the RXP flag */
        if (__HAL_SPI_GET_FLAG(hspi, SPI_FLAG_RXP))
 8104482:	68fb      	ldr	r3, [r7, #12]
 8104484:	681b      	ldr	r3, [r3, #0]
 8104486:	695b      	ldr	r3, [r3, #20]
 8104488:	f003 0301 	and.w	r3, r3, #1
 810448c:	2b01      	cmp	r3, #1
 810448e:	d118      	bne.n	81044c2 <HAL_SPI_TransmitReceive+0x33e>
        {
#if defined (__GNUC__)
          *((uint16_t *)hspi->pRxBuffPtr) = *prxdr_16bits;
 8104490:	68fb      	ldr	r3, [r7, #12]
 8104492:	6e5b      	ldr	r3, [r3, #100]	@ 0x64
 8104494:	6a3a      	ldr	r2, [r7, #32]
 8104496:	8812      	ldrh	r2, [r2, #0]
 8104498:	b292      	uxth	r2, r2
 810449a:	801a      	strh	r2, [r3, #0]
#else
          *((uint16_t *)hspi->pRxBuffPtr) = *((__IO uint16_t *)&hspi->Instance->RXDR);
#endif /* __GNUC__ */
          hspi->pRxBuffPtr += sizeof(uint16_t);
 810449c:	68fb      	ldr	r3, [r7, #12]
 810449e:	6e5b      	ldr	r3, [r3, #100]	@ 0x64
 81044a0:	1c9a      	adds	r2, r3, #2
 81044a2:	68fb      	ldr	r3, [r7, #12]
 81044a4:	665a      	str	r2, [r3, #100]	@ 0x64
          hspi->RxXferCount--;
 81044a6:	68fb      	ldr	r3, [r7, #12]
 81044a8:	f8b3 306a 	ldrh.w	r3, [r3, #106]	@ 0x6a
 81044ac:	b29b      	uxth	r3, r3
 81044ae:	3b01      	subs	r3, #1
 81044b0:	b29a      	uxth	r2, r3
 81044b2:	68fb      	ldr	r3, [r7, #12]
 81044b4:	f8a3 206a 	strh.w	r2, [r3, #106]	@ 0x6a
          initial_RxXferCount = hspi->RxXferCount;
 81044b8:	68fb      	ldr	r3, [r7, #12]
 81044ba:	f8b3 306a 	ldrh.w	r3, [r3, #106]	@ 0x6a
 81044be:	853b      	strh	r3, [r7, #40]	@ 0x28
 81044c0:	e071      	b.n	81045a6 <HAL_SPI_TransmitReceive+0x422>
        }
        /* Check RXWNE flag if RXP cannot be reached */
        else if ((initial_RxXferCount < init_max_data_in_fifo) && ((temp_sr_reg & SPI_SR_RXWNE_Msk) != 0UL))
 81044c2:	8d3a      	ldrh	r2, [r7, #40]	@ 0x28
 81044c4:	8bfb      	ldrh	r3, [r7, #30]
 81044c6:	429a      	cmp	r2, r3
 81044c8:	d228      	bcs.n	810451c <HAL_SPI_TransmitReceive+0x398>
 81044ca:	697b      	ldr	r3, [r7, #20]
 81044cc:	f403 4300 	and.w	r3, r3, #32768	@ 0x8000
 81044d0:	2b00      	cmp	r3, #0
 81044d2:	d023      	beq.n	810451c <HAL_SPI_TransmitReceive+0x398>
        {
#if defined (__GNUC__)
          *((uint16_t *)hspi->pRxBuffPtr) = *prxdr_16bits;
 81044d4:	68fb      	ldr	r3, [r7, #12]
 81044d6:	6e5b      	ldr	r3, [r3, #100]	@ 0x64
 81044d8:	6a3a      	ldr	r2, [r7, #32]
 81044da:	8812      	ldrh	r2, [r2, #0]
 81044dc:	b292      	uxth	r2, r2
 81044de:	801a      	strh	r2, [r3, #0]
#else
          *((uint16_t *)hspi->pRxBuffPtr) = *((__IO uint16_t *)&hspi->Instance->RXDR);
#endif /* __GNUC__ */
          hspi->pRxBuffPtr += sizeof(uint16_t);
 81044e0:	68fb      	ldr	r3, [r7, #12]
 81044e2:	6e5b      	ldr	r3, [r3, #100]	@ 0x64
 81044e4:	1c9a      	adds	r2, r3, #2
 81044e6:	68fb      	ldr	r3, [r7, #12]
 81044e8:	665a      	str	r2, [r3, #100]	@ 0x64
#if defined (__GNUC__)
          *((uint16_t *)hspi->pRxBuffPtr) = *prxdr_16bits;
 81044ea:	68fb      	ldr	r3, [r7, #12]
 81044ec:	6e5b      	ldr	r3, [r3, #100]	@ 0x64
 81044ee:	6a3a      	ldr	r2, [r7, #32]
 81044f0:	8812      	ldrh	r2, [r2, #0]
 81044f2:	b292      	uxth	r2, r2
 81044f4:	801a      	strh	r2, [r3, #0]
#else
          *((uint16_t *)hspi->pRxBuffPtr) = *((__IO uint16_t *)&hspi->Instance->RXDR);
#endif /* __GNUC__ */
          hspi->pRxBuffPtr += sizeof(uint16_t);
 81044f6:	68fb      	ldr	r3, [r7, #12]
 81044f8:	6e5b      	ldr	r3, [r3, #100]	@ 0x64
 81044fa:	1c9a      	adds	r2, r3, #2
 81044fc:	68fb      	ldr	r3, [r7, #12]
 81044fe:	665a      	str	r2, [r3, #100]	@ 0x64
          hspi->RxXferCount -= (uint16_t)2UL;
 8104500:	68fb      	ldr	r3, [r7, #12]
 8104502:	f8b3 306a 	ldrh.w	r3, [r3, #106]	@ 0x6a
 8104506:	b29b      	uxth	r3, r3
 8104508:	3b02      	subs	r3, #2
 810450a:	b29a      	uxth	r2, r3
 810450c:	68fb      	ldr	r3, [r7, #12]
 810450e:	f8a3 206a 	strh.w	r2, [r3, #106]	@ 0x6a
          initial_RxXferCount = hspi->RxXferCount;
 8104512:	68fb      	ldr	r3, [r7, #12]
 8104514:	f8b3 306a 	ldrh.w	r3, [r3, #106]	@ 0x6a
 8104518:	853b      	strh	r3, [r7, #40]	@ 0x28
 810451a:	e044      	b.n	81045a6 <HAL_SPI_TransmitReceive+0x422>
        }
        /* Check RXPLVL flags when RXWNE cannot be reached */
        else if ((initial_RxXferCount == 1UL) && ((temp_sr_reg & SPI_SR_RXPLVL_0) != 0UL))
 810451c:	8d3b      	ldrh	r3, [r7, #40]	@ 0x28
 810451e:	2b01      	cmp	r3, #1
 8104520:	d11d      	bne.n	810455e <HAL_SPI_TransmitReceive+0x3da>
 8104522:	697b      	ldr	r3, [r7, #20]
 8104524:	f403 5300 	and.w	r3, r3, #8192	@ 0x2000
 8104528:	2b00      	cmp	r3, #0
 810452a:	d018      	beq.n	810455e <HAL_SPI_TransmitReceive+0x3da>
        {
#if defined (__GNUC__)
          *((uint16_t *)hspi->pRxBuffPtr) = *prxdr_16bits;
 810452c:	68fb      	ldr	r3, [r7, #12]
 810452e:	6e5b      	ldr	r3, [r3, #100]	@ 0x64
 8104530:	6a3a      	ldr	r2, [r7, #32]
 8104532:	8812      	ldrh	r2, [r2, #0]
 8104534:	b292      	uxth	r2, r2
 8104536:	801a      	strh	r2, [r3, #0]
#else
          *((uint16_t *)hspi->pRxBuffPtr) = *((__IO uint16_t *)&hspi->Instance->RXDR);
#endif /* __GNUC__ */
          hspi->pRxBuffPtr += sizeof(uint16_t);
 8104538:	68fb      	ldr	r3, [r7, #12]
 810453a:	6e5b      	ldr	r3, [r3, #100]	@ 0x64
 810453c:	1c9a      	adds	r2, r3, #2
 810453e:	68fb      	ldr	r3, [r7, #12]
 8104540:	665a      	str	r2, [r3, #100]	@ 0x64
          hspi->RxXferCount--;
 8104542:	68fb      	ldr	r3, [r7, #12]
 8104544:	f8b3 306a 	ldrh.w	r3, [r3, #106]	@ 0x6a
 8104548:	b29b      	uxth	r3, r3
 810454a:	3b01      	subs	r3, #1
 810454c:	b29a      	uxth	r2, r3
 810454e:	68fb      	ldr	r3, [r7, #12]
 8104550:	f8a3 206a 	strh.w	r2, [r3, #106]	@ 0x6a
          initial_RxXferCount = hspi->RxXferCount;
 8104554:	68fb      	ldr	r3, [r7, #12]
 8104556:	f8b3 306a 	ldrh.w	r3, [r3, #106]	@ 0x6a
 810455a:	853b      	strh	r3, [r7, #40]	@ 0x28
 810455c:	e023      	b.n	81045a6 <HAL_SPI_TransmitReceive+0x422>
        }
        else
        {
          /* Timeout management */
          if ((((HAL_GetTick() - tickstart) >=  Timeout) && (Timeout != HAL_MAX_DELAY)) || (Timeout == 0U))
 810455e:	f7fd f803 	bl	8101568 <HAL_GetTick>
 8104562:	4602      	mov	r2, r0
 8104564:	69bb      	ldr	r3, [r7, #24]
 8104566:	1ad3      	subs	r3, r2, r3
 8104568:	6bba      	ldr	r2, [r7, #56]	@ 0x38
 810456a:	429a      	cmp	r2, r3
 810456c:	d803      	bhi.n	8104576 <HAL_SPI_TransmitReceive+0x3f2>
 810456e:	6bbb      	ldr	r3, [r7, #56]	@ 0x38
 8104570:	f1b3 3fff 	cmp.w	r3, #4294967295
 8104574:	d102      	bne.n	810457c <HAL_SPI_TransmitReceive+0x3f8>
 8104576:	6bbb      	ldr	r3, [r7, #56]	@ 0x38
 8104578:	2b00      	cmp	r3, #0
 810457a:	d114      	bne.n	81045a6 <HAL_SPI_TransmitReceive+0x422>
          {
            /* Call standard close procedure with error check */
            SPI_CloseTransfer(hspi);
 810457c:	68f8      	ldr	r0, [r7, #12]
 810457e:	f000 f939 	bl	81047f4 <SPI_CloseTransfer>

            SET_BIT(hspi->ErrorCode, HAL_SPI_ERROR_TIMEOUT);
 8104582:	68fb      	ldr	r3, [r7, #12]
 8104584:	f8d3 3084 	ldr.w	r3, [r3, #132]	@ 0x84
 8104588:	f443 7280 	orr.w	r2, r3, #256	@ 0x100
 810458c:	68fb      	ldr	r3, [r7, #12]
 810458e:	f8c3 2084 	str.w	r2, [r3, #132]	@ 0x84
            hspi->State = HAL_SPI_STATE_READY;
 8104592:	68fb      	ldr	r3, [r7, #12]
 8104594:	2201      	movs	r2, #1
 8104596:	f883 2081 	strb.w	r2, [r3, #129]	@ 0x81

            /* Unlock the process */
            __HAL_UNLOCK(hspi);
 810459a:	68fb      	ldr	r3, [r7, #12]
 810459c:	2200      	movs	r2, #0
 810459e:	f883 2080 	strb.w	r2, [r3, #128]	@ 0x80

            return HAL_TIMEOUT;
 81045a2:	2303      	movs	r3, #3
 81045a4:	e121      	b.n	81047ea <HAL_SPI_TransmitReceive+0x666>
    while ((initial_TxXferCount > 0UL) || (initial_RxXferCount > 0UL))
 81045a6:	8d7b      	ldrh	r3, [r7, #42]	@ 0x2a
 81045a8:	2b00      	cmp	r3, #0
 81045aa:	f47f af3b 	bne.w	8104424 <HAL_SPI_TransmitReceive+0x2a0>
 81045ae:	8d3b      	ldrh	r3, [r7, #40]	@ 0x28
 81045b0:	2b00      	cmp	r3, #0
 81045b2:	f47f af37 	bne.w	8104424 <HAL_SPI_TransmitReceive+0x2a0>
 81045b6:	e0f2      	b.n	810479e <HAL_SPI_TransmitReceive+0x61a>
  else
  {
    while ((initial_TxXferCount > 0UL) || (initial_RxXferCount > 0UL))
    {
      /* Check the TXP flag */
      if ((__HAL_SPI_GET_FLAG(hspi, SPI_FLAG_TXP)) && (initial_TxXferCount > 0UL) &&
 81045b8:	68fb      	ldr	r3, [r7, #12]
 81045ba:	681b      	ldr	r3, [r3, #0]
 81045bc:	695b      	ldr	r3, [r3, #20]
 81045be:	f003 0302 	and.w	r3, r3, #2
 81045c2:	2b02      	cmp	r3, #2
 81045c4:	d121      	bne.n	810460a <HAL_SPI_TransmitReceive+0x486>
 81045c6:	8d7b      	ldrh	r3, [r7, #42]	@ 0x2a
 81045c8:	2b00      	cmp	r3, #0
 81045ca:	d01e      	beq.n	810460a <HAL_SPI_TransmitReceive+0x486>
          (initial_RxXferCount  < (initial_TxXferCount + fifo_length)))
 81045cc:	8d3a      	ldrh	r2, [r7, #40]	@ 0x28
 81045ce:	8d79      	ldrh	r1, [r7, #42]	@ 0x2a
 81045d0:	6afb      	ldr	r3, [r7, #44]	@ 0x2c
 81045d2:	440b      	add	r3, r1
      if ((__HAL_SPI_GET_FLAG(hspi, SPI_FLAG_TXP)) && (initial_TxXferCount > 0UL) &&
 81045d4:	429a      	cmp	r2, r3
 81045d6:	d218      	bcs.n	810460a <HAL_SPI_TransmitReceive+0x486>
      {
        *((__IO uint8_t *)&hspi->Instance->TXDR) = *((const uint8_t *)hspi->pTxBuffPtr);
 81045d8:	68fb      	ldr	r3, [r7, #12]
 81045da:	6dda      	ldr	r2, [r3, #92]	@ 0x5c
 81045dc:	68fb      	ldr	r3, [r7, #12]
 81045de:	681b      	ldr	r3, [r3, #0]
 81045e0:	3320      	adds	r3, #32
 81045e2:	7812      	ldrb	r2, [r2, #0]
 81045e4:	701a      	strb	r2, [r3, #0]
        hspi->pTxBuffPtr += sizeof(uint8_t);
 81045e6:	68fb      	ldr	r3, [r7, #12]
 81045e8:	6ddb      	ldr	r3, [r3, #92]	@ 0x5c
 81045ea:	1c5a      	adds	r2, r3, #1
 81045ec:	68fb      	ldr	r3, [r7, #12]
 81045ee:	65da      	str	r2, [r3, #92]	@ 0x5c
        hspi->TxXferCount--;
 81045f0:	68fb      	ldr	r3, [r7, #12]
 81045f2:	f8b3 3062 	ldrh.w	r3, [r3, #98]	@ 0x62
 81045f6:	b29b      	uxth	r3, r3
 81045f8:	3b01      	subs	r3, #1
 81045fa:	b29a      	uxth	r2, r3
 81045fc:	68fb      	ldr	r3, [r7, #12]
 81045fe:	f8a3 2062 	strh.w	r2, [r3, #98]	@ 0x62
        initial_TxXferCount = hspi->TxXferCount;
 8104602:	68fb      	ldr	r3, [r7, #12]
 8104604:	f8b3 3062 	ldrh.w	r3, [r3, #98]	@ 0x62
 8104608:	857b      	strh	r3, [r7, #42]	@ 0x2a
      }

      /* Evaluate state of SR register */
      temp_sr_reg = hspi->Instance->SR;
 810460a:	68fb      	ldr	r3, [r7, #12]
 810460c:	681b      	ldr	r3, [r3, #0]
 810460e:	695b      	ldr	r3, [r3, #20]
 8104610:	617b      	str	r3, [r7, #20]

      if (initial_RxXferCount > 0UL)
 8104612:	8d3b      	ldrh	r3, [r7, #40]	@ 0x28
 8104614:	2b00      	cmp	r3, #0
 8104616:	f000 80ba 	beq.w	810478e <HAL_SPI_TransmitReceive+0x60a>
      {
        /* Check the RXP flag */
        if (__HAL_SPI_GET_FLAG(hspi, SPI_FLAG_RXP))
 810461a:	68fb      	ldr	r3, [r7, #12]
 810461c:	681b      	ldr	r3, [r3, #0]
 810461e:	695b      	ldr	r3, [r3, #20]
 8104620:	f003 0301 	and.w	r3, r3, #1
 8104624:	2b01      	cmp	r3, #1
 8104626:	d11b      	bne.n	8104660 <HAL_SPI_TransmitReceive+0x4dc>
        {
          *((uint8_t *)hspi->pRxBuffPtr) = *((__IO uint8_t *)&hspi->Instance->RXDR);
 8104628:	68fb      	ldr	r3, [r7, #12]
 810462a:	681b      	ldr	r3, [r3, #0]
 810462c:	f103 0230 	add.w	r2, r3, #48	@ 0x30
 8104630:	68fb      	ldr	r3, [r7, #12]
 8104632:	6e5b      	ldr	r3, [r3, #100]	@ 0x64
 8104634:	7812      	ldrb	r2, [r2, #0]
 8104636:	b2d2      	uxtb	r2, r2
 8104638:	701a      	strb	r2, [r3, #0]
          hspi->pRxBuffPtr += sizeof(uint8_t);
 810463a:	68fb      	ldr	r3, [r7, #12]
 810463c:	6e5b      	ldr	r3, [r3, #100]	@ 0x64
 810463e:	1c5a      	adds	r2, r3, #1
 8104640:	68fb      	ldr	r3, [r7, #12]
 8104642:	665a      	str	r2, [r3, #100]	@ 0x64
          hspi->RxXferCount--;
 8104644:	68fb      	ldr	r3, [r7, #12]
 8104646:	f8b3 306a 	ldrh.w	r3, [r3, #106]	@ 0x6a
 810464a:	b29b      	uxth	r3, r3
 810464c:	3b01      	subs	r3, #1
 810464e:	b29a      	uxth	r2, r3
 8104650:	68fb      	ldr	r3, [r7, #12]
 8104652:	f8a3 206a 	strh.w	r2, [r3, #106]	@ 0x6a
          initial_RxXferCount = hspi->RxXferCount;
 8104656:	68fb      	ldr	r3, [r7, #12]
 8104658:	f8b3 306a 	ldrh.w	r3, [r3, #106]	@ 0x6a
 810465c:	853b      	strh	r3, [r7, #40]	@ 0x28
 810465e:	e096      	b.n	810478e <HAL_SPI_TransmitReceive+0x60a>
        }
        /* Check RXWNE flag if RXP cannot be reached */
        else if ((initial_RxXferCount < init_max_data_in_fifo) && ((temp_sr_reg & SPI_SR_RXWNE_Msk) != 0UL))
 8104660:	8d3a      	ldrh	r2, [r7, #40]	@ 0x28
 8104662:	8bfb      	ldrh	r3, [r7, #30]
 8104664:	429a      	cmp	r2, r3
 8104666:	d24a      	bcs.n	81046fe <HAL_SPI_TransmitReceive+0x57a>
 8104668:	697b      	ldr	r3, [r7, #20]
 810466a:	f403 4300 	and.w	r3, r3, #32768	@ 0x8000
 810466e:	2b00      	cmp	r3, #0
 8104670:	d045      	beq.n	81046fe <HAL_SPI_TransmitReceive+0x57a>
        {
          *((uint8_t *)hspi->pRxBuffPtr) = *((__IO uint8_t *)&hspi->Instance->RXDR);
 8104672:	68fb      	ldr	r3, [r7, #12]
 8104674:	681b      	ldr	r3, [r3, #0]
 8104676:	f103 0230 	add.w	r2, r3, #48	@ 0x30
 810467a:	68fb      	ldr	r3, [r7, #12]
 810467c:	6e5b      	ldr	r3, [r3, #100]	@ 0x64
 810467e:	7812      	ldrb	r2, [r2, #0]
 8104680:	b2d2      	uxtb	r2, r2
 8104682:	701a      	strb	r2, [r3, #0]
          hspi->pRxBuffPtr += sizeof(uint8_t);
 8104684:	68fb      	ldr	r3, [r7, #12]
 8104686:	6e5b      	ldr	r3, [r3, #100]	@ 0x64
 8104688:	1c5a      	adds	r2, r3, #1
 810468a:	68fb      	ldr	r3, [r7, #12]
 810468c:	665a      	str	r2, [r3, #100]	@ 0x64
          *((uint8_t *)hspi->pRxBuffPtr) = *((__IO uint8_t *)&hspi->Instance->RXDR);
 810468e:	68fb      	ldr	r3, [r7, #12]
 8104690:	681b      	ldr	r3, [r3, #0]
 8104692:	f103 0230 	add.w	r2, r3, #48	@ 0x30
 8104696:	68fb      	ldr	r3, [r7, #12]
 8104698:	6e5b      	ldr	r3, [r3, #100]	@ 0x64
 810469a:	7812      	ldrb	r2, [r2, #0]
 810469c:	b2d2      	uxtb	r2, r2
 810469e:	701a      	strb	r2, [r3, #0]
          hspi->pRxBuffPtr += sizeof(uint8_t);
 81046a0:	68fb      	ldr	r3, [r7, #12]
 81046a2:	6e5b      	ldr	r3, [r3, #100]	@ 0x64
 81046a4:	1c5a      	adds	r2, r3, #1
 81046a6:	68fb      	ldr	r3, [r7, #12]
 81046a8:	665a      	str	r2, [r3, #100]	@ 0x64
          *((uint8_t *)hspi->pRxBuffPtr) = *((__IO uint8_t *)&hspi->Instance->RXDR);
 81046aa:	68fb      	ldr	r3, [r7, #12]
 81046ac:	681b      	ldr	r3, [r3, #0]
 81046ae:	f103 0230 	add.w	r2, r3, #48	@ 0x30
 81046b2:	68fb      	ldr	r3, [r7, #12]
 81046b4:	6e5b      	ldr	r3, [r3, #100]	@ 0x64
 81046b6:	7812      	ldrb	r2, [r2, #0]
 81046b8:	b2d2      	uxtb	r2, r2
 81046ba:	701a      	strb	r2, [r3, #0]
          hspi->pRxBuffPtr += sizeof(uint8_t);
 81046bc:	68fb      	ldr	r3, [r7, #12]
 81046be:	6e5b      	ldr	r3, [r3, #100]	@ 0x64
 81046c0:	1c5a      	adds	r2, r3, #1
 81046c2:	68fb      	ldr	r3, [r7, #12]
 81046c4:	665a      	str	r2, [r3, #100]	@ 0x64
          *((uint8_t *)hspi->pRxBuffPtr) = *((__IO uint8_t *)&hspi->Instance->RXDR);
 81046c6:	68fb      	ldr	r3, [r7, #12]
 81046c8:	681b      	ldr	r3, [r3, #0]
 81046ca:	f103 0230 	add.w	r2, r3, #48	@ 0x30
 81046ce:	68fb      	ldr	r3, [r7, #12]
 81046d0:	6e5b      	ldr	r3, [r3, #100]	@ 0x64
 81046d2:	7812      	ldrb	r2, [r2, #0]
 81046d4:	b2d2      	uxtb	r2, r2
 81046d6:	701a      	strb	r2, [r3, #0]
          hspi->pRxBuffPtr += sizeof(uint8_t);
 81046d8:	68fb      	ldr	r3, [r7, #12]
 81046da:	6e5b      	ldr	r3, [r3, #100]	@ 0x64
 81046dc:	1c5a      	adds	r2, r3, #1
 81046de:	68fb      	ldr	r3, [r7, #12]
 81046e0:	665a      	str	r2, [r3, #100]	@ 0x64
          hspi->RxXferCount -= (uint16_t)4UL;
 81046e2:	68fb      	ldr	r3, [r7, #12]
 81046e4:	f8b3 306a 	ldrh.w	r3, [r3, #106]	@ 0x6a
 81046e8:	b29b      	uxth	r3, r3
 81046ea:	3b04      	subs	r3, #4
 81046ec:	b29a      	uxth	r2, r3
 81046ee:	68fb      	ldr	r3, [r7, #12]
 81046f0:	f8a3 206a 	strh.w	r2, [r3, #106]	@ 0x6a
          initial_RxXferCount = hspi->RxXferCount;
 81046f4:	68fb      	ldr	r3, [r7, #12]
 81046f6:	f8b3 306a 	ldrh.w	r3, [r3, #106]	@ 0x6a
 81046fa:	853b      	strh	r3, [r7, #40]	@ 0x28
 81046fc:	e047      	b.n	810478e <HAL_SPI_TransmitReceive+0x60a>
        }
        /* Check RXPLVL flags when RXWNE cannot be reached */
        else if ((initial_RxXferCount < 4UL) && ((temp_sr_reg & SPI_SR_RXPLVL_Msk) != 0UL))
 81046fe:	8d3b      	ldrh	r3, [r7, #40]	@ 0x28
 8104700:	2b03      	cmp	r3, #3
 8104702:	d820      	bhi.n	8104746 <HAL_SPI_TransmitReceive+0x5c2>
 8104704:	697b      	ldr	r3, [r7, #20]
 8104706:	f403 43c0 	and.w	r3, r3, #24576	@ 0x6000
 810470a:	2b00      	cmp	r3, #0
 810470c:	d01b      	beq.n	8104746 <HAL_SPI_TransmitReceive+0x5c2>
        {
          *((uint8_t *)hspi->pRxBuffPtr) = *((__IO uint8_t *)&hspi->Instance->RXDR);
 810470e:	68fb      	ldr	r3, [r7, #12]
 8104710:	681b      	ldr	r3, [r3, #0]
 8104712:	f103 0230 	add.w	r2, r3, #48	@ 0x30
 8104716:	68fb      	ldr	r3, [r7, #12]
 8104718:	6e5b      	ldr	r3, [r3, #100]	@ 0x64
 810471a:	7812      	ldrb	r2, [r2, #0]
 810471c:	b2d2      	uxtb	r2, r2
 810471e:	701a      	strb	r2, [r3, #0]
          hspi->pRxBuffPtr += sizeof(uint8_t);
 8104720:	68fb      	ldr	r3, [r7, #12]
 8104722:	6e5b      	ldr	r3, [r3, #100]	@ 0x64
 8104724:	1c5a      	adds	r2, r3, #1
 8104726:	68fb      	ldr	r3, [r7, #12]
 8104728:	665a      	str	r2, [r3, #100]	@ 0x64
          hspi->RxXferCount--;
 810472a:	68fb      	ldr	r3, [r7, #12]
 810472c:	f8b3 306a 	ldrh.w	r3, [r3, #106]	@ 0x6a
 8104730:	b29b      	uxth	r3, r3
 8104732:	3b01      	subs	r3, #1
 8104734:	b29a      	uxth	r2, r3
 8104736:	68fb      	ldr	r3, [r7, #12]
 8104738:	f8a3 206a 	strh.w	r2, [r3, #106]	@ 0x6a
          initial_RxXferCount = hspi->RxXferCount;
 810473c:	68fb      	ldr	r3, [r7, #12]
 810473e:	f8b3 306a 	ldrh.w	r3, [r3, #106]	@ 0x6a
 8104742:	853b      	strh	r3, [r7, #40]	@ 0x28
 8104744:	e023      	b.n	810478e <HAL_SPI_TransmitReceive+0x60a>
        }
        else
        {
          /* Timeout management */
          if ((((HAL_GetTick() - tickstart) >=  Timeout) && (Timeout != HAL_MAX_DELAY)) || (Timeout == 0U))
 8104746:	f7fc ff0f 	bl	8101568 <HAL_GetTick>
 810474a:	4602      	mov	r2, r0
 810474c:	69bb      	ldr	r3, [r7, #24]
 810474e:	1ad3      	subs	r3, r2, r3
 8104750:	6bba      	ldr	r2, [r7, #56]	@ 0x38
 8104752:	429a      	cmp	r2, r3
 8104754:	d803      	bhi.n	810475e <HAL_SPI_TransmitReceive+0x5da>
 8104756:	6bbb      	ldr	r3, [r7, #56]	@ 0x38
 8104758:	f1b3 3fff 	cmp.w	r3, #4294967295
 810475c:	d102      	bne.n	8104764 <HAL_SPI_TransmitReceive+0x5e0>
 810475e:	6bbb      	ldr	r3, [r7, #56]	@ 0x38
 8104760:	2b00      	cmp	r3, #0
 8104762:	d114      	bne.n	810478e <HAL_SPI_TransmitReceive+0x60a>
          {
            /* Call standard close procedure with error check */
            SPI_CloseTransfer(hspi);
 8104764:	68f8      	ldr	r0, [r7, #12]
 8104766:	f000 f845 	bl	81047f4 <SPI_CloseTransfer>

            SET_BIT(hspi->ErrorCode, HAL_SPI_ERROR_TIMEOUT);
 810476a:	68fb      	ldr	r3, [r7, #12]
 810476c:	f8d3 3084 	ldr.w	r3, [r3, #132]	@ 0x84
 8104770:	f443 7280 	orr.w	r2, r3, #256	@ 0x100
 8104774:	68fb      	ldr	r3, [r7, #12]
 8104776:	f8c3 2084 	str.w	r2, [r3, #132]	@ 0x84
            hspi->State = HAL_SPI_STATE_READY;
 810477a:	68fb      	ldr	r3, [r7, #12]
 810477c:	2201      	movs	r2, #1
 810477e:	f883 2081 	strb.w	r2, [r3, #129]	@ 0x81

            /* Unlock the process */
            __HAL_UNLOCK(hspi);
 8104782:	68fb      	ldr	r3, [r7, #12]
 8104784:	2200      	movs	r2, #0
 8104786:	f883 2080 	strb.w	r2, [r3, #128]	@ 0x80

            return HAL_TIMEOUT;
 810478a:	2303      	movs	r3, #3
 810478c:	e02d      	b.n	81047ea <HAL_SPI_TransmitReceive+0x666>
    while ((initial_TxXferCount > 0UL) || (initial_RxXferCount > 0UL))
 810478e:	8d7b      	ldrh	r3, [r7, #42]	@ 0x2a
 8104790:	2b00      	cmp	r3, #0
 8104792:	f47f af11 	bne.w	81045b8 <HAL_SPI_TransmitReceive+0x434>
 8104796:	8d3b      	ldrh	r3, [r7, #40]	@ 0x28
 8104798:	2b00      	cmp	r3, #0
 810479a:	f47f af0d 	bne.w	81045b8 <HAL_SPI_TransmitReceive+0x434>
      }
    }
  }

  /* Wait for Tx/Rx (and CRC) data to be sent/received */
  if (SPI_WaitOnFlagUntilTimeout(hspi, SPI_FLAG_EOT, RESET, Timeout, tickstart) != HAL_OK)
 810479e:	69bb      	ldr	r3, [r7, #24]
 81047a0:	9300      	str	r3, [sp, #0]
 81047a2:	6bbb      	ldr	r3, [r7, #56]	@ 0x38
 81047a4:	2200      	movs	r2, #0
 81047a6:	2108      	movs	r1, #8
 81047a8:	68f8      	ldr	r0, [r7, #12]
 81047aa:	f000 f8c3 	bl	8104934 <SPI_WaitOnFlagUntilTimeout>
 81047ae:	4603      	mov	r3, r0
 81047b0:	2b00      	cmp	r3, #0
 81047b2:	d007      	beq.n	81047c4 <HAL_SPI_TransmitReceive+0x640>
  {
    SET_BIT(hspi->ErrorCode, HAL_SPI_ERROR_FLAG);
 81047b4:	68fb      	ldr	r3, [r7, #12]
 81047b6:	f8d3 3084 	ldr.w	r3, [r3, #132]	@ 0x84
 81047ba:	f043 0220 	orr.w	r2, r3, #32
 81047be:	68fb      	ldr	r3, [r7, #12]
 81047c0:	f8c3 2084 	str.w	r2, [r3, #132]	@ 0x84
  }

  /* Call standard close procedure with error check */
  SPI_CloseTransfer(hspi);
 81047c4:	68f8      	ldr	r0, [r7, #12]
 81047c6:	f000 f815 	bl	81047f4 <SPI_CloseTransfer>

  hspi->State = HAL_SPI_STATE_READY;
 81047ca:	68fb      	ldr	r3, [r7, #12]
 81047cc:	2201      	movs	r2, #1
 81047ce:	f883 2081 	strb.w	r2, [r3, #129]	@ 0x81

  /* Unlock the process */
  __HAL_UNLOCK(hspi);
 81047d2:	68fb      	ldr	r3, [r7, #12]
 81047d4:	2200      	movs	r2, #0
 81047d6:	f883 2080 	strb.w	r2, [r3, #128]	@ 0x80

  if (hspi->ErrorCode != HAL_SPI_ERROR_NONE)
 81047da:	68fb      	ldr	r3, [r7, #12]
 81047dc:	f8d3 3084 	ldr.w	r3, [r3, #132]	@ 0x84
 81047e0:	2b00      	cmp	r3, #0
 81047e2:	d001      	beq.n	81047e8 <HAL_SPI_TransmitReceive+0x664>
  {
    return HAL_ERROR;
 81047e4:	2301      	movs	r3, #1
 81047e6:	e000      	b.n	81047ea <HAL_SPI_TransmitReceive+0x666>
  }
  else
  {
    return HAL_OK;
 81047e8:	2300      	movs	r3, #0
  }
}
 81047ea:	4618      	mov	r0, r3
 81047ec:	3730      	adds	r7, #48	@ 0x30
 81047ee:	46bd      	mov	sp, r7
 81047f0:	bd80      	pop	{r7, pc}
 81047f2:	bf00      	nop

081047f4 <SPI_CloseTransfer>:
  *               the configuration information for SPI module.
  * @retval HAL_ERROR: if any error detected
  *         HAL_OK: if nothing detected
  */
static void SPI_CloseTransfer(SPI_HandleTypeDef *hspi)
{
 81047f4:	b480      	push	{r7}
 81047f6:	b085      	sub	sp, #20
 81047f8:	af00      	add	r7, sp, #0
 81047fa:	6078      	str	r0, [r7, #4]
  uint32_t itflag = hspi->Instance->SR;
 81047fc:	687b      	ldr	r3, [r7, #4]
 81047fe:	681b      	ldr	r3, [r3, #0]
 8104800:	695b      	ldr	r3, [r3, #20]
 8104802:	60fb      	str	r3, [r7, #12]

  __HAL_SPI_CLEAR_EOTFLAG(hspi);
 8104804:	687b      	ldr	r3, [r7, #4]
 8104806:	681b      	ldr	r3, [r3, #0]
 8104808:	699a      	ldr	r2, [r3, #24]
 810480a:	687b      	ldr	r3, [r7, #4]
 810480c:	681b      	ldr	r3, [r3, #0]
 810480e:	f042 0208 	orr.w	r2, r2, #8
 8104812:	619a      	str	r2, [r3, #24]
  __HAL_SPI_CLEAR_TXTFFLAG(hspi);
 8104814:	687b      	ldr	r3, [r7, #4]
 8104816:	681b      	ldr	r3, [r3, #0]
 8104818:	699a      	ldr	r2, [r3, #24]
 810481a:	687b      	ldr	r3, [r7, #4]
 810481c:	681b      	ldr	r3, [r3, #0]
 810481e:	f042 0210 	orr.w	r2, r2, #16
 8104822:	619a      	str	r2, [r3, #24]

  /* Disable SPI peripheral */
  __HAL_SPI_DISABLE(hspi);
 8104824:	687b      	ldr	r3, [r7, #4]
 8104826:	681b      	ldr	r3, [r3, #0]
 8104828:	681a      	ldr	r2, [r3, #0]
 810482a:	687b      	ldr	r3, [r7, #4]
 810482c:	681b      	ldr	r3, [r3, #0]
 810482e:	f022 0201 	bic.w	r2, r2, #1
 8104832:	601a      	str	r2, [r3, #0]

  /* Disable ITs */
  __HAL_SPI_DISABLE_IT(hspi, (SPI_IT_EOT | SPI_IT_TXP | SPI_IT_RXP | SPI_IT_DXP | SPI_IT_UDR | SPI_IT_OVR | \
 8104834:	687b      	ldr	r3, [r7, #4]
 8104836:	681b      	ldr	r3, [r3, #0]
 8104838:	691b      	ldr	r3, [r3, #16]
 810483a:	687a      	ldr	r2, [r7, #4]
 810483c:	6812      	ldr	r2, [r2, #0]
 810483e:	f423 735b 	bic.w	r3, r3, #876	@ 0x36c
 8104842:	f023 0303 	bic.w	r3, r3, #3
 8104846:	6113      	str	r3, [r2, #16]
                              SPI_IT_FRE | SPI_IT_MODF));

  /* Disable Tx DMA Request */
  CLEAR_BIT(hspi->Instance->CFG1, SPI_CFG1_TXDMAEN | SPI_CFG1_RXDMAEN);
 8104848:	687b      	ldr	r3, [r7, #4]
 810484a:	681b      	ldr	r3, [r3, #0]
 810484c:	689a      	ldr	r2, [r3, #8]
 810484e:	687b      	ldr	r3, [r7, #4]
 8104850:	681b      	ldr	r3, [r3, #0]
 8104852:	f422 4240 	bic.w	r2, r2, #49152	@ 0xc000
 8104856:	609a      	str	r2, [r3, #8]

  /* Report UnderRun error for non RX Only communication */
  if (hspi->State != HAL_SPI_STATE_BUSY_RX)
 8104858:	687b      	ldr	r3, [r7, #4]
 810485a:	f893 3081 	ldrb.w	r3, [r3, #129]	@ 0x81
 810485e:	b2db      	uxtb	r3, r3
 8104860:	2b04      	cmp	r3, #4
 8104862:	d014      	beq.n	810488e <SPI_CloseTransfer+0x9a>
  {
    if ((itflag & SPI_FLAG_UDR) != 0UL)
 8104864:	68fb      	ldr	r3, [r7, #12]
 8104866:	f003 0320 	and.w	r3, r3, #32
 810486a:	2b00      	cmp	r3, #0
 810486c:	d00f      	beq.n	810488e <SPI_CloseTransfer+0x9a>
    {
      SET_BIT(hspi->ErrorCode, HAL_SPI_ERROR_UDR);
 810486e:	687b      	ldr	r3, [r7, #4]
 8104870:	f8d3 3084 	ldr.w	r3, [r3, #132]	@ 0x84
 8104874:	f043 0280 	orr.w	r2, r3, #128	@ 0x80
 8104878:	687b      	ldr	r3, [r7, #4]
 810487a:	f8c3 2084 	str.w	r2, [r3, #132]	@ 0x84
      __HAL_SPI_CLEAR_UDRFLAG(hspi);
 810487e:	687b      	ldr	r3, [r7, #4]
 8104880:	681b      	ldr	r3, [r3, #0]
 8104882:	699a      	ldr	r2, [r3, #24]
 8104884:	687b      	ldr	r3, [r7, #4]
 8104886:	681b      	ldr	r3, [r3, #0]
 8104888:	f042 0220 	orr.w	r2, r2, #32
 810488c:	619a      	str	r2, [r3, #24]
    }
  }

  /* Report OverRun error for non TX Only communication */
  if (hspi->State != HAL_SPI_STATE_BUSY_TX)
 810488e:	687b      	ldr	r3, [r7, #4]
 8104890:	f893 3081 	ldrb.w	r3, [r3, #129]	@ 0x81
 8104894:	b2db      	uxtb	r3, r3
 8104896:	2b03      	cmp	r3, #3
 8104898:	d014      	beq.n	81048c4 <SPI_CloseTransfer+0xd0>
  {
    if ((itflag & SPI_FLAG_OVR) != 0UL)
 810489a:	68fb      	ldr	r3, [r7, #12]
 810489c:	f003 0340 	and.w	r3, r3, #64	@ 0x40
 81048a0:	2b00      	cmp	r3, #0
 81048a2:	d00f      	beq.n	81048c4 <SPI_CloseTransfer+0xd0>
    {
      SET_BIT(hspi->ErrorCode, HAL_SPI_ERROR_OVR);
 81048a4:	687b      	ldr	r3, [r7, #4]
 81048a6:	f8d3 3084 	ldr.w	r3, [r3, #132]	@ 0x84
 81048aa:	f043 0204 	orr.w	r2, r3, #4
 81048ae:	687b      	ldr	r3, [r7, #4]
 81048b0:	f8c3 2084 	str.w	r2, [r3, #132]	@ 0x84
      __HAL_SPI_CLEAR_OVRFLAG(hspi);
 81048b4:	687b      	ldr	r3, [r7, #4]
 81048b6:	681b      	ldr	r3, [r3, #0]
 81048b8:	699a      	ldr	r2, [r3, #24]
 81048ba:	687b      	ldr	r3, [r7, #4]
 81048bc:	681b      	ldr	r3, [r3, #0]
 81048be:	f042 0240 	orr.w	r2, r2, #64	@ 0x40
 81048c2:	619a      	str	r2, [r3, #24]
    }
#endif /* USE_SPI_CRC */
  }

  /* SPI Mode Fault error interrupt occurred -------------------------------*/
  if ((itflag & SPI_FLAG_MODF) != 0UL)
 81048c4:	68fb      	ldr	r3, [r7, #12]
 81048c6:	f403 7300 	and.w	r3, r3, #512	@ 0x200
 81048ca:	2b00      	cmp	r3, #0
 81048cc:	d00f      	beq.n	81048ee <SPI_CloseTransfer+0xfa>
  {
    SET_BIT(hspi->ErrorCode, HAL_SPI_ERROR_MODF);
 81048ce:	687b      	ldr	r3, [r7, #4]
 81048d0:	f8d3 3084 	ldr.w	r3, [r3, #132]	@ 0x84
 81048d4:	f043 0201 	orr.w	r2, r3, #1
 81048d8:	687b      	ldr	r3, [r7, #4]
 81048da:	f8c3 2084 	str.w	r2, [r3, #132]	@ 0x84
    __HAL_SPI_CLEAR_MODFFLAG(hspi);
 81048de:	687b      	ldr	r3, [r7, #4]
 81048e0:	681b      	ldr	r3, [r3, #0]
 81048e2:	699a      	ldr	r2, [r3, #24]
 81048e4:	687b      	ldr	r3, [r7, #4]
 81048e6:	681b      	ldr	r3, [r3, #0]
 81048e8:	f442 7200 	orr.w	r2, r2, #512	@ 0x200
 81048ec:	619a      	str	r2, [r3, #24]
  }

  /* SPI Frame error interrupt occurred ------------------------------------*/
  if ((itflag & SPI_FLAG_FRE) != 0UL)
 81048ee:	68fb      	ldr	r3, [r7, #12]
 81048f0:	f403 7380 	and.w	r3, r3, #256	@ 0x100
 81048f4:	2b00      	cmp	r3, #0
 81048f6:	d00f      	beq.n	8104918 <SPI_CloseTransfer+0x124>
  {
    SET_BIT(hspi->ErrorCode, HAL_SPI_ERROR_FRE);
 81048f8:	687b      	ldr	r3, [r7, #4]
 81048fa:	f8d3 3084 	ldr.w	r3, [r3, #132]	@ 0x84
 81048fe:	f043 0208 	orr.w	r2, r3, #8
 8104902:	687b      	ldr	r3, [r7, #4]
 8104904:	f8c3 2084 	str.w	r2, [r3, #132]	@ 0x84
    __HAL_SPI_CLEAR_FREFLAG(hspi);
 8104908:	687b      	ldr	r3, [r7, #4]
 810490a:	681b      	ldr	r3, [r3, #0]
 810490c:	699a      	ldr	r2, [r3, #24]
 810490e:	687b      	ldr	r3, [r7, #4]
 8104910:	681b      	ldr	r3, [r3, #0]
 8104912:	f442 7280 	orr.w	r2, r2, #256	@ 0x100
 8104916:	619a      	str	r2, [r3, #24]
  }

  hspi->TxXferCount = (uint16_t)0UL;
 8104918:	687b      	ldr	r3, [r7, #4]
 810491a:	2200      	movs	r2, #0
 810491c:	f8a3 2062 	strh.w	r2, [r3, #98]	@ 0x62
  hspi->RxXferCount = (uint16_t)0UL;
 8104920:	687b      	ldr	r3, [r7, #4]
 8104922:	2200      	movs	r2, #0
 8104924:	f8a3 206a 	strh.w	r2, [r3, #106]	@ 0x6a
}
 8104928:	bf00      	nop
 810492a:	3714      	adds	r7, #20
 810492c:	46bd      	mov	sp, r7
 810492e:	f85d 7b04 	ldr.w	r7, [sp], #4
 8104932:	4770      	bx	lr

08104934 <SPI_WaitOnFlagUntilTimeout>:
  * @param Tickstart: Tick start value
  * @retval HAL status
  */
static HAL_StatusTypeDef SPI_WaitOnFlagUntilTimeout(const SPI_HandleTypeDef *hspi, uint32_t Flag, FlagStatus Status,
                                                    uint32_t Timeout, uint32_t Tickstart)
{
 8104934:	b580      	push	{r7, lr}
 8104936:	b084      	sub	sp, #16
 8104938:	af00      	add	r7, sp, #0
 810493a:	60f8      	str	r0, [r7, #12]
 810493c:	60b9      	str	r1, [r7, #8]
 810493e:	603b      	str	r3, [r7, #0]
 8104940:	4613      	mov	r3, r2
 8104942:	71fb      	strb	r3, [r7, #7]
  /* Wait until flag is set */
  while ((__HAL_SPI_GET_FLAG(hspi, Flag) ? SET : RESET) == Status)
 8104944:	e010      	b.n	8104968 <SPI_WaitOnFlagUntilTimeout+0x34>
  {
    /* Check for the Timeout */
    if ((((HAL_GetTick() - Tickstart) >=  Timeout) && (Timeout != HAL_MAX_DELAY)) || (Timeout == 0U))
 8104946:	f7fc fe0f 	bl	8101568 <HAL_GetTick>
 810494a:	4602      	mov	r2, r0
 810494c:	69bb      	ldr	r3, [r7, #24]
 810494e:	1ad3      	subs	r3, r2, r3
 8104950:	683a      	ldr	r2, [r7, #0]
 8104952:	429a      	cmp	r2, r3
 8104954:	d803      	bhi.n	810495e <SPI_WaitOnFlagUntilTimeout+0x2a>
 8104956:	683b      	ldr	r3, [r7, #0]
 8104958:	f1b3 3fff 	cmp.w	r3, #4294967295
 810495c:	d102      	bne.n	8104964 <SPI_WaitOnFlagUntilTimeout+0x30>
 810495e:	683b      	ldr	r3, [r7, #0]
 8104960:	2b00      	cmp	r3, #0
 8104962:	d101      	bne.n	8104968 <SPI_WaitOnFlagUntilTimeout+0x34>
    {
      return HAL_TIMEOUT;
 8104964:	2303      	movs	r3, #3
 8104966:	e00f      	b.n	8104988 <SPI_WaitOnFlagUntilTimeout+0x54>
  while ((__HAL_SPI_GET_FLAG(hspi, Flag) ? SET : RESET) == Status)
 8104968:	68fb      	ldr	r3, [r7, #12]
 810496a:	681b      	ldr	r3, [r3, #0]
 810496c:	695a      	ldr	r2, [r3, #20]
 810496e:	68bb      	ldr	r3, [r7, #8]
 8104970:	4013      	ands	r3, r2
 8104972:	68ba      	ldr	r2, [r7, #8]
 8104974:	429a      	cmp	r2, r3
 8104976:	bf0c      	ite	eq
 8104978:	2301      	moveq	r3, #1
 810497a:	2300      	movne	r3, #0
 810497c:	b2db      	uxtb	r3, r3
 810497e:	461a      	mov	r2, r3
 8104980:	79fb      	ldrb	r3, [r7, #7]
 8104982:	429a      	cmp	r2, r3
 8104984:	d0df      	beq.n	8104946 <SPI_WaitOnFlagUntilTimeout+0x12>
    }
  }
  return HAL_OK;
 8104986:	2300      	movs	r3, #0
}
 8104988:	4618      	mov	r0, r3
 810498a:	3710      	adds	r7, #16
 810498c:	46bd      	mov	sp, r7
 810498e:	bd80      	pop	{r7, pc}

08104990 <SPI_GetPacketSize>:
  * @param  hspi: pointer to a SPI_HandleTypeDef structure that contains
  *               the configuration information for SPI module.
  * @retval Packet size occupied in the fifo
  */
static uint32_t SPI_GetPacketSize(const SPI_HandleTypeDef *hspi)
{
 8104990:	b480      	push	{r7}
 8104992:	b085      	sub	sp, #20
 8104994:	af00      	add	r7, sp, #0
 8104996:	6078      	str	r0, [r7, #4]
  uint32_t fifo_threashold = (hspi->Init.FifoThreshold >> SPI_CFG1_FTHLV_Pos) + 1UL;
 8104998:	687b      	ldr	r3, [r7, #4]
 810499a:	6bdb      	ldr	r3, [r3, #60]	@ 0x3c
 810499c:	095b      	lsrs	r3, r3, #5
 810499e:	3301      	adds	r3, #1
 81049a0:	60fb      	str	r3, [r7, #12]
  uint32_t data_size       = (hspi->Init.DataSize      >> SPI_CFG1_DSIZE_Pos) + 1UL;
 81049a2:	687b      	ldr	r3, [r7, #4]
 81049a4:	68db      	ldr	r3, [r3, #12]
 81049a6:	3301      	adds	r3, #1
 81049a8:	60bb      	str	r3, [r7, #8]

  /* Convert data size to Byte */
  data_size = (data_size + 7UL) / 8UL;
 81049aa:	68bb      	ldr	r3, [r7, #8]
 81049ac:	3307      	adds	r3, #7
 81049ae:	08db      	lsrs	r3, r3, #3
 81049b0:	60bb      	str	r3, [r7, #8]

  return data_size * fifo_threashold;
 81049b2:	68bb      	ldr	r3, [r7, #8]
 81049b4:	68fa      	ldr	r2, [r7, #12]
 81049b6:	fb02 f303 	mul.w	r3, r2, r3
}
 81049ba:	4618      	mov	r0, r3
 81049bc:	3714      	adds	r7, #20
 81049be:	46bd      	mov	sp, r7
 81049c0:	f85d 7b04 	ldr.w	r7, [sp], #4
 81049c4:	4770      	bx	lr

081049c6 <memset>:
 81049c6:	4402      	add	r2, r0
 81049c8:	4603      	mov	r3, r0
 81049ca:	4293      	cmp	r3, r2
 81049cc:	d100      	bne.n	81049d0 <memset+0xa>
 81049ce:	4770      	bx	lr
 81049d0:	f803 1b01 	strb.w	r1, [r3], #1
 81049d4:	e7f9      	b.n	81049ca <memset+0x4>
	...

081049d8 <__libc_init_array>:
 81049d8:	b570      	push	{r4, r5, r6, lr}
 81049da:	4d0d      	ldr	r5, [pc, #52]	@ (8104a10 <__libc_init_array+0x38>)
 81049dc:	4c0d      	ldr	r4, [pc, #52]	@ (8104a14 <__libc_init_array+0x3c>)
 81049de:	1b64      	subs	r4, r4, r5
 81049e0:	10a4      	asrs	r4, r4, #2
 81049e2:	2600      	movs	r6, #0
 81049e4:	42a6      	cmp	r6, r4
 81049e6:	d109      	bne.n	81049fc <__libc_init_array+0x24>
 81049e8:	4d0b      	ldr	r5, [pc, #44]	@ (8104a18 <__libc_init_array+0x40>)
 81049ea:	4c0c      	ldr	r4, [pc, #48]	@ (8104a1c <__libc_init_array+0x44>)
 81049ec:	f000 f818 	bl	8104a20 <_init>
 81049f0:	1b64      	subs	r4, r4, r5
 81049f2:	10a4      	asrs	r4, r4, #2
 81049f4:	2600      	movs	r6, #0
 81049f6:	42a6      	cmp	r6, r4
 81049f8:	d105      	bne.n	8104a06 <__libc_init_array+0x2e>
 81049fa:	bd70      	pop	{r4, r5, r6, pc}
 81049fc:	f855 3b04 	ldr.w	r3, [r5], #4
 8104a00:	4798      	blx	r3
 8104a02:	3601      	adds	r6, #1
 8104a04:	e7ee      	b.n	81049e4 <__libc_init_array+0xc>
 8104a06:	f855 3b04 	ldr.w	r3, [r5], #4
 8104a0a:	4798      	blx	r3
 8104a0c:	3601      	adds	r6, #1
 8104a0e:	e7f2      	b.n	81049f6 <__libc_init_array+0x1e>
 8104a10:	08104a6c 	.word	0x08104a6c
 8104a14:	08104a6c 	.word	0x08104a6c
 8104a18:	08104a6c 	.word	0x08104a6c
 8104a1c:	08104a70 	.word	0x08104a70

08104a20 <_init>:
 8104a20:	b5f8      	push	{r3, r4, r5, r6, r7, lr}
 8104a22:	bf00      	nop
 8104a24:	bcf8      	pop	{r3, r4, r5, r6, r7}
 8104a26:	bc08      	pop	{r3}
 8104a28:	469e      	mov	lr, r3
 8104a2a:	4770      	bx	lr

08104a2c <_fini>:
 8104a2c:	b5f8      	push	{r3, r4, r5, r6, r7, lr}
 8104a2e:	bf00      	nop
 8104a30:	bcf8      	pop	{r3, r4, r5, r6, r7}
 8104a32:	bc08      	pop	{r3}
 8104a34:	469e      	mov	lr, r3
 8104a36:	4770      	bx	lr
